ARM GAS  C:\Users\Victor\AppData\Local\Temp\ccOsbm6Y.s 			page 1


   1              		.syntax unified
   2              		.cpu cortex-m3
   3              		.fpu softvfp
   4              		.eabi_attribute 20, 1
   5              		.eabi_attribute 21, 1
   6              		.eabi_attribute 23, 3
   7              		.eabi_attribute 24, 1
   8              		.eabi_attribute 25, 1
   9              		.eabi_attribute 26, 1
  10              		.eabi_attribute 30, 6
  11              		.eabi_attribute 18, 4
  12              		.thumb
  13              		.file	"ADC.c"
  14              		.section	.debug_abbrev,"",%progbits
  15              	.Ldebug_abbrev0:
  16              		.section	.debug_info,"",%progbits
  17              	.Ldebug_info0:
  18              		.section	.debug_line,"",%progbits
  19              	.Ldebug_line0:
  20 0000 CB030000 		.text
  20      02005C00 
  20      00000201 
  20      FB0E0D00 
  20      01010101 
  21              	.Ltext0:
  22              		.cfi_sections	.debug_frame
  23              		.global	ADC_convDone
  24              		.bss
  25              		.type	ADC_convDone, %object
  26              		.size	ADC_convDone, 1
  27              	ADC_convDone:
  28 0000 00       		.space	1
  29              		.global	ADC_stopConversion
  30              		.type	ADC_stopConversion, %object
  31              		.size	ADC_stopConversion, 1
  32              	ADC_stopConversion:
  33 0001 00       		.space	1
  34              		.global	ADC_initVar
  35              		.type	ADC_initVar, %object
  36              		.size	ADC_initVar, 1
  37              	ADC_initVar:
  38 0002 00       		.space	1
  39              		.global	ADC_started
  40              		.type	ADC_started, %object
  41              		.size	ADC_started, 1
  42              	ADC_started:
  43 0003 00       		.space	1
  44              		.global	ADC_Config
  45              		.data
  46              		.type	ADC_Config, %object
  47              		.size	ADC_Config, 1
  48              	ADC_Config:
  49 0000 01       		.byte	1
  50              		.global	ADC_Offset
  51              		.bss
  52              		.align	2
  53              		.type	ADC_Offset, %object
ARM GAS  C:\Users\Victor\AppData\Local\Temp\ccOsbm6Y.s 			page 2


  54              		.size	ADC_Offset, 4
  55              	ADC_Offset:
  56 0004 00000000 		.space	4
  57              		.global	ADC_CountsPerVolt
  58              		.data
  59 0001 000000   		.align	2
  60              		.type	ADC_CountsPerVolt, %object
  61              		.size	ADC_CountsPerVolt, 4
  62              	ADC_CountsPerVolt:
  63 0004 33330000 		.word	13107
  64              		.section	.text.ADC_Init,"ax",%progbits
  65              		.align	2
  66              		.global	ADC_Init
  67              		.thumb
  68              		.thumb_func
  69              		.type	ADC_Init, %function
  70              	ADC_Init:
  71              	.LFB0:
  72              		.file 1 ".\\Generated_Source\\PSoC5\\ADC.c"
   1:.\Generated_Source\PSoC5/ADC.c **** /*******************************************************************************
   2:.\Generated_Source\PSoC5/ADC.c **** * File Name: ADC.c  
   3:.\Generated_Source\PSoC5/ADC.c **** * Version 2.30
   4:.\Generated_Source\PSoC5/ADC.c **** *
   5:.\Generated_Source\PSoC5/ADC.c **** * Description:
   6:.\Generated_Source\PSoC5/ADC.c **** *  This file provides the source code to the API for the Delta-Sigma ADC
   7:.\Generated_Source\PSoC5/ADC.c **** *  Component.
   8:.\Generated_Source\PSoC5/ADC.c **** *
   9:.\Generated_Source\PSoC5/ADC.c **** * Note:
  10:.\Generated_Source\PSoC5/ADC.c **** *
  11:.\Generated_Source\PSoC5/ADC.c **** *******************************************************************************
  12:.\Generated_Source\PSoC5/ADC.c **** * Copyright 2008-2012, Cypress Semiconductor Corporation.  All rights reserved.
  13:.\Generated_Source\PSoC5/ADC.c **** * You may use this file only in accordance with the license, terms, conditions, 
  14:.\Generated_Source\PSoC5/ADC.c **** * disclaimers, and limitations in the end user license agreement accompanying 
  15:.\Generated_Source\PSoC5/ADC.c **** * the software package with which this file was provided.
  16:.\Generated_Source\PSoC5/ADC.c **** ********************************************************************************/
  17:.\Generated_Source\PSoC5/ADC.c **** 
  18:.\Generated_Source\PSoC5/ADC.c **** #include "ADC.h"
  19:.\Generated_Source\PSoC5/ADC.c **** 
  20:.\Generated_Source\PSoC5/ADC.c **** #if(ADC_DEFAULT_INTERNAL_CLK)
  21:.\Generated_Source\PSoC5/ADC.c ****     #include "ADC_theACLK.h"
  22:.\Generated_Source\PSoC5/ADC.c **** #endif /* ADC_DEFAULT_INTERNAL_CLK */
  23:.\Generated_Source\PSoC5/ADC.c **** 
  24:.\Generated_Source\PSoC5/ADC.c **** #include "ADC_Ext_CP_Clk.h"
  25:.\Generated_Source\PSoC5/ADC.c **** 
  26:.\Generated_Source\PSoC5/ADC.c **** #if(ADC_DEFAULT_INPUT_MODE)
  27:.\Generated_Source\PSoC5/ADC.c ****     #include "ADC_AMux.h"
  28:.\Generated_Source\PSoC5/ADC.c **** #endif /* ADC_DEFAULT_INPUT_MODE */
  29:.\Generated_Source\PSoC5/ADC.c **** 
  30:.\Generated_Source\PSoC5/ADC.c **** /* Software flag for checking conversion completed or not */
  31:.\Generated_Source\PSoC5/ADC.c **** volatile uint8 ADC_convDone = 0u;
  32:.\Generated_Source\PSoC5/ADC.c **** 
  33:.\Generated_Source\PSoC5/ADC.c **** /* Software flag to stop conversion for single sample conversion mode 
  34:.\Generated_Source\PSoC5/ADC.c ****    with resolution above 16 bits */
  35:.\Generated_Source\PSoC5/ADC.c **** volatile uint8 ADC_stopConversion = 0u;
  36:.\Generated_Source\PSoC5/ADC.c **** 
  37:.\Generated_Source\PSoC5/ADC.c **** /* To run the initialization block only at the start up */
  38:.\Generated_Source\PSoC5/ADC.c **** uint8 ADC_initVar = 0u;
ARM GAS  C:\Users\Victor\AppData\Local\Temp\ccOsbm6Y.s 			page 3


  39:.\Generated_Source\PSoC5/ADC.c **** 
  40:.\Generated_Source\PSoC5/ADC.c **** /* To check whether ADC started or not before switching the configuration */
  41:.\Generated_Source\PSoC5/ADC.c **** volatile uint8 ADC_started = 0u;
  42:.\Generated_Source\PSoC5/ADC.c **** 
  43:.\Generated_Source\PSoC5/ADC.c **** /* Flag to hold ADC config number. By default active config is 1. */
  44:.\Generated_Source\PSoC5/ADC.c **** volatile uint8 ADC_Config = 1u;
  45:.\Generated_Source\PSoC5/ADC.c **** 
  46:.\Generated_Source\PSoC5/ADC.c **** volatile int32 ADC_Offset = 0u;
  47:.\Generated_Source\PSoC5/ADC.c **** volatile int32 ADC_CountsPerVolt = (uint32)ADC_CFG1_COUNTS_PER_VOLT;
  48:.\Generated_Source\PSoC5/ADC.c **** 
  49:.\Generated_Source\PSoC5/ADC.c **** /* Only valid for PSoC5A */
  50:.\Generated_Source\PSoC5/ADC.c **** /* Variable to decide whether or not to restore the register values from
  51:.\Generated_Source\PSoC5/ADC.c ****     backup structure */
  52:.\Generated_Source\PSoC5/ADC.c **** #if (CY_PSOC5A)
  53:.\Generated_Source\PSoC5/ADC.c ****     uint8 ADC_restoreReg = 0u;
  54:.\Generated_Source\PSoC5/ADC.c **** #endif /* CY_PSOC5A */
  55:.\Generated_Source\PSoC5/ADC.c **** 
  56:.\Generated_Source\PSoC5/ADC.c **** /* Valid only for PSoC5A silicon */
  57:.\Generated_Source\PSoC5/ADC.c **** #if (CY_PSOC5A)
  58:.\Generated_Source\PSoC5/ADC.c ****     /* Backup struct for power mode registers */
  59:.\Generated_Source\PSoC5/ADC.c ****     static ADC_POWERMODE_BACKUP_STRUCT ADC_powerModeBackup = 
  60:.\Generated_Source\PSoC5/ADC.c ****     {
  61:.\Generated_Source\PSoC5/ADC.c ****         /* Initializing the structure fields with power mode registers of 
  62:.\Generated_Source\PSoC5/ADC.c ****            config1 */
  63:.\Generated_Source\PSoC5/ADC.c ****         ADC_CFG1_DSM_CR14,
  64:.\Generated_Source\PSoC5/ADC.c ****         ADC_CFG1_DSM_CR15,
  65:.\Generated_Source\PSoC5/ADC.c ****         ADC_CFG1_DSM_CR16,
  66:.\Generated_Source\PSoC5/ADC.c ****         ADC_CFG1_DSM_CR17,
  67:.\Generated_Source\PSoC5/ADC.c ****         ADC_CFG1_DSM_REF0,
  68:.\Generated_Source\PSoC5/ADC.c ****         ADC_CFG1_DSM_BUF0,
  69:.\Generated_Source\PSoC5/ADC.c ****         ADC_CFG1_DSM_BUF1,
  70:.\Generated_Source\PSoC5/ADC.c ****         ADC_CFG1_DSM_CLK,
  71:.\Generated_Source\PSoC5/ADC.c ****         ADC_BYPASS_DISABLED
  72:.\Generated_Source\PSoC5/ADC.c ****     };
  73:.\Generated_Source\PSoC5/ADC.c **** #endif /* CY_PSOC5A */
  74:.\Generated_Source\PSoC5/ADC.c **** 
  75:.\Generated_Source\PSoC5/ADC.c **** 
  76:.\Generated_Source\PSoC5/ADC.c **** /****************************************************************************** 
  77:.\Generated_Source\PSoC5/ADC.c **** * Function Name: ADC_Init
  78:.\Generated_Source\PSoC5/ADC.c **** *******************************************************************************
  79:.\Generated_Source\PSoC5/ADC.c **** *
  80:.\Generated_Source\PSoC5/ADC.c **** * Summary:
  81:.\Generated_Source\PSoC5/ADC.c **** *  Initialize component's parameters to the parameters set by user in the 
  82:.\Generated_Source\PSoC5/ADC.c **** *  customizer of the component placed onto schematic. Usually called in 
  83:.\Generated_Source\PSoC5/ADC.c **** * ADC_Start().
  84:.\Generated_Source\PSoC5/ADC.c **** *  
  85:.\Generated_Source\PSoC5/ADC.c **** *
  86:.\Generated_Source\PSoC5/ADC.c **** * Parameters:  
  87:.\Generated_Source\PSoC5/ADC.c **** *  void
  88:.\Generated_Source\PSoC5/ADC.c **** *
  89:.\Generated_Source\PSoC5/ADC.c **** * Return: 
  90:.\Generated_Source\PSoC5/ADC.c **** *  void 
  91:.\Generated_Source\PSoC5/ADC.c **** *
  92:.\Generated_Source\PSoC5/ADC.c **** *******************************************************************************/
  93:.\Generated_Source\PSoC5/ADC.c **** void ADC_Init(void) 
  94:.\Generated_Source\PSoC5/ADC.c **** {
  73              		.loc 1 94 0
ARM GAS  C:\Users\Victor\AppData\Local\Temp\ccOsbm6Y.s 			page 4


  74              		.cfi_startproc
  75              		@ args = 0, pretend = 0, frame = 0
  76              		@ frame_needed = 1, uses_anonymous_args = 0
  77 0000 80B5     		push	{r7, lr}
  78              	.LCFI0:
  79              		.cfi_def_cfa_offset 8
  80 0002 00AF     		add	r7, sp, #0
  81              		.cfi_offset 14, -4
  82              		.cfi_offset 7, -8
  83              	.LCFI1:
  84              		.cfi_def_cfa_register 7
  95:.\Generated_Source\PSoC5/ADC.c ****     /* Initialize the registers with default customizer settings for config1 */
  96:.\Generated_Source\PSoC5/ADC.c ****     ADC_InitConfig(1);
  85              		.loc 1 96 0
  86 0004 4FF00100 		mov	r0, #1
  87 0008 FFF7FEFF 		bl	ADC_InitConfig
  97:.\Generated_Source\PSoC5/ADC.c **** 
  98:.\Generated_Source\PSoC5/ADC.c ****     /* This is only valid if there is an internal clock */
  99:.\Generated_Source\PSoC5/ADC.c ****     #if(ADC_DEFAULT_INTERNAL_CLK)
 100:.\Generated_Source\PSoC5/ADC.c ****         ADC_theACLK_SetMode(CYCLK_DUTY);
  88              		.loc 1 100 0
  89 000c 4FF01000 		mov	r0, #16
  90 0010 FFF7FEFF 		bl	ADC_theACLK_SetModeRegister
 101:.\Generated_Source\PSoC5/ADC.c ****     #endif /* ADC_DEFAULT_INTERNAL_CLK */
 102:.\Generated_Source\PSoC5/ADC.c ****     
 103:.\Generated_Source\PSoC5/ADC.c ****     /* Set the duty cycle for charge pump clock */
 104:.\Generated_Source\PSoC5/ADC.c ****     ADC_Ext_CP_Clk_SetMode(CYCLK_DUTY);
  91              		.loc 1 104 0
  92 0014 4FF01000 		mov	r0, #16
  93 0018 FFF7FEFF 		bl	ADC_Ext_CP_Clk_SetModeRegister
 105:.\Generated_Source\PSoC5/ADC.c **** 
 106:.\Generated_Source\PSoC5/ADC.c ****     /* To perform ADC calibration */
 107:.\Generated_Source\PSoC5/ADC.c ****     ADC_GainCompensation(ADC_CFG1_RANGE, 
  94              		.loc 1 107 0
  95 001c 4FF00200 		mov	r0, #2
  96 0020 48F65861 		movw	r1, #36440
  97 0024 4FF40042 		mov	r2, #32768
  98 0028 4FF01003 		mov	r3, #16
  99 002c FFF7FEFF 		bl	ADC_GainCompensation
 108:.\Generated_Source\PSoC5/ADC.c ****                                       ADC_CFG1_IDEAL_DEC_GAIN, 
 109:.\Generated_Source\PSoC5/ADC.c ****                                       ADC_CFG1_IDEAL_ODDDEC_GAIN, 
 110:.\Generated_Source\PSoC5/ADC.c ****                                       ADC_CFG1_RESOLUTION);        
 111:.\Generated_Source\PSoC5/ADC.c **** }
 100              		.loc 1 111 0
 101 0030 80BD     		pop	{r7, pc}
 102              		.cfi_endproc
 103              	.LFE0:
 104              		.size	ADC_Init, .-ADC_Init
 105 0032 00BF     		.section	.text.ADC_Enable,"ax",%progbits
 106              		.align	2
 107              		.global	ADC_Enable
 108              		.thumb
 109              		.thumb_func
 110              		.type	ADC_Enable, %function
 111              	ADC_Enable:
 112              	.LFB1:
 112:.\Generated_Source\PSoC5/ADC.c **** 
ARM GAS  C:\Users\Victor\AppData\Local\Temp\ccOsbm6Y.s 			page 5


 113:.\Generated_Source\PSoC5/ADC.c **** 
 114:.\Generated_Source\PSoC5/ADC.c **** /******************************************************************************
 115:.\Generated_Source\PSoC5/ADC.c **** * Function Name: ADC_Enable
 116:.\Generated_Source\PSoC5/ADC.c **** *******************************************************************************
 117:.\Generated_Source\PSoC5/ADC.c **** *
 118:.\Generated_Source\PSoC5/ADC.c **** * Summary: 
 119:.\Generated_Source\PSoC5/ADC.c **** *  Enables the ADC DelSig block operation.
 120:.\Generated_Source\PSoC5/ADC.c **** *  
 121:.\Generated_Source\PSoC5/ADC.c **** *
 122:.\Generated_Source\PSoC5/ADC.c **** * Parameters:  
 123:.\Generated_Source\PSoC5/ADC.c **** *  void
 124:.\Generated_Source\PSoC5/ADC.c **** *
 125:.\Generated_Source\PSoC5/ADC.c **** * Return: 
 126:.\Generated_Source\PSoC5/ADC.c **** *  void 
 127:.\Generated_Source\PSoC5/ADC.c **** *
 128:.\Generated_Source\PSoC5/ADC.c **** *******************************************************************************/
 129:.\Generated_Source\PSoC5/ADC.c **** void ADC_Enable(void) 
 130:.\Generated_Source\PSoC5/ADC.c **** {
 113              		.loc 1 130 0
 114              		.cfi_startproc
 115              		@ args = 0, pretend = 0, frame = 0
 116              		@ frame_needed = 1, uses_anonymous_args = 0
 117 0000 80B5     		push	{r7, lr}
 118              	.LCFI2:
 119              		.cfi_def_cfa_offset 8
 120 0002 00AF     		add	r7, sp, #0
 121              		.cfi_offset 14, -4
 122              		.cfi_offset 7, -8
 123              	.LCFI3:
 124              		.cfi_def_cfa_register 7
 131:.\Generated_Source\PSoC5/ADC.c ****     /* Restore the power registers if silicon used is PSoC5A */
 132:.\Generated_Source\PSoC5/ADC.c ****     #if (CY_PSOC5A)
 133:.\Generated_Source\PSoC5/ADC.c ****         if(ADC_restoreReg && 
 134:.\Generated_Source\PSoC5/ADC.c ****            (!(ADC_powerModeBackup.bypassRestore)))
 135:.\Generated_Source\PSoC5/ADC.c ****         {
 136:.\Generated_Source\PSoC5/ADC.c ****             ADC_RestorePowerRegisters();
 137:.\Generated_Source\PSoC5/ADC.c ****             ADC_restoreReg = 0u;
 138:.\Generated_Source\PSoC5/ADC.c ****         }
 139:.\Generated_Source\PSoC5/ADC.c ****         ADC_powerModeBackup.bypassRestore = ADC_BYPASS_DISABLED;
 140:.\Generated_Source\PSoC5/ADC.c ****     #endif /* CY_PSOC5A */
 141:.\Generated_Source\PSoC5/ADC.c **** 
 142:.\Generated_Source\PSoC5/ADC.c ****     /* Enable active mode power for ADC */
 143:.\Generated_Source\PSoC5/ADC.c ****     ADC_PWRMGR_DEC_REG |= ADC_ACT_PWR_DEC_EN;
 125              		.loc 1 143 0
 126 0004 44F2AA33 		movw	r3, #:lower16:1073759146
 127 0008 C4F20003 		movt	r3, #:upper16:1073759146
 128 000c 44F2AA32 		movw	r2, #:lower16:1073759146
 129 0010 C4F20002 		movt	r2, #:upper16:1073759146
 130 0014 1278     		ldrb	r2, [r2, #0]
 131 0016 D2B2     		uxtb	r2, r2
 132 0018 42F00102 		orr	r2, r2, #1
 133 001c D2B2     		uxtb	r2, r2
 134 001e 1A70     		strb	r2, [r3, #0]
 144:.\Generated_Source\PSoC5/ADC.c ****     ADC_PWRMGR_DSM_REG |= ADC_ACT_PWR_DSM_EN;
 135              		.loc 1 144 0
 136 0020 44F2AA33 		movw	r3, #:lower16:1073759146
 137 0024 C4F20003 		movt	r3, #:upper16:1073759146
ARM GAS  C:\Users\Victor\AppData\Local\Temp\ccOsbm6Y.s 			page 6


 138 0028 44F2AA32 		movw	r2, #:lower16:1073759146
 139 002c C4F20002 		movt	r2, #:upper16:1073759146
 140 0030 1278     		ldrb	r2, [r2, #0]
 141 0032 D2B2     		uxtb	r2, r2
 142 0034 42F01002 		orr	r2, r2, #16
 143 0038 D2B2     		uxtb	r2, r2
 144 003a 1A70     		strb	r2, [r3, #0]
 145:.\Generated_Source\PSoC5/ADC.c ****     
 146:.\Generated_Source\PSoC5/ADC.c ****      /* Enable alternative active mode power for ADC */
 147:.\Generated_Source\PSoC5/ADC.c ****     ADC_STBY_PWRMGR_DEC_REG |= ADC_STBY_PWR_DEC_EN;
 145              		.loc 1 147 0
 146 003c 44F2BA33 		movw	r3, #:lower16:1073759162
 147 0040 C4F20003 		movt	r3, #:upper16:1073759162
 148 0044 44F2BA32 		movw	r2, #:lower16:1073759162
 149 0048 C4F20002 		movt	r2, #:upper16:1073759162
 150 004c 1278     		ldrb	r2, [r2, #0]
 151 004e D2B2     		uxtb	r2, r2
 152 0050 42F00102 		orr	r2, r2, #1
 153 0054 D2B2     		uxtb	r2, r2
 154 0056 1A70     		strb	r2, [r3, #0]
 148:.\Generated_Source\PSoC5/ADC.c ****     #if (CY_PSOC3 || CY_PSOC5LP)
 149:.\Generated_Source\PSoC5/ADC.c ****     ADC_STBY_PWRMGR_DSM_REG |= ADC_STBY_PWR_DSM_EN;
 155              		.loc 1 149 0
 156 0058 44F2BA33 		movw	r3, #:lower16:1073759162
 157 005c C4F20003 		movt	r3, #:upper16:1073759162
 158 0060 44F2BA32 		movw	r2, #:lower16:1073759162
 159 0064 C4F20002 		movt	r2, #:upper16:1073759162
 160 0068 1278     		ldrb	r2, [r2, #0]
 161 006a D2B2     		uxtb	r2, r2
 162 006c 42F01002 		orr	r2, r2, #16
 163 0070 D2B2     		uxtb	r2, r2
 164 0072 1A70     		strb	r2, [r3, #0]
 150:.\Generated_Source\PSoC5/ADC.c ****     #endif /* CY_PSOC3 || CY_PSOC5LP */
 151:.\Generated_Source\PSoC5/ADC.c **** 
 152:.\Generated_Source\PSoC5/ADC.c ****     /* Config selected is 1, then before enablign the REFBUF0, REFBUF1 and 
 153:.\Generated_Source\PSoC5/ADC.c **** 	   VCMBUF's enable and press circuit and then after a delay of 3
 154:.\Generated_Source\PSoC5/ADC.c **** 	   microseconds, disable the press circuit. */
 155:.\Generated_Source\PSoC5/ADC.c ****     if (ADC_Config == 1u)
 165              		.loc 1 155 0
 166 0074 40F20003 		movw	r3, #:lower16:ADC_Config
 167 0078 C0F20003 		movt	r3, #:upper16:ADC_Config
 168 007c 1B78     		ldrb	r3, [r3, #0]
 169 007e DBB2     		uxtb	r3, r3
 170 0080 012B     		cmp	r3, #1
 171 0082 47D1     		bne	.L4
 156:.\Generated_Source\PSoC5/ADC.c **** 	{
 157:.\Generated_Source\PSoC5/ADC.c **** 	    /* Disable PRES, Enable power to VCMBUF0, REFBUF0 and REFBUF1, enable 
 158:.\Generated_Source\PSoC5/ADC.c **** 	       PRES */
 159:.\Generated_Source\PSoC5/ADC.c **** 	    #if (CY_PSOC3 || CY_PSOC5LP)
 160:.\Generated_Source\PSoC5/ADC.c **** 	        ADC_RESET_CR4_REG |= ADC_IGNORE_PRESA1;
 172              		.loc 1 160 0
 173 0084 44F2F863 		movw	r3, #:lower16:1073759992
 174 0088 C4F20003 		movt	r3, #:upper16:1073759992
 175 008c 44F2F862 		movw	r2, #:lower16:1073759992
 176 0090 C4F20002 		movt	r2, #:upper16:1073759992
 177 0094 1278     		ldrb	r2, [r2, #0]
 178 0096 D2B2     		uxtb	r2, r2
ARM GAS  C:\Users\Victor\AppData\Local\Temp\ccOsbm6Y.s 			page 7


 179 0098 42F00202 		orr	r2, r2, #2
 180 009c D2B2     		uxtb	r2, r2
 181 009e 1A70     		strb	r2, [r3, #0]
 161:.\Generated_Source\PSoC5/ADC.c **** 	        ADC_RESET_CR5_REG |= ADC_IGNORE_PRESA2;
 182              		.loc 1 161 0
 183 00a0 44F2F963 		movw	r3, #:lower16:1073759993
 184 00a4 C4F20003 		movt	r3, #:upper16:1073759993
 185 00a8 44F2F962 		movw	r2, #:lower16:1073759993
 186 00ac C4F20002 		movt	r2, #:upper16:1073759993
 187 00b0 1278     		ldrb	r2, [r2, #0]
 188 00b2 D2B2     		uxtb	r2, r2
 189 00b4 42F00202 		orr	r2, r2, #2
 190 00b8 D2B2     		uxtb	r2, r2
 191 00ba 1A70     		strb	r2, [r3, #0]
 162:.\Generated_Source\PSoC5/ADC.c **** 	    #elif (CY_PSOC5A)
 163:.\Generated_Source\PSoC5/ADC.c **** 	        ADC_RESET_CR1_REG |= ADC_DIS_PRES1;
 164:.\Generated_Source\PSoC5/ADC.c **** 	        ADC_RESET_CR3_REG |= ADC_DIS_PRES2;
 165:.\Generated_Source\PSoC5/ADC.c **** 	    #endif /* CY_PSOC5A */
 166:.\Generated_Source\PSoC5/ADC.c **** 	    
 167:.\Generated_Source\PSoC5/ADC.c **** 	    ADC_DSM_CR17_REG |= (ADC_DSM_EN_BUF_VREF | ADC_DSM_EN_BUF_VCM);
 192              		.loc 1 167 0
 193 00bc 45F69103 		movw	r3, #:lower16:1073764497
 194 00c0 C4F20003 		movt	r3, #:upper16:1073764497
 195 00c4 45F69102 		movw	r2, #:lower16:1073764497
 196 00c8 C4F20002 		movt	r2, #:upper16:1073764497
 197 00cc 1278     		ldrb	r2, [r2, #0]
 198 00ce D2B2     		uxtb	r2, r2
 199 00d0 42F00302 		orr	r2, r2, #3
 200 00d4 D2B2     		uxtb	r2, r2
 201 00d6 1A70     		strb	r2, [r3, #0]
 168:.\Generated_Source\PSoC5/ADC.c **** 	    #if ((ADC_CFG1_REFERENCE == ADC_EXT_REF_ON_P03) || \
 169:.\Generated_Source\PSoC5/ADC.c **** 	         (ADC_CFG1_REFERENCE == ADC_EXT_REF_ON_P32))
 170:.\Generated_Source\PSoC5/ADC.c **** 	        ADC_DSM_CR17_REG &= ~ADC_DSM_EN_BUF_VREF;
 171:.\Generated_Source\PSoC5/ADC.c **** 	    #endif /* Check for exteranl reference option */
 172:.\Generated_Source\PSoC5/ADC.c **** 	    #if ((ADC_CFG1_RANGE == ADC_IR_VSSA_TO_2VREF) && \
 173:.\Generated_Source\PSoC5/ADC.c **** 	          (CY_PSOC3 || CY_PSOC5LP) && \
 174:.\Generated_Source\PSoC5/ADC.c **** 	          ((ADC_CFG1_REFERENCE != ADC_EXT_REF_ON_P03) && \
 175:.\Generated_Source\PSoC5/ADC.c **** 	         (ADC_CFG1_REFERENCE != ADC_EXT_REF_ON_P32)))
 176:.\Generated_Source\PSoC5/ADC.c **** 	        ADC_DSM_REF0_REG |= ADC_DSM_EN_BUF_VREF_INN;
 177:.\Generated_Source\PSoC5/ADC.c **** 	    #endif /* ADC_IR_VSSA_TO_2VREF */
 178:.\Generated_Source\PSoC5/ADC.c **** 	    
 179:.\Generated_Source\PSoC5/ADC.c **** 	        /* Wait for 3 microseconds */
 180:.\Generated_Source\PSoC5/ADC.c **** 	    CyDelayUs(3);
 202              		.loc 1 180 0
 203 00d8 4FF00300 		mov	r0, #3
 204 00dc FFF7FEFF 		bl	CyDelayUs
 181:.\Generated_Source\PSoC5/ADC.c ****         /* Enable the press circuit */
 182:.\Generated_Source\PSoC5/ADC.c **** 	    #if (CY_PSOC3 || CY_PSOC5LP)
 183:.\Generated_Source\PSoC5/ADC.c **** 	        ADC_RESET_CR4_REG &= ~ADC_IGNORE_PRESA1;
 205              		.loc 1 183 0
 206 00e0 44F2F863 		movw	r3, #:lower16:1073759992
 207 00e4 C4F20003 		movt	r3, #:upper16:1073759992
 208 00e8 44F2F862 		movw	r2, #:lower16:1073759992
 209 00ec C4F20002 		movt	r2, #:upper16:1073759992
 210 00f0 1278     		ldrb	r2, [r2, #0]
 211 00f2 D2B2     		uxtb	r2, r2
 212 00f4 02F0FD02 		and	r2, r2, #253
ARM GAS  C:\Users\Victor\AppData\Local\Temp\ccOsbm6Y.s 			page 8


 213 00f8 1A70     		strb	r2, [r3, #0]
 184:.\Generated_Source\PSoC5/ADC.c **** 	        ADC_RESET_CR5_REG &= ~ADC_IGNORE_PRESA2;
 214              		.loc 1 184 0
 215 00fa 44F2F963 		movw	r3, #:lower16:1073759993
 216 00fe C4F20003 		movt	r3, #:upper16:1073759993
 217 0102 44F2F962 		movw	r2, #:lower16:1073759993
 218 0106 C4F20002 		movt	r2, #:upper16:1073759993
 219 010a 1278     		ldrb	r2, [r2, #0]
 220 010c D2B2     		uxtb	r2, r2
 221 010e 02F0FD02 		and	r2, r2, #253
 222 0112 1A70     		strb	r2, [r3, #0]
 223              	.L4:
 185:.\Generated_Source\PSoC5/ADC.c **** 	    #elif (CY_PSOC5A)
 186:.\Generated_Source\PSoC5/ADC.c **** 	        ADC_RESET_CR1_REG &= ~ADC_DIS_PRES1;
 187:.\Generated_Source\PSoC5/ADC.c **** 	        ADC_RESET_CR3_REG &= ~ADC_DIS_PRES2;
 188:.\Generated_Source\PSoC5/ADC.c **** 	    #endif /* CY_PSOC5A */
 189:.\Generated_Source\PSoC5/ADC.c **** 	}
 190:.\Generated_Source\PSoC5/ADC.c ****     
 191:.\Generated_Source\PSoC5/ADC.c ****     /* Enable negative pumps for DSM  */
 192:.\Generated_Source\PSoC5/ADC.c ****     ADC_PUMP_CR1_REG  |= ( ADC_PUMP_CR1_CLKSEL | ADC_PUMP_CR1_FORCE );
 224              		.loc 1 192 0
 225 0114 45F67703 		movw	r3, #:lower16:1073764471
 226 0118 C4F20003 		movt	r3, #:upper16:1073764471
 227 011c 45F67702 		movw	r2, #:lower16:1073764471
 228 0120 C4F20002 		movt	r2, #:upper16:1073764471
 229 0124 1278     		ldrb	r2, [r2, #0]
 230 0126 D2B2     		uxtb	r2, r2
 231 0128 42F00602 		orr	r2, r2, #6
 232 012c D2B2     		uxtb	r2, r2
 233 012e 1A70     		strb	r2, [r3, #0]
 193:.\Generated_Source\PSoC5/ADC.c ****  
 194:.\Generated_Source\PSoC5/ADC.c ****     /* This is only valid if there is an internal clock */
 195:.\Generated_Source\PSoC5/ADC.c ****     #if(ADC_DEFAULT_INTERNAL_CLK)
 196:.\Generated_Source\PSoC5/ADC.c ****         ADC_PWRMGR_CLK_REG |= ADC_ACT_PWR_CLK_EN;        
 234              		.loc 1 196 0
 235 0130 44F2A133 		movw	r3, #:lower16:1073759137
 236 0134 C4F20003 		movt	r3, #:upper16:1073759137
 237 0138 44F2A132 		movw	r2, #:lower16:1073759137
 238 013c C4F20002 		movt	r2, #:upper16:1073759137
 239 0140 1278     		ldrb	r2, [r2, #0]
 240 0142 D2B2     		uxtb	r2, r2
 241 0144 42F00102 		orr	r2, r2, #1
 242 0148 D2B2     		uxtb	r2, r2
 243 014a 1A70     		strb	r2, [r3, #0]
 197:.\Generated_Source\PSoC5/ADC.c ****         ADC_STBY_PWRMGR_CLK_REG |= ADC_STBY_PWR_CLK_EN;
 244              		.loc 1 197 0
 245 014c 44F2B133 		movw	r3, #:lower16:1073759153
 246 0150 C4F20003 		movt	r3, #:upper16:1073759153
 247 0154 44F2B132 		movw	r2, #:lower16:1073759153
 248 0158 C4F20002 		movt	r2, #:upper16:1073759153
 249 015c 1278     		ldrb	r2, [r2, #0]
 250 015e D2B2     		uxtb	r2, r2
 251 0160 42F00102 		orr	r2, r2, #1
 252 0164 D2B2     		uxtb	r2, r2
 253 0166 1A70     		strb	r2, [r3, #0]
 198:.\Generated_Source\PSoC5/ADC.c ****     #endif /* ADC_DEFAULT_INTERNAL_CLK */
 199:.\Generated_Source\PSoC5/ADC.c ****     
ARM GAS  C:\Users\Victor\AppData\Local\Temp\ccOsbm6Y.s 			page 9


 200:.\Generated_Source\PSoC5/ADC.c ****     /* Enable the active and alternate active power for charge pump clock */
 201:.\Generated_Source\PSoC5/ADC.c ****     ADC_PWRMGR_CHARGE_PUMP_CLK_REG |= ADC_ACT_PWR_CHARGE_PUMP_CLK_EN;
 254              		.loc 1 201 0
 255 0168 44F2A233 		movw	r3, #:lower16:1073759138
 256 016c C4F20003 		movt	r3, #:upper16:1073759138
 257 0170 44F2A232 		movw	r2, #:lower16:1073759138
 258 0174 C4F20002 		movt	r2, #:upper16:1073759138
 259 0178 1278     		ldrb	r2, [r2, #0]
 260 017a D2B2     		uxtb	r2, r2
 261 017c 42F00102 		orr	r2, r2, #1
 262 0180 D2B2     		uxtb	r2, r2
 263 0182 1A70     		strb	r2, [r3, #0]
 202:.\Generated_Source\PSoC5/ADC.c ****     ADC_STBY_PWRMGR_CHARGE_PUMP_CLK_REG |= ADC_STBY_PWR_CHARGE_PUMP_CLK_EN;
 264              		.loc 1 202 0
 265 0184 44F2B233 		movw	r3, #:lower16:1073759154
 266 0188 C4F20003 		movt	r3, #:upper16:1073759154
 267 018c 44F2B232 		movw	r2, #:lower16:1073759154
 268 0190 C4F20002 		movt	r2, #:upper16:1073759154
 269 0194 1278     		ldrb	r2, [r2, #0]
 270 0196 D2B2     		uxtb	r2, r2
 271 0198 42F00102 		orr	r2, r2, #1
 272 019c D2B2     		uxtb	r2, r2
 273 019e 1A70     		strb	r2, [r3, #0]
 203:.\Generated_Source\PSoC5/ADC.c ****         
 204:.\Generated_Source\PSoC5/ADC.c **** }
 274              		.loc 1 204 0
 275 01a0 80BD     		pop	{r7, pc}
 276              		.cfi_endproc
 277              	.LFE1:
 278              		.size	ADC_Enable, .-ADC_Enable
 279 01a2 00BF     		.section	.text.ADC_Start,"ax",%progbits
 280              		.align	2
 281              		.global	ADC_Start
 282              		.thumb
 283              		.thumb_func
 284              		.type	ADC_Start, %function
 285              	ADC_Start:
 286              	.LFB2:
 205:.\Generated_Source\PSoC5/ADC.c **** 
 206:.\Generated_Source\PSoC5/ADC.c **** 
 207:.\Generated_Source\PSoC5/ADC.c **** #if (CY_PSOC5A) /* valid only for PSoC5A silicon */
 208:.\Generated_Source\PSoC5/ADC.c ****     /******************************************************************************* 
 209:.\Generated_Source\PSoC5/ADC.c ****     * Function Name: ADC_RestorePowerRegisters
 210:.\Generated_Source\PSoC5/ADC.c ****     ********************************************************************************
 211:.\Generated_Source\PSoC5/ADC.c ****     *
 212:.\Generated_Source\PSoC5/ADC.c ****     * Summary: 
 213:.\Generated_Source\PSoC5/ADC.c ****     *  Restores the power registers on calling Start() API. This API is only 
 214:.\Generated_Source\PSoC5/ADC.c ****     *   for internal use and valid only for PSoC5A.
 215:.\Generated_Source\PSoC5/ADC.c ****     *  
 216:.\Generated_Source\PSoC5/ADC.c ****     *
 217:.\Generated_Source\PSoC5/ADC.c ****     * Parameters:  
 218:.\Generated_Source\PSoC5/ADC.c ****     *  void
 219:.\Generated_Source\PSoC5/ADC.c ****     *
 220:.\Generated_Source\PSoC5/ADC.c ****     * Return: 
 221:.\Generated_Source\PSoC5/ADC.c ****     *  void 
 222:.\Generated_Source\PSoC5/ADC.c ****     *
 223:.\Generated_Source\PSoC5/ADC.c ****     ***************************************************************************/
ARM GAS  C:\Users\Victor\AppData\Local\Temp\ccOsbm6Y.s 			page 10


 224:.\Generated_Source\PSoC5/ADC.c ****     void ADC_RestorePowerRegisters(void) 
 225:.\Generated_Source\PSoC5/ADC.c ****     {
 226:.\Generated_Source\PSoC5/ADC.c ****         ADC_DSM_CR14_REG = ADC_powerModeBackup.DSM_CR_14;
 227:.\Generated_Source\PSoC5/ADC.c ****         ADC_DSM_CR15_REG = ADC_powerModeBackup.DSM_CR_15;
 228:.\Generated_Source\PSoC5/ADC.c ****         ADC_DSM_CR16_REG = ADC_powerModeBackup.DSM_CR_16;
 229:.\Generated_Source\PSoC5/ADC.c ****         ADC_DSM_CR17_REG = ADC_powerModeBackup.DSM_CR_17;
 230:.\Generated_Source\PSoC5/ADC.c ****         ADC_DSM_REF0_REG = ADC_powerModeBackup.DSM_REF0;
 231:.\Generated_Source\PSoC5/ADC.c ****         ADC_DSM_BUF0_REG = ADC_powerModeBackup.DSM_BUF0;
 232:.\Generated_Source\PSoC5/ADC.c ****         ADC_DSM_BUF1_REG = ADC_powerModeBackup.DSM_BUF1;
 233:.\Generated_Source\PSoC5/ADC.c ****         ADC_DSM_CLK_REG = ADC_powerModeBackup.DSM_CLK;
 234:.\Generated_Source\PSoC5/ADC.c ****     }
 235:.\Generated_Source\PSoC5/ADC.c **** 
 236:.\Generated_Source\PSoC5/ADC.c **** 
 237:.\Generated_Source\PSoC5/ADC.c ****     /************************************************************************** 
 238:.\Generated_Source\PSoC5/ADC.c ****     * Function Name: ADC_SavePowerRegisters
 239:.\Generated_Source\PSoC5/ADC.c ****     ***************************************************************************
 240:.\Generated_Source\PSoC5/ADC.c ****     *
 241:.\Generated_Source\PSoC5/ADC.c ****     * Summary: 
 242:.\Generated_Source\PSoC5/ADC.c ****     *  Save the power registers before stopping the block operation. This is 
 243:.\Generated_Source\PSoC5/ADC.c ****     *  called by Stop() API. This API is only for internal use and valid only 
 244:.\Generated_Source\PSoC5/ADC.c ****     *  for PSoC5A.
 245:.\Generated_Source\PSoC5/ADC.c ****     *  
 246:.\Generated_Source\PSoC5/ADC.c ****     *
 247:.\Generated_Source\PSoC5/ADC.c ****     * Parameters:  
 248:.\Generated_Source\PSoC5/ADC.c ****     *  void
 249:.\Generated_Source\PSoC5/ADC.c ****     *
 250:.\Generated_Source\PSoC5/ADC.c ****     * Return: 
 251:.\Generated_Source\PSoC5/ADC.c ****     *  void 
 252:.\Generated_Source\PSoC5/ADC.c ****     *
 253:.\Generated_Source\PSoC5/ADC.c ****     **************************************************************************/
 254:.\Generated_Source\PSoC5/ADC.c ****     void ADC_SavePowerRegisters(void) 
 255:.\Generated_Source\PSoC5/ADC.c ****     {
 256:.\Generated_Source\PSoC5/ADC.c ****         ADC_powerModeBackup.DSM_CR_14 = ADC_DSM_CR14_REG;
 257:.\Generated_Source\PSoC5/ADC.c ****         ADC_powerModeBackup.DSM_CR_15 = ADC_DSM_CR15_REG;
 258:.\Generated_Source\PSoC5/ADC.c ****         ADC_powerModeBackup.DSM_CR_16 = ADC_DSM_CR16_REG;
 259:.\Generated_Source\PSoC5/ADC.c ****         ADC_powerModeBackup.DSM_CR_17 = ADC_DSM_CR17_REG;
 260:.\Generated_Source\PSoC5/ADC.c ****         ADC_powerModeBackup.DSM_REF0 = ADC_DSM_REF0_REG;
 261:.\Generated_Source\PSoC5/ADC.c ****         ADC_powerModeBackup.DSM_BUF0 = ADC_DSM_BUF0_REG;
 262:.\Generated_Source\PSoC5/ADC.c ****         ADC_powerModeBackup.DSM_BUF1 = ADC_DSM_BUF1_REG;
 263:.\Generated_Source\PSoC5/ADC.c ****         ADC_powerModeBackup.DSM_CLK = ADC_DSM_CLK_REG;
 264:.\Generated_Source\PSoC5/ADC.c ****     }
 265:.\Generated_Source\PSoC5/ADC.c **** 
 266:.\Generated_Source\PSoC5/ADC.c **** 
 267:.\Generated_Source\PSoC5/ADC.c ****     /************************************************************************* 
 268:.\Generated_Source\PSoC5/ADC.c ****     * Function Name: ADC_SetLowPower
 269:.\Generated_Source\PSoC5/ADC.c ****     ***************************************************************************
 270:.\Generated_Source\PSoC5/ADC.c ****     *
 271:.\Generated_Source\PSoC5/ADC.c ****     * Summary: 
 272:.\Generated_Source\PSoC5/ADC.c ****     *  Set all the power registers of DSM block to low power mode. This API is
 273:.\Generated_Source\PSoC5/ADC.c ****     *   called by Stop() API. This API is only for internal use and valid for 
 274:.\Generated_Source\PSoC5/ADC.c ****     *   only PSoC5A.
 275:.\Generated_Source\PSoC5/ADC.c ****     *  
 276:.\Generated_Source\PSoC5/ADC.c ****     *
 277:.\Generated_Source\PSoC5/ADC.c ****     * Parameters:  
 278:.\Generated_Source\PSoC5/ADC.c ****     *  void
 279:.\Generated_Source\PSoC5/ADC.c ****     *
 280:.\Generated_Source\PSoC5/ADC.c ****     * Return: 
ARM GAS  C:\Users\Victor\AppData\Local\Temp\ccOsbm6Y.s 			page 11


 281:.\Generated_Source\PSoC5/ADC.c ****     *  void 
 282:.\Generated_Source\PSoC5/ADC.c ****     *
 283:.\Generated_Source\PSoC5/ADC.c ****     ***************************************************************************/
 284:.\Generated_Source\PSoC5/ADC.c ****     void ADC_SetLowPower(void) 
 285:.\Generated_Source\PSoC5/ADC.c ****     {
 286:.\Generated_Source\PSoC5/ADC.c ****         ADC_DSM_CR14_REG &= ~ADC_DSM_POWER1_MASK;
 287:.\Generated_Source\PSoC5/ADC.c ****         ADC_DSM_CR14_REG |= ADC_DSM_POWER1_44UA;
 288:.\Generated_Source\PSoC5/ADC.c ****         
 289:.\Generated_Source\PSoC5/ADC.c ****         ADC_DSM_CR15_REG &= ~(ADC_DSM_POWER2_3_MASK | ADC_DSM_POWER_COMP_MASK);
 290:.\Generated_Source\PSoC5/ADC.c ****         ADC_DSM_CR15_REG |= (ADC_DSM_POWER2_3_LOW | ADC_DSM_POWER_VERYLOW);
 291:.\Generated_Source\PSoC5/ADC.c ****         
 292:.\Generated_Source\PSoC5/ADC.c ****         ADC_DSM_CR16_REG &= ~(ADC_DSM_CP_PWRCTL_MASK | ADC_DSM_POWER_SUM_MASK |
 293:.\Generated_Source\PSoC5/ADC.c ****                                            ADC_DSM_CP_ENABLE);
 294:.\Generated_Source\PSoC5/ADC.c ****         ADC_DSM_CR16_REG |= (ADC_DSM_POWER_SUM_LOW | ADC_DSM_CP_PWRCTL_LOW);
 295:.\Generated_Source\PSoC5/ADC.c ****         
 296:.\Generated_Source\PSoC5/ADC.c ****         ADC_DSM_CR17_REG &= ~(ADC_DSM_EN_BUF_VREF | ADC_DSM_PWR_CTRL_VCM_MASK |
 297:.\Generated_Source\PSoC5/ADC.c ****                                            ADC_DSM_PWR_CTRL_VREF_MASK | ADC_DSM_EN_BUF_VCM |
 298:.\Generated_Source\PSoC5/ADC.c ****                                            ADC_DSM_PWR_CTRL_VREF_INN_MASK);
 299:.\Generated_Source\PSoC5/ADC.c ****         ADC_DSM_CR17_REG |= (ADC_DSM_PWR_CTRL_VREF_0 | ADC_DSM_PWR_CTRL_VCM_0 |
 300:.\Generated_Source\PSoC5/ADC.c ****                                            ADC_DSM_PWR_CTRL_VREF_INN_0);
 301:.\Generated_Source\PSoC5/ADC.c ****         
 302:.\Generated_Source\PSoC5/ADC.c ****         /* Disable reference buffers */
 303:.\Generated_Source\PSoC5/ADC.c ****         ADC_DSM_REF0_REG &= ~(ADC_DSM_EN_BUF_VREF_INN | ADC_DSM_VREF_RES_DIV_EN |
 304:.\Generated_Source\PSoC5/ADC.c ****                                            ADC_DSM_VCM_RES_DIV_EN);
 305:.\Generated_Source\PSoC5/ADC.c ****             
 306:.\Generated_Source\PSoC5/ADC.c ****         /* Disable the positive input buffer */
 307:.\Generated_Source\PSoC5/ADC.c ****         ADC_DSM_BUF0_REG &= ~ADC_DSM_ENABLE_P;
 308:.\Generated_Source\PSoC5/ADC.c ****         /* Disable the negative input buffer */
 309:.\Generated_Source\PSoC5/ADC.c ****         ADC_DSM_BUF1_REG &= ~ADC_DSM_ENABLE_N;
 310:.\Generated_Source\PSoC5/ADC.c ****         /* Disable the clock to DSM */
 311:.\Generated_Source\PSoC5/ADC.c ****         ADC_DSM_CLK_REG &= ~(ADC_DSM_CLK_CLK_EN | ADC_DSM_CLK_BYPASS_SYNC);
 312:.\Generated_Source\PSoC5/ADC.c ****     }
 313:.\Generated_Source\PSoC5/ADC.c **** #endif /* CY_PSOC5A */
 314:.\Generated_Source\PSoC5/ADC.c **** 
 315:.\Generated_Source\PSoC5/ADC.c **** 
 316:.\Generated_Source\PSoC5/ADC.c **** /******************************************************************************* 
 317:.\Generated_Source\PSoC5/ADC.c **** * Function Name: ADC_Start
 318:.\Generated_Source\PSoC5/ADC.c **** ********************************************************************************
 319:.\Generated_Source\PSoC5/ADC.c **** *
 320:.\Generated_Source\PSoC5/ADC.c **** * Summary:
 321:.\Generated_Source\PSoC5/ADC.c **** *  The start function initializes the Delta Sigma Modulator with the default  
 322:.\Generated_Source\PSoC5/ADC.c **** *  values, and sets the power to the given level.  A power level of 0, is the 
 323:.\Generated_Source\PSoC5/ADC.c **** *  same as executing the stop function.
 324:.\Generated_Source\PSoC5/ADC.c **** *
 325:.\Generated_Source\PSoC5/ADC.c **** * Parameters:  
 326:.\Generated_Source\PSoC5/ADC.c **** *  None
 327:.\Generated_Source\PSoC5/ADC.c **** *
 328:.\Generated_Source\PSoC5/ADC.c **** * Return: 
 329:.\Generated_Source\PSoC5/ADC.c **** *  void 
 330:.\Generated_Source\PSoC5/ADC.c **** *
 331:.\Generated_Source\PSoC5/ADC.c **** * Global variables:
 332:.\Generated_Source\PSoC5/ADC.c **** *  ADC_initVar:  Used to check the initial configuration,
 333:.\Generated_Source\PSoC5/ADC.c **** *  modified when this function is called for the first time.
 334:.\Generated_Source\PSoC5/ADC.c **** *
 335:.\Generated_Source\PSoC5/ADC.c **** *******************************************************************************/
 336:.\Generated_Source\PSoC5/ADC.c **** void ADC_Start() 
 337:.\Generated_Source\PSoC5/ADC.c **** {
ARM GAS  C:\Users\Victor\AppData\Local\Temp\ccOsbm6Y.s 			page 12


 287              		.loc 1 337 0
 288              		.cfi_startproc
 289              		@ args = 0, pretend = 0, frame = 0
 290              		@ frame_needed = 1, uses_anonymous_args = 0
 291 0000 80B5     		push	{r7, lr}
 292              	.LCFI4:
 293              		.cfi_def_cfa_offset 8
 294 0002 00AF     		add	r7, sp, #0
 295              		.cfi_offset 14, -4
 296              		.cfi_offset 7, -8
 297              	.LCFI5:
 298              		.cfi_def_cfa_register 7
 338:.\Generated_Source\PSoC5/ADC.c ****     if(ADC_initVar == 0u)
 299              		.loc 1 338 0
 300 0004 40F20003 		movw	r3, #:lower16:ADC_initVar
 301 0008 C0F20003 		movt	r3, #:upper16:ADC_initVar
 302 000c 1B78     		ldrb	r3, [r3, #0]	@ zero_extendqisi2
 303 000e 002B     		cmp	r3, #0
 304 0010 10D1     		bne	.L7
 339:.\Generated_Source\PSoC5/ADC.c ****     {
 340:.\Generated_Source\PSoC5/ADC.c ****         if(!(ADC_started))
 305              		.loc 1 340 0
 306 0012 40F20003 		movw	r3, #:lower16:ADC_started
 307 0016 C0F20003 		movt	r3, #:upper16:ADC_started
 308 001a 1B78     		ldrb	r3, [r3, #0]
 309 001c DBB2     		uxtb	r3, r3
 310 001e 002B     		cmp	r3, #0
 311 0020 01D1     		bne	.L8
 341:.\Generated_Source\PSoC5/ADC.c ****         {
 342:.\Generated_Source\PSoC5/ADC.c ****             ADC_Init();
 312              		.loc 1 342 0
 313 0022 FFF7FEFF 		bl	ADC_Init
 314              	.L8:
 343:.\Generated_Source\PSoC5/ADC.c ****         }
 344:.\Generated_Source\PSoC5/ADC.c ****         ADC_initVar = 1u;
 315              		.loc 1 344 0
 316 0026 40F20003 		movw	r3, #:lower16:ADC_initVar
 317 002a C0F20003 		movt	r3, #:upper16:ADC_initVar
 318 002e 4FF00102 		mov	r2, #1
 319 0032 1A70     		strb	r2, [r3, #0]
 320              	.L7:
 345:.\Generated_Source\PSoC5/ADC.c ****     }
 346:.\Generated_Source\PSoC5/ADC.c **** 
 347:.\Generated_Source\PSoC5/ADC.c ****     /* Enable the ADC */
 348:.\Generated_Source\PSoC5/ADC.c ****     ADC_Enable();
 321              		.loc 1 348 0
 322 0034 FFF7FEFF 		bl	ADC_Enable
 349:.\Generated_Source\PSoC5/ADC.c **** }
 323              		.loc 1 349 0
 324 0038 80BD     		pop	{r7, pc}
 325              		.cfi_endproc
 326              	.LFE2:
 327              		.size	ADC_Start, .-ADC_Start
 328 003a 00BF     		.section	.text.ADC_Stop,"ax",%progbits
 329              		.align	2
 330              		.global	ADC_Stop
 331              		.thumb
ARM GAS  C:\Users\Victor\AppData\Local\Temp\ccOsbm6Y.s 			page 13


 332              		.thumb_func
 333              		.type	ADC_Stop, %function
 334              	ADC_Stop:
 335              	.LFB3:
 350:.\Generated_Source\PSoC5/ADC.c **** 
 351:.\Generated_Source\PSoC5/ADC.c **** 
 352:.\Generated_Source\PSoC5/ADC.c **** /*******************************************************************************
 353:.\Generated_Source\PSoC5/ADC.c **** * Function Name: ADC_Stop
 354:.\Generated_Source\PSoC5/ADC.c **** ********************************************************************************
 355:.\Generated_Source\PSoC5/ADC.c **** *
 356:.\Generated_Source\PSoC5/ADC.c **** * Summary:
 357:.\Generated_Source\PSoC5/ADC.c **** *  Stops and powers down ADC to lowest power state.
 358:.\Generated_Source\PSoC5/ADC.c **** *
 359:.\Generated_Source\PSoC5/ADC.c **** * Parameters:  
 360:.\Generated_Source\PSoC5/ADC.c **** *  void
 361:.\Generated_Source\PSoC5/ADC.c **** *
 362:.\Generated_Source\PSoC5/ADC.c **** * Return: 
 363:.\Generated_Source\PSoC5/ADC.c **** *  void 
 364:.\Generated_Source\PSoC5/ADC.c **** *
 365:.\Generated_Source\PSoC5/ADC.c **** *******************************************************************************/
 366:.\Generated_Source\PSoC5/ADC.c **** void ADC_Stop(void) 
 367:.\Generated_Source\PSoC5/ADC.c **** {
 336              		.loc 1 367 0
 337              		.cfi_startproc
 338              		@ args = 0, pretend = 0, frame = 0
 339              		@ frame_needed = 1, uses_anonymous_args = 0
 340 0000 80B5     		push	{r7, lr}
 341              	.LCFI6:
 342              		.cfi_def_cfa_offset 8
 343 0002 00AF     		add	r7, sp, #0
 344              		.cfi_offset 14, -4
 345              		.cfi_offset 7, -8
 346              	.LCFI7:
 347              		.cfi_def_cfa_register 7
 368:.\Generated_Source\PSoC5/ADC.c ****     /* Stop conversions */
 369:.\Generated_Source\PSoC5/ADC.c ****     ADC_DEC_CR_REG &= ~ADC_DEC_START_CONV;
 348              		.loc 1 369 0
 349 0004 44F60063 		movw	r3, #:lower16:1073761792
 350 0008 C4F20003 		movt	r3, #:upper16:1073761792
 351 000c 44F60062 		movw	r2, #:lower16:1073761792
 352 0010 C4F20002 		movt	r2, #:upper16:1073761792
 353 0014 1278     		ldrb	r2, [r2, #0]
 354 0016 D2B2     		uxtb	r2, r2
 355 0018 02F0FE02 		and	r2, r2, #254
 356 001c 1A70     		strb	r2, [r3, #0]
 370:.\Generated_Source\PSoC5/ADC.c ****     ADC_DEC_SR_REG |=  ADC_DEC_INTR_CLEAR;
 357              		.loc 1 370 0
 358 001e 44F60163 		movw	r3, #:lower16:1073761793
 359 0022 C4F20003 		movt	r3, #:upper16:1073761793
 360 0026 44F60162 		movw	r2, #:lower16:1073761793
 361 002a C4F20002 		movt	r2, #:upper16:1073761793
 362 002e 1278     		ldrb	r2, [r2, #0]
 363 0030 D2B2     		uxtb	r2, r2
 364 0032 42F00402 		orr	r2, r2, #4
 365 0036 D2B2     		uxtb	r2, r2
 366 0038 1A70     		strb	r2, [r3, #0]
 371:.\Generated_Source\PSoC5/ADC.c ****     
ARM GAS  C:\Users\Victor\AppData\Local\Temp\ccOsbm6Y.s 			page 14


 372:.\Generated_Source\PSoC5/ADC.c ****     /* Disable PRES, Disable power to VCMBUF0, REFBUF0 and REFBUF1, 
 373:.\Generated_Source\PSoC5/ADC.c ****        enable PRES */
 374:.\Generated_Source\PSoC5/ADC.c ****     #if (CY_PSOC3 || CY_PSOC5LP)
 375:.\Generated_Source\PSoC5/ADC.c ****         ADC_RESET_CR4_REG |= ADC_IGNORE_PRESA1;
 367              		.loc 1 375 0
 368 003a 44F2F863 		movw	r3, #:lower16:1073759992
 369 003e C4F20003 		movt	r3, #:upper16:1073759992
 370 0042 44F2F862 		movw	r2, #:lower16:1073759992
 371 0046 C4F20002 		movt	r2, #:upper16:1073759992
 372 004a 1278     		ldrb	r2, [r2, #0]
 373 004c D2B2     		uxtb	r2, r2
 374 004e 42F00202 		orr	r2, r2, #2
 375 0052 D2B2     		uxtb	r2, r2
 376 0054 1A70     		strb	r2, [r3, #0]
 376:.\Generated_Source\PSoC5/ADC.c ****         ADC_RESET_CR5_REG |= ADC_IGNORE_PRESA2;
 377              		.loc 1 376 0
 378 0056 44F2F963 		movw	r3, #:lower16:1073759993
 379 005a C4F20003 		movt	r3, #:upper16:1073759993
 380 005e 44F2F962 		movw	r2, #:lower16:1073759993
 381 0062 C4F20002 		movt	r2, #:upper16:1073759993
 382 0066 1278     		ldrb	r2, [r2, #0]
 383 0068 D2B2     		uxtb	r2, r2
 384 006a 42F00202 		orr	r2, r2, #2
 385 006e D2B2     		uxtb	r2, r2
 386 0070 1A70     		strb	r2, [r3, #0]
 377:.\Generated_Source\PSoC5/ADC.c ****     #elif (CY_PSOC5A)
 378:.\Generated_Source\PSoC5/ADC.c ****         ADC_RESET_CR1_REG |= ADC_DIS_PRES1;
 379:.\Generated_Source\PSoC5/ADC.c ****         ADC_RESET_CR3_REG |= ADC_DIS_PRES2;
 380:.\Generated_Source\PSoC5/ADC.c ****     #endif /* CY_PSOC5A */
 381:.\Generated_Source\PSoC5/ADC.c ****     
 382:.\Generated_Source\PSoC5/ADC.c ****     ADC_DSM_CR17_REG &= ~(ADC_DSM_EN_BUF_VREF | ADC_DSM_EN_BUF_VCM);
 387              		.loc 1 382 0
 388 0072 45F69103 		movw	r3, #:lower16:1073764497
 389 0076 C4F20003 		movt	r3, #:upper16:1073764497
 390 007a 45F69102 		movw	r2, #:lower16:1073764497
 391 007e C4F20002 		movt	r2, #:upper16:1073764497
 392 0082 1278     		ldrb	r2, [r2, #0]
 393 0084 D2B2     		uxtb	r2, r2
 394 0086 02F0FC02 		and	r2, r2, #252
 395 008a 1A70     		strb	r2, [r3, #0]
 383:.\Generated_Source\PSoC5/ADC.c ****     ADC_DSM_REF0_REG &= ~ADC_DSM_EN_BUF_VREF_INN;
 396              		.loc 1 383 0
 397 008c 45F69203 		movw	r3, #:lower16:1073764498
 398 0090 C4F20003 		movt	r3, #:upper16:1073764498
 399 0094 45F69202 		movw	r2, #:lower16:1073764498
 400 0098 C4F20002 		movt	r2, #:upper16:1073764498
 401 009c 1278     		ldrb	r2, [r2, #0]
 402 009e D2B2     		uxtb	r2, r2
 403 00a0 02F0F702 		and	r2, r2, #247
 404 00a4 1A70     		strb	r2, [r3, #0]
 384:.\Generated_Source\PSoC5/ADC.c ****     
 385:.\Generated_Source\PSoC5/ADC.c ****     /* Wait for 3 microseconds. */
 386:.\Generated_Source\PSoC5/ADC.c ****     CyDelayUs(3);
 405              		.loc 1 386 0
 406 00a6 4FF00300 		mov	r0, #3
 407 00aa FFF7FEFF 		bl	CyDelayUs
 387:.\Generated_Source\PSoC5/ADC.c ****     
ARM GAS  C:\Users\Victor\AppData\Local\Temp\ccOsbm6Y.s 			page 15


 388:.\Generated_Source\PSoC5/ADC.c **** 	/* Enable the press circuit */
 389:.\Generated_Source\PSoC5/ADC.c ****     #if (CY_PSOC3 || CY_PSOC5LP)
 390:.\Generated_Source\PSoC5/ADC.c ****         ADC_RESET_CR4_REG &= ~ADC_IGNORE_PRESA1;
 408              		.loc 1 390 0
 409 00ae 44F2F863 		movw	r3, #:lower16:1073759992
 410 00b2 C4F20003 		movt	r3, #:upper16:1073759992
 411 00b6 44F2F862 		movw	r2, #:lower16:1073759992
 412 00ba C4F20002 		movt	r2, #:upper16:1073759992
 413 00be 1278     		ldrb	r2, [r2, #0]
 414 00c0 D2B2     		uxtb	r2, r2
 415 00c2 02F0FD02 		and	r2, r2, #253
 416 00c6 1A70     		strb	r2, [r3, #0]
 391:.\Generated_Source\PSoC5/ADC.c ****         ADC_RESET_CR5_REG &= ~ADC_IGNORE_PRESA2;
 417              		.loc 1 391 0
 418 00c8 44F2F963 		movw	r3, #:lower16:1073759993
 419 00cc C4F20003 		movt	r3, #:upper16:1073759993
 420 00d0 44F2F962 		movw	r2, #:lower16:1073759993
 421 00d4 C4F20002 		movt	r2, #:upper16:1073759993
 422 00d8 1278     		ldrb	r2, [r2, #0]
 423 00da D2B2     		uxtb	r2, r2
 424 00dc 02F0FD02 		and	r2, r2, #253
 425 00e0 1A70     		strb	r2, [r3, #0]
 392:.\Generated_Source\PSoC5/ADC.c ****     #elif (CY_PSOC5A)
 393:.\Generated_Source\PSoC5/ADC.c ****         ADC_RESET_CR1_REG &= ~ADC_DIS_PRES1;
 394:.\Generated_Source\PSoC5/ADC.c ****         ADC_RESET_CR3_REG &= ~ADC_DIS_PRES2;
 395:.\Generated_Source\PSoC5/ADC.c ****     #endif /* CY_PSOC5A */
 396:.\Generated_Source\PSoC5/ADC.c ****     
 397:.\Generated_Source\PSoC5/ADC.c ****     /* If PSoC5A then don't disable the power instead put the block to  
 398:.\Generated_Source\PSoC5/ADC.c ****        low power mode. Also, save current state of all the power configuration 
 399:.\Generated_Source\PSoC5/ADC.c ****        registers before putting block to low power mode */
 400:.\Generated_Source\PSoC5/ADC.c ****     #if (CY_PSOC5A)
 401:.\Generated_Source\PSoC5/ADC.c ****         
 402:.\Generated_Source\PSoC5/ADC.c ****         /* set the flag */
 403:.\Generated_Source\PSoC5/ADC.c ****         ADC_restoreReg = 1u;
 404:.\Generated_Source\PSoC5/ADC.c ****         
 405:.\Generated_Source\PSoC5/ADC.c ****         ADC_SavePowerRegisters();
 406:.\Generated_Source\PSoC5/ADC.c ****         ADC_SetLowPower();
 407:.\Generated_Source\PSoC5/ADC.c ****     #else    
 408:.\Generated_Source\PSoC5/ADC.c ****         /* Disable power to the ADC */
 409:.\Generated_Source\PSoC5/ADC.c ****         ADC_PWRMGR_DSM_REG &= ~ADC_ACT_PWR_DSM_EN;
 426              		.loc 1 409 0
 427 00e2 44F2AA33 		movw	r3, #:lower16:1073759146
 428 00e6 C4F20003 		movt	r3, #:upper16:1073759146
 429 00ea 44F2AA32 		movw	r2, #:lower16:1073759146
 430 00ee C4F20002 		movt	r2, #:upper16:1073759146
 431 00f2 1278     		ldrb	r2, [r2, #0]
 432 00f4 D2B2     		uxtb	r2, r2
 433 00f6 02F0EF02 		and	r2, r2, #239
 434 00fa 1A70     		strb	r2, [r3, #0]
 410:.\Generated_Source\PSoC5/ADC.c ****     #endif /* CY_PSOC5A */
 411:.\Generated_Source\PSoC5/ADC.c ****     
 412:.\Generated_Source\PSoC5/ADC.c ****     /* Disable power to Decimator block */
 413:.\Generated_Source\PSoC5/ADC.c ****     ADC_PWRMGR_DEC_REG &= ~ADC_ACT_PWR_DEC_EN;
 435              		.loc 1 413 0
 436 00fc 44F2AA33 		movw	r3, #:lower16:1073759146
 437 0100 C4F20003 		movt	r3, #:upper16:1073759146
 438 0104 44F2AA32 		movw	r2, #:lower16:1073759146
ARM GAS  C:\Users\Victor\AppData\Local\Temp\ccOsbm6Y.s 			page 16


 439 0108 C4F20002 		movt	r2, #:upper16:1073759146
 440 010c 1278     		ldrb	r2, [r2, #0]
 441 010e D2B2     		uxtb	r2, r2
 442 0110 02F0FE02 		and	r2, r2, #254
 443 0114 1A70     		strb	r2, [r3, #0]
 414:.\Generated_Source\PSoC5/ADC.c ****     
 415:.\Generated_Source\PSoC5/ADC.c ****     /* Disable alternative active power to the ADC */
 416:.\Generated_Source\PSoC5/ADC.c ****     ADC_STBY_PWRMGR_DEC_REG &= ~ADC_STBY_PWR_DEC_EN;
 444              		.loc 1 416 0
 445 0116 44F2BA33 		movw	r3, #:lower16:1073759162
 446 011a C4F20003 		movt	r3, #:upper16:1073759162
 447 011e 44F2BA32 		movw	r2, #:lower16:1073759162
 448 0122 C4F20002 		movt	r2, #:upper16:1073759162
 449 0126 1278     		ldrb	r2, [r2, #0]
 450 0128 D2B2     		uxtb	r2, r2
 451 012a 02F0FE02 		and	r2, r2, #254
 452 012e 1A70     		strb	r2, [r3, #0]
 417:.\Generated_Source\PSoC5/ADC.c ****     #if (CY_PSOC3 || CY_PSOC5LP)
 418:.\Generated_Source\PSoC5/ADC.c ****     ADC_STBY_PWRMGR_DSM_REG &= ~ADC_STBY_PWR_DSM_EN;
 453              		.loc 1 418 0
 454 0130 44F2BA33 		movw	r3, #:lower16:1073759162
 455 0134 C4F20003 		movt	r3, #:upper16:1073759162
 456 0138 44F2BA32 		movw	r2, #:lower16:1073759162
 457 013c C4F20002 		movt	r2, #:upper16:1073759162
 458 0140 1278     		ldrb	r2, [r2, #0]
 459 0142 D2B2     		uxtb	r2, r2
 460 0144 02F0EF02 		and	r2, r2, #239
 461 0148 1A70     		strb	r2, [r3, #0]
 419:.\Generated_Source\PSoC5/ADC.c ****     #endif /* CY_PSOC3 || CY_PSOC5LP */
 420:.\Generated_Source\PSoC5/ADC.c **** 
 421:.\Generated_Source\PSoC5/ADC.c ****    /* Disable negative pumps for DSM  */
 422:.\Generated_Source\PSoC5/ADC.c ****     ADC_PUMP_CR1_REG &= ~(ADC_PUMP_CR1_CLKSEL | ADC_PUMP_CR1_FORCE );
 462              		.loc 1 422 0
 463 014a 45F67703 		movw	r3, #:lower16:1073764471
 464 014e C4F20003 		movt	r3, #:upper16:1073764471
 465 0152 45F67702 		movw	r2, #:lower16:1073764471
 466 0156 C4F20002 		movt	r2, #:upper16:1073764471
 467 015a 1278     		ldrb	r2, [r2, #0]
 468 015c D2B2     		uxtb	r2, r2
 469 015e 02F0F902 		and	r2, r2, #249
 470 0162 1A70     		strb	r2, [r3, #0]
 423:.\Generated_Source\PSoC5/ADC.c ****     
 424:.\Generated_Source\PSoC5/ADC.c ****     /* This is only valid if there is an internal clock */
 425:.\Generated_Source\PSoC5/ADC.c ****     #if(ADC_DEFAULT_INTERNAL_CLK)
 426:.\Generated_Source\PSoC5/ADC.c ****         ADC_PWRMGR_CLK_REG &= ~ADC_ACT_PWR_CLK_EN;
 471              		.loc 1 426 0
 472 0164 44F2A133 		movw	r3, #:lower16:1073759137
 473 0168 C4F20003 		movt	r3, #:upper16:1073759137
 474 016c 44F2A132 		movw	r2, #:lower16:1073759137
 475 0170 C4F20002 		movt	r2, #:upper16:1073759137
 476 0174 1278     		ldrb	r2, [r2, #0]
 477 0176 D2B2     		uxtb	r2, r2
 478 0178 02F0FE02 		and	r2, r2, #254
 479 017c 1A70     		strb	r2, [r3, #0]
 427:.\Generated_Source\PSoC5/ADC.c ****         ADC_STBY_PWRMGR_CLK_REG &= ~ADC_STBY_PWR_CLK_EN;
 480              		.loc 1 427 0
 481 017e 44F2B133 		movw	r3, #:lower16:1073759153
ARM GAS  C:\Users\Victor\AppData\Local\Temp\ccOsbm6Y.s 			page 17


 482 0182 C4F20003 		movt	r3, #:upper16:1073759153
 483 0186 44F2B132 		movw	r2, #:lower16:1073759153
 484 018a C4F20002 		movt	r2, #:upper16:1073759153
 485 018e 1278     		ldrb	r2, [r2, #0]
 486 0190 D2B2     		uxtb	r2, r2
 487 0192 02F0FE02 		and	r2, r2, #254
 488 0196 1A70     		strb	r2, [r3, #0]
 428:.\Generated_Source\PSoC5/ADC.c ****     #endif /* ADC_DEFAULT_INTERNAL_CLK */
 429:.\Generated_Source\PSoC5/ADC.c ****     
 430:.\Generated_Source\PSoC5/ADC.c ****     /* Disable power to charge pump clock */
 431:.\Generated_Source\PSoC5/ADC.c ****     ADC_PWRMGR_CHARGE_PUMP_CLK_REG &= ~ADC_ACT_PWR_CHARGE_PUMP_CLK_EN;
 489              		.loc 1 431 0
 490 0198 44F2A233 		movw	r3, #:lower16:1073759138
 491 019c C4F20003 		movt	r3, #:upper16:1073759138
 492 01a0 44F2A232 		movw	r2, #:lower16:1073759138
 493 01a4 C4F20002 		movt	r2, #:upper16:1073759138
 494 01a8 1278     		ldrb	r2, [r2, #0]
 495 01aa D2B2     		uxtb	r2, r2
 496 01ac 02F0FE02 		and	r2, r2, #254
 497 01b0 1A70     		strb	r2, [r3, #0]
 432:.\Generated_Source\PSoC5/ADC.c ****     ADC_STBY_PWRMGR_CHARGE_PUMP_CLK_REG &= ~ADC_STBY_PWR_CHARGE_PUMP_CLK_EN;
 498              		.loc 1 432 0
 499 01b2 44F2B233 		movw	r3, #:lower16:1073759154
 500 01b6 C4F20003 		movt	r3, #:upper16:1073759154
 501 01ba 44F2B232 		movw	r2, #:lower16:1073759154
 502 01be C4F20002 		movt	r2, #:upper16:1073759154
 503 01c2 1278     		ldrb	r2, [r2, #0]
 504 01c4 D2B2     		uxtb	r2, r2
 505 01c6 02F0FE02 		and	r2, r2, #254
 506 01ca 1A70     		strb	r2, [r3, #0]
 433:.\Generated_Source\PSoC5/ADC.c **** }
 507              		.loc 1 433 0
 508 01cc 80BD     		pop	{r7, pc}
 509              		.cfi_endproc
 510              	.LFE3:
 511              		.size	ADC_Stop, .-ADC_Stop
 512 01ce 00BF     		.section	.text.ADC_SetBufferGain,"ax",%progbits
 513              		.align	2
 514              		.global	ADC_SetBufferGain
 515              		.thumb
 516              		.thumb_func
 517              		.type	ADC_SetBufferGain, %function
 518              	ADC_SetBufferGain:
 519              	.LFB4:
 434:.\Generated_Source\PSoC5/ADC.c **** 
 435:.\Generated_Source\PSoC5/ADC.c **** 
 436:.\Generated_Source\PSoC5/ADC.c **** /*******************************************************************************
 437:.\Generated_Source\PSoC5/ADC.c **** * Function Name: ADC_SetBufferGain
 438:.\Generated_Source\PSoC5/ADC.c **** ********************************************************************************
 439:.\Generated_Source\PSoC5/ADC.c **** *
 440:.\Generated_Source\PSoC5/ADC.c **** * Summary:
 441:.\Generated_Source\PSoC5/ADC.c **** *  Set input buffer range.
 442:.\Generated_Source\PSoC5/ADC.c **** *
 443:.\Generated_Source\PSoC5/ADC.c **** * Parameters:  
 444:.\Generated_Source\PSoC5/ADC.c **** *  gain:  Two bit value to select a gain of 1, 2, 4, or 8.
 445:.\Generated_Source\PSoC5/ADC.c **** *
 446:.\Generated_Source\PSoC5/ADC.c **** * Return: 
ARM GAS  C:\Users\Victor\AppData\Local\Temp\ccOsbm6Y.s 			page 18


 447:.\Generated_Source\PSoC5/ADC.c **** *  void
 448:.\Generated_Source\PSoC5/ADC.c **** *
 449:.\Generated_Source\PSoC5/ADC.c **** *******************************************************************************/
 450:.\Generated_Source\PSoC5/ADC.c **** void ADC_SetBufferGain(uint8 gain) 
 451:.\Generated_Source\PSoC5/ADC.c **** {
 520              		.loc 1 451 0
 521              		.cfi_startproc
 522              		@ args = 0, pretend = 0, frame = 16
 523              		@ frame_needed = 1, uses_anonymous_args = 0
 524              		@ link register save eliminated.
 525 0000 80B4     		push	{r7}
 526              	.LCFI8:
 527              		.cfi_def_cfa_offset 4
 528 0002 85B0     		sub	sp, sp, #20
 529              	.LCFI9:
 530              		.cfi_def_cfa_offset 24
 531 0004 00AF     		add	r7, sp, #0
 532              		.cfi_offset 7, -4
 533              	.LCFI10:
 534              		.cfi_def_cfa_register 7
 535 0006 0346     		mov	r3, r0
 536 0008 FB71     		strb	r3, [r7, #7]
 452:.\Generated_Source\PSoC5/ADC.c ****     uint8 tmpReg;
 453:.\Generated_Source\PSoC5/ADC.c ****     tmpReg = ADC_DSM_BUF1_REG & ~ADC_DSM_GAIN_MASK;
 537              		.loc 1 453 0
 538 000a 45F69B03 		movw	r3, #:lower16:1073764507
 539 000e C4F20003 		movt	r3, #:upper16:1073764507
 540 0012 1B78     		ldrb	r3, [r3, #0]
 541 0014 DBB2     		uxtb	r3, r3
 542 0016 23F00C03 		bic	r3, r3, #12
 543 001a FB73     		strb	r3, [r7, #15]
 454:.\Generated_Source\PSoC5/ADC.c ****     tmpReg |= (gain << 2);
 544              		.loc 1 454 0
 545 001c FB79     		ldrb	r3, [r7, #7]	@ zero_extendqisi2
 546 001e 4FEA8303 		lsl	r3, r3, #2
 547 0022 DAB2     		uxtb	r2, r3
 548 0024 FB7B     		ldrb	r3, [r7, #15]	@ zero_extendqisi2
 549 0026 42EA0303 		orr	r3, r2, r3
 550 002a DBB2     		uxtb	r3, r3
 551 002c FB73     		strb	r3, [r7, #15]
 455:.\Generated_Source\PSoC5/ADC.c ****     ADC_DSM_BUF1_REG = tmpReg;
 552              		.loc 1 455 0
 553 002e 45F69B03 		movw	r3, #:lower16:1073764507
 554 0032 C4F20003 		movt	r3, #:upper16:1073764507
 555 0036 FA7B     		ldrb	r2, [r7, #15]
 556 0038 1A70     		strb	r2, [r3, #0]
 456:.\Generated_Source\PSoC5/ADC.c **** }
 557              		.loc 1 456 0
 558 003a 07F11407 		add	r7, r7, #20
 559 003e BD46     		mov	sp, r7
 560 0040 80BC     		pop	{r7}
 561 0042 7047     		bx	lr
 562              		.cfi_endproc
 563              	.LFE4:
 564              		.size	ADC_SetBufferGain, .-ADC_SetBufferGain
 565              		.section	.text.ADC_SetCoherency,"ax",%progbits
 566              		.align	2
ARM GAS  C:\Users\Victor\AppData\Local\Temp\ccOsbm6Y.s 			page 19


 567              		.global	ADC_SetCoherency
 568              		.thumb
 569              		.thumb_func
 570              		.type	ADC_SetCoherency, %function
 571              	ADC_SetCoherency:
 572              	.LFB5:
 457:.\Generated_Source\PSoC5/ADC.c **** 
 458:.\Generated_Source\PSoC5/ADC.c **** 
 459:.\Generated_Source\PSoC5/ADC.c **** /*******************************************************************************
 460:.\Generated_Source\PSoC5/ADC.c **** * Function Name: ADC_SetCoherency
 461:.\Generated_Source\PSoC5/ADC.c **** ********************************************************************************
 462:.\Generated_Source\PSoC5/ADC.c **** *
 463:.\Generated_Source\PSoC5/ADC.c **** * Summary:
 464:.\Generated_Source\PSoC5/ADC.c **** *  Sets the ADC output register coherency bit.
 465:.\Generated_Source\PSoC5/ADC.c **** *
 466:.\Generated_Source\PSoC5/ADC.c **** * Parameters:  
 467:.\Generated_Source\PSoC5/ADC.c **** *  gain:  Two bit value to set the coherency bit.
 468:.\Generated_Source\PSoC5/ADC.c ****           00-Coherency checking off
 469:.\Generated_Source\PSoC5/ADC.c ****           01-low byte is key byte
 470:.\Generated_Source\PSoC5/ADC.c ****           02-middle byte is the key byte
 471:.\Generated_Source\PSoC5/ADC.c ****           03-high byte is the key byte
 472:.\Generated_Source\PSoC5/ADC.c **** *
 473:.\Generated_Source\PSoC5/ADC.c **** * Return: 
 474:.\Generated_Source\PSoC5/ADC.c **** *  void
 475:.\Generated_Source\PSoC5/ADC.c **** *
 476:.\Generated_Source\PSoC5/ADC.c **** * Side Effects:  If the coherency is changed, for any reason, it should be 
 477:.\Generated_Source\PSoC5/ADC.c **** *                changed back to the LSB when the provided "GetResult" API 
 478:.\Generated_Source\PSoC5/ADC.c **** *                is used.
 479:.\Generated_Source\PSoC5/ADC.c **** *
 480:.\Generated_Source\PSoC5/ADC.c **** *******************************************************************************/
 481:.\Generated_Source\PSoC5/ADC.c **** void ADC_SetCoherency(uint8 coherency) 
 482:.\Generated_Source\PSoC5/ADC.c **** {
 573              		.loc 1 482 0
 574              		.cfi_startproc
 575              		@ args = 0, pretend = 0, frame = 16
 576              		@ frame_needed = 1, uses_anonymous_args = 0
 577              		@ link register save eliminated.
 578 0000 80B4     		push	{r7}
 579              	.LCFI11:
 580              		.cfi_def_cfa_offset 4
 581 0002 85B0     		sub	sp, sp, #20
 582              	.LCFI12:
 583              		.cfi_def_cfa_offset 24
 584 0004 00AF     		add	r7, sp, #0
 585              		.cfi_offset 7, -4
 586              	.LCFI13:
 587              		.cfi_def_cfa_register 7
 588 0006 0346     		mov	r3, r0
 589 0008 FB71     		strb	r3, [r7, #7]
 483:.\Generated_Source\PSoC5/ADC.c ****     uint8 tmpReg;    
 484:.\Generated_Source\PSoC5/ADC.c ****     tmpReg = ADC_DEC_COHER_REG & ~ADC_DEC_SAMP_KEY_MASK;
 590              		.loc 1 484 0
 591 000a 44F61463 		movw	r3, #:lower16:1073761812
 592 000e C4F20003 		movt	r3, #:upper16:1073761812
 593 0012 1B78     		ldrb	r3, [r3, #0]
 594 0014 DBB2     		uxtb	r3, r3
 595 0016 23F00303 		bic	r3, r3, #3
ARM GAS  C:\Users\Victor\AppData\Local\Temp\ccOsbm6Y.s 			page 20


 596 001a FB73     		strb	r3, [r7, #15]
 485:.\Generated_Source\PSoC5/ADC.c ****     tmpReg |= coherency;
 597              		.loc 1 485 0
 598 001c FA7B     		ldrb	r2, [r7, #15]
 599 001e FB79     		ldrb	r3, [r7, #7]
 600 0020 42EA0303 		orr	r3, r2, r3
 601 0024 FB73     		strb	r3, [r7, #15]
 486:.\Generated_Source\PSoC5/ADC.c ****     ADC_DEC_COHER_REG = tmpReg;
 602              		.loc 1 486 0
 603 0026 44F61463 		movw	r3, #:lower16:1073761812
 604 002a C4F20003 		movt	r3, #:upper16:1073761812
 605 002e FA7B     		ldrb	r2, [r7, #15]
 606 0030 1A70     		strb	r2, [r3, #0]
 487:.\Generated_Source\PSoC5/ADC.c **** }
 607              		.loc 1 487 0
 608 0032 07F11407 		add	r7, r7, #20
 609 0036 BD46     		mov	sp, r7
 610 0038 80BC     		pop	{r7}
 611 003a 7047     		bx	lr
 612              		.cfi_endproc
 613              	.LFE5:
 614              		.size	ADC_SetCoherency, .-ADC_SetCoherency
 615              		.global	__aeabi_ui2f
 616              		.global	__aeabi_fdiv
 617              		.global	__aeabi_fmul
 618              		.global	__aeabi_f2d
 619              		.global	__aeabi_dcmpgt
 620              		.global	__aeabi_f2uiz
 621              		.section	.text.ADC_SetGCOR,"ax",%progbits
 622              		.align	2
 623              		.global	ADC_SetGCOR
 624              		.thumb
 625              		.thumb_func
 626              		.type	ADC_SetGCOR, %function
 627              	ADC_SetGCOR:
 628              	.LFB6:
 488:.\Generated_Source\PSoC5/ADC.c **** 
 489:.\Generated_Source\PSoC5/ADC.c **** 
 490:.\Generated_Source\PSoC5/ADC.c **** /*******************************************************************************
 491:.\Generated_Source\PSoC5/ADC.c **** * Function Name: ADC_SetGCOR
 492:.\Generated_Source\PSoC5/ADC.c **** ********************************************************************************
 493:.\Generated_Source\PSoC5/ADC.c **** *
 494:.\Generated_Source\PSoC5/ADC.c **** * Summary:
 495:.\Generated_Source\PSoC5/ADC.c **** *  Calculates a new GCOR value and writes it into the GCOR register.
 496:.\Generated_Source\PSoC5/ADC.c **** *
 497:.\Generated_Source\PSoC5/ADC.c **** * Parameters:  
 498:.\Generated_Source\PSoC5/ADC.c **** *  gainAdjust:  floating point value to set GCOR registers.
 499:.\Generated_Source\PSoC5/ADC.c **** *
 500:.\Generated_Source\PSoC5/ADC.c **** * Return: 
 501:.\Generated_Source\PSoC5/ADC.c **** *  uint8:  0-if GCOR value is within the expected range.
 502:.\Generated_Source\PSoC5/ADC.c ****            1- if GCOR is outside the expected range.
 503:.\Generated_Source\PSoC5/ADC.c **** *
 504:.\Generated_Source\PSoC5/ADC.c **** * Side Effects:  The GVAL register is set to the amount of valid bits in the
 505:.\Generated_Source\PSoC5/ADC.c **** *                GCOR  register minus one. If GVAL is 15 (0x0F), all 16 bits
 506:.\Generated_Source\PSoC5/ADC.c **** *                of the GCOR registers will be valid. If for example GVAL is 
 507:.\Generated_Source\PSoC5/ADC.c **** *                11 (0x0B) only 12 bits will be valid. The least 4 bits will
 508:.\Generated_Source\PSoC5/ADC.c **** *                be lost when the GCOR value is shifted 4 places to the right.
ARM GAS  C:\Users\Victor\AppData\Local\Temp\ccOsbm6Y.s 			page 21


 509:.\Generated_Source\PSoC5/ADC.c **** *
 510:.\Generated_Source\PSoC5/ADC.c **** ******************************************************************************/
 511:.\Generated_Source\PSoC5/ADC.c **** uint8 ADC_SetGCOR(float gainAdjust) 
 512:.\Generated_Source\PSoC5/ADC.c **** {
 629              		.loc 1 512 0
 630              		.cfi_startproc
 631              		@ args = 0, pretend = 0, frame = 16
 632              		@ frame_needed = 1, uses_anonymous_args = 0
 633 0000 90B5     		push	{r4, r7, lr}
 634              	.LCFI14:
 635              		.cfi_def_cfa_offset 12
 636 0002 85B0     		sub	sp, sp, #20
 637              	.LCFI15:
 638              		.cfi_def_cfa_offset 32
 639 0004 00AF     		add	r7, sp, #0
 640              		.cfi_offset 14, -4
 641              		.cfi_offset 7, -8
 642              		.cfi_offset 4, -12
 643              	.LCFI16:
 644              		.cfi_def_cfa_register 7
 645 0006 7860     		str	r0, [r7, #4]	@ float
 513:.\Generated_Source\PSoC5/ADC.c ****     uint16 tmpReg;
 514:.\Generated_Source\PSoC5/ADC.c ****     uint8 status;
 515:.\Generated_Source\PSoC5/ADC.c ****     float tmpValue;
 516:.\Generated_Source\PSoC5/ADC.c ****     
 517:.\Generated_Source\PSoC5/ADC.c ****     tmpReg = ADC_DEC_GCORH_REG;
 646              		.loc 1 517 0
 647 0008 44F60D63 		movw	r3, #:lower16:1073761805
 648 000c C4F20003 		movt	r3, #:upper16:1073761805
 649 0010 1B78     		ldrb	r3, [r3, #0]
 650 0012 DBB2     		uxtb	r3, r3
 651 0014 3B81     		strh	r3, [r7, #8]	@ movhi
 518:.\Generated_Source\PSoC5/ADC.c ****     tmpReg = (tmpReg << 8) | ADC_DEC_GCOR_REG;
 652              		.loc 1 518 0
 653 0016 3B89     		ldrh	r3, [r7, #8]
 654 0018 4FEA0323 		lsl	r3, r3, #8
 655 001c 9AB2     		uxth	r2, r3
 656 001e 44F60C63 		movw	r3, #:lower16:1073761804
 657 0022 C4F20003 		movt	r3, #:upper16:1073761804
 658 0026 1B78     		ldrb	r3, [r3, #0]
 659 0028 DBB2     		uxtb	r3, r3
 660 002a 42EA0303 		orr	r3, r2, r3
 661 002e 9BB2     		uxth	r3, r3
 662 0030 3B81     		strh	r3, [r7, #8]	@ movhi
 519:.\Generated_Source\PSoC5/ADC.c ****     tmpValue = ((float)tmpReg / ADC_IDEAL_GAIN_CONST);
 663              		.loc 1 519 0
 664 0032 3B89     		ldrh	r3, [r7, #8]
 665 0034 1846     		mov	r0, r3
 666 0036 FFF7FEFF 		bl	__aeabi_ui2f
 667 003a 0346     		mov	r3, r0
 668 003c 1846     		mov	r0, r3
 669 003e 2849     		ldr	r1, .L22+8	@ float
 670 0040 FFF7FEFF 		bl	__aeabi_fdiv
 671 0044 0346     		mov	r3, r0
 672 0046 FB60     		str	r3, [r7, #12]	@ float
 520:.\Generated_Source\PSoC5/ADC.c ****     tmpValue = tmpValue * gainAdjust;
 673              		.loc 1 520 0
ARM GAS  C:\Users\Victor\AppData\Local\Temp\ccOsbm6Y.s 			page 22


 674 0048 F868     		ldr	r0, [r7, #12]	@ float
 675 004a 7968     		ldr	r1, [r7, #4]	@ float
 676 004c FFF7FEFF 		bl	__aeabi_fmul
 677 0050 0346     		mov	r3, r0
 678 0052 FB60     		str	r3, [r7, #12]	@ float
 521:.\Generated_Source\PSoC5/ADC.c ****     
 522:.\Generated_Source\PSoC5/ADC.c ****     if (tmpValue > 1.9999)
 679              		.loc 1 522 0
 680 0054 F868     		ldr	r0, [r7, #12]	@ float
 681 0056 FFF7FEFF 		bl	__aeabi_f2d
 682 005a 0246     		mov	r2, r0
 683 005c 0B46     		mov	r3, r1
 684 005e 4FF00001 		mov	r1, #0
 685 0062 0C46     		mov	r4, r1
 686 0064 1046     		mov	r0, r2
 687 0066 1946     		mov	r1, r3
 688 0068 1BA3     		adr	r3, .L22
 689 006a D3E90023 		ldrd	r2, [r3]
 690 006e FFF7FEFF 		bl	__aeabi_dcmpgt
 691 0072 0346     		mov	r3, r0
 692 0074 002B     		cmp	r3, #0
 693 0076 02D0     		beq	.L17
 694              	.L18:
 695 0078 4FF00103 		mov	r3, #1
 696 007c 1C46     		mov	r4, r3
 697              	.L17:
 698 007e E3B2     		uxtb	r3, r4
 699 0080 002B     		cmp	r3, #0
 700 0082 03D0     		beq	.L19
 523:.\Generated_Source\PSoC5/ADC.c ****     {
 524:.\Generated_Source\PSoC5/ADC.c ****         status = 1;
 701              		.loc 1 524 0
 702 0084 4FF00103 		mov	r3, #1
 703 0088 FB72     		strb	r3, [r7, #11]
 704 008a 1DE0     		b	.L20
 705              	.L19:
 525:.\Generated_Source\PSoC5/ADC.c ****     }
 526:.\Generated_Source\PSoC5/ADC.c ****     else
 527:.\Generated_Source\PSoC5/ADC.c ****     {
 528:.\Generated_Source\PSoC5/ADC.c ****         tmpReg = (uint16)(tmpValue * ADC_IDEAL_GAIN_CONST);
 706              		.loc 1 528 0
 707 008c F868     		ldr	r0, [r7, #12]	@ float
 708 008e 1449     		ldr	r1, .L22+8	@ float
 709 0090 FFF7FEFF 		bl	__aeabi_fmul
 710 0094 0346     		mov	r3, r0
 711 0096 1846     		mov	r0, r3
 712 0098 FFF7FEFF 		bl	__aeabi_f2uiz
 713 009c 0346     		mov	r3, r0
 714 009e 3B81     		strh	r3, [r7, #8]	@ movhi
 529:.\Generated_Source\PSoC5/ADC.c ****         ADC_DEC_GCOR_REG = (uint8)tmpReg;
 715              		.loc 1 529 0
 716 00a0 44F60C63 		movw	r3, #:lower16:1073761804
 717 00a4 C4F20003 		movt	r3, #:upper16:1073761804
 718 00a8 3A89     		ldrh	r2, [r7, #8]	@ movhi
 719 00aa D2B2     		uxtb	r2, r2
 720 00ac 1A70     		strb	r2, [r3, #0]
 530:.\Generated_Source\PSoC5/ADC.c ****         ADC_DEC_GCORH_REG = (uint8) (tmpReg >> 8);
ARM GAS  C:\Users\Victor\AppData\Local\Temp\ccOsbm6Y.s 			page 23


 721              		.loc 1 530 0
 722 00ae 44F60D63 		movw	r3, #:lower16:1073761805
 723 00b2 C4F20003 		movt	r3, #:upper16:1073761805
 724 00b6 3A89     		ldrh	r2, [r7, #8]
 725 00b8 4FEA1222 		lsr	r2, r2, #8
 726 00bc 92B2     		uxth	r2, r2
 727 00be D2B2     		uxtb	r2, r2
 728 00c0 1A70     		strb	r2, [r3, #0]
 531:.\Generated_Source\PSoC5/ADC.c ****         status = 0;
 729              		.loc 1 531 0
 730 00c2 4FF00003 		mov	r3, #0
 731 00c6 FB72     		strb	r3, [r7, #11]
 732              	.L20:
 532:.\Generated_Source\PSoC5/ADC.c ****     }
 533:.\Generated_Source\PSoC5/ADC.c ****     
 534:.\Generated_Source\PSoC5/ADC.c ****     return status;
 733              		.loc 1 534 0
 734 00c8 FB7A     		ldrb	r3, [r7, #11]	@ zero_extendqisi2
 535:.\Generated_Source\PSoC5/ADC.c **** }
 735              		.loc 1 535 0
 736 00ca 1846     		mov	r0, r3
 737 00cc 07F11407 		add	r7, r7, #20
 738 00d0 BD46     		mov	sp, r7
 739 00d2 90BD     		pop	{r4, r7, pc}
 740              	.L23:
 741 00d4 AFF30080 		.align	3
 742              	.L22:
 743 00d8 8F537424 		.word	611603343
 744 00dc 97FFFF3F 		.word	1073741719
 745 00e0 00000047 		.word	1191182336
 746              		.cfi_endproc
 747              	.LFE6:
 748              		.size	ADC_SetGCOR, .-ADC_SetGCOR
 749 00e4 AFF30080 		.section	.text.ADC_ReadGCOR,"ax",%progbits
 750              		.align	2
 751              		.global	ADC_ReadGCOR
 752              		.thumb
 753              		.thumb_func
 754              		.type	ADC_ReadGCOR, %function
 755              	ADC_ReadGCOR:
 756              	.LFB7:
 536:.\Generated_Source\PSoC5/ADC.c **** 
 537:.\Generated_Source\PSoC5/ADC.c **** 
 538:.\Generated_Source\PSoC5/ADC.c **** /******************************************************************************
 539:.\Generated_Source\PSoC5/ADC.c **** * Function Name: ADC_ReadGCOR
 540:.\Generated_Source\PSoC5/ADC.c **** *******************************************************************************
 541:.\Generated_Source\PSoC5/ADC.c **** *
 542:.\Generated_Source\PSoC5/ADC.c **** * Summary:
 543:.\Generated_Source\PSoC5/ADC.c **** *  This API returns the current GCOR register value, normalized based on the 
 544:.\Generated_Source\PSoC5/ADC.c **** *  GVAL register settings.
 545:.\Generated_Source\PSoC5/ADC.c **** *
 546:.\Generated_Source\PSoC5/ADC.c **** * Parameters:  
 547:.\Generated_Source\PSoC5/ADC.c **** *  void
 548:.\Generated_Source\PSoC5/ADC.c **** *
 549:.\Generated_Source\PSoC5/ADC.c **** * Return: 
 550:.\Generated_Source\PSoC5/ADC.c **** *  uint16:  Normalized GCOR value.
 551:.\Generated_Source\PSoC5/ADC.c **** *
ARM GAS  C:\Users\Victor\AppData\Local\Temp\ccOsbm6Y.s 			page 24


 552:.\Generated_Source\PSoC5/ADC.c **** * Side Effects:  If the GVAL register is set to a value greater than 0x0F, then
 553:.\Generated_Source\PSoC5/ADC.c ****                  it gives unexpected value.
 554:.\Generated_Source\PSoC5/ADC.c **** *
 555:.\Generated_Source\PSoC5/ADC.c **** *******************************************************************************/
 556:.\Generated_Source\PSoC5/ADC.c **** uint16 ADC_ReadGCOR(void) 
 557:.\Generated_Source\PSoC5/ADC.c **** {
 757              		.loc 1 557 0
 758              		.cfi_startproc
 759              		@ args = 0, pretend = 0, frame = 8
 760              		@ frame_needed = 1, uses_anonymous_args = 0
 761              		@ link register save eliminated.
 762 0000 80B4     		push	{r7}
 763              	.LCFI17:
 764              		.cfi_def_cfa_offset 4
 765 0002 83B0     		sub	sp, sp, #12
 766              	.LCFI18:
 767              		.cfi_def_cfa_offset 16
 768 0004 00AF     		add	r7, sp, #0
 769              		.cfi_offset 7, -4
 770              	.LCFI19:
 771              		.cfi_def_cfa_register 7
 558:.\Generated_Source\PSoC5/ADC.c ****     uint8 gValue;
 559:.\Generated_Source\PSoC5/ADC.c ****     uint16 gcorValue, gcorRegValue;
 560:.\Generated_Source\PSoC5/ADC.c ****     
 561:.\Generated_Source\PSoC5/ADC.c ****     gValue = ADC_DEC_GVAL_REG;
 772              		.loc 1 561 0
 773 0006 44F60E63 		movw	r3, #:lower16:1073761806
 774 000a C4F20003 		movt	r3, #:upper16:1073761806
 775 000e 1B78     		ldrb	r3, [r3, #0]
 776 0010 FB70     		strb	r3, [r7, #3]
 562:.\Generated_Source\PSoC5/ADC.c ****     gcorRegValue = CY_GET_REG16(ADC_DEC_GCOR_PTR);
 777              		.loc 1 562 0
 778 0012 44F60C63 		movw	r3, #:lower16:1073761804
 779 0016 C4F20003 		movt	r3, #:upper16:1073761804
 780 001a 1B88     		ldrh	r3, [r3, #0]	@ movhi
 781 001c FB80     		strh	r3, [r7, #6]	@ movhi
 563:.\Generated_Source\PSoC5/ADC.c ****     
 564:.\Generated_Source\PSoC5/ADC.c ****     switch (gValue)
 782              		.loc 1 564 0
 783 001e FB78     		ldrb	r3, [r7, #3]	@ zero_extendqisi2
 784 0020 A3F10903 		sub	r3, r3, #9
 785 0024 052B     		cmp	r3, #5
 786 0026 3FD8     		bhi	.L25
 787 0028 01A2     		adr	r2, .L32
 788 002a 52F823F0 		ldr	pc, [r2, r3, lsl #2]
 789 002e 00BF     		.align	2
 790              	.L32:
 791 0030 49000000 		.word	.L26+1
 792 0034 59000000 		.word	.L27+1
 793 0038 69000000 		.word	.L28+1
 794 003c 79000000 		.word	.L29+1
 795 0040 89000000 		.word	.L30+1
 796 0044 99000000 		.word	.L31+1
 797              	.L26:
 565:.\Generated_Source\PSoC5/ADC.c ****     {
 566:.\Generated_Source\PSoC5/ADC.c ****         case ADC_GVAL_RESOLUTIN_8:
 567:.\Generated_Source\PSoC5/ADC.c ****             gcorValue = gcorRegValue << (ADC_MAX_GVAL - gValue);
ARM GAS  C:\Users\Victor\AppData\Local\Temp\ccOsbm6Y.s 			page 25


 798              		.loc 1 567 0
 799 0048 FA88     		ldrh	r2, [r7, #6]
 800 004a FB78     		ldrb	r3, [r7, #3]	@ zero_extendqisi2
 801 004c C3F10F03 		rsb	r3, r3, #15
 802 0050 02FA03F3 		lsl	r3, r2, r3
 803 0054 BB80     		strh	r3, [r7, #4]	@ movhi
 568:.\Generated_Source\PSoC5/ADC.c ****             break;
 804              		.loc 1 568 0
 805 0056 29E0     		b	.L33
 806              	.L27:
 569:.\Generated_Source\PSoC5/ADC.c ****         
 570:.\Generated_Source\PSoC5/ADC.c ****         case ADC_GVAL_RESOLUTIN_9:
 571:.\Generated_Source\PSoC5/ADC.c ****             gcorValue = gcorRegValue << (ADC_MAX_GVAL - gValue);
 807              		.loc 1 571 0
 808 0058 FA88     		ldrh	r2, [r7, #6]
 809 005a FB78     		ldrb	r3, [r7, #3]	@ zero_extendqisi2
 810 005c C3F10F03 		rsb	r3, r3, #15
 811 0060 02FA03F3 		lsl	r3, r2, r3
 812 0064 BB80     		strh	r3, [r7, #4]	@ movhi
 572:.\Generated_Source\PSoC5/ADC.c ****             break;
 813              		.loc 1 572 0
 814 0066 21E0     		b	.L33
 815              	.L28:
 573:.\Generated_Source\PSoC5/ADC.c ****             
 574:.\Generated_Source\PSoC5/ADC.c ****         case ADC_GVAL_RESOLUTIN_10:
 575:.\Generated_Source\PSoC5/ADC.c ****             gcorValue = gcorRegValue << (ADC_MAX_GVAL - gValue);
 816              		.loc 1 575 0
 817 0068 FA88     		ldrh	r2, [r7, #6]
 818 006a FB78     		ldrb	r3, [r7, #3]	@ zero_extendqisi2
 819 006c C3F10F03 		rsb	r3, r3, #15
 820 0070 02FA03F3 		lsl	r3, r2, r3
 821 0074 BB80     		strh	r3, [r7, #4]	@ movhi
 576:.\Generated_Source\PSoC5/ADC.c ****             break;
 822              		.loc 1 576 0
 823 0076 19E0     		b	.L33
 824              	.L29:
 577:.\Generated_Source\PSoC5/ADC.c ****             
 578:.\Generated_Source\PSoC5/ADC.c ****         case ADC_GVAL_RESOLUTIN_11:
 579:.\Generated_Source\PSoC5/ADC.c ****             gcorValue = gcorRegValue << (ADC_MAX_GVAL - gValue);
 825              		.loc 1 579 0
 826 0078 FA88     		ldrh	r2, [r7, #6]
 827 007a FB78     		ldrb	r3, [r7, #3]	@ zero_extendqisi2
 828 007c C3F10F03 		rsb	r3, r3, #15
 829 0080 02FA03F3 		lsl	r3, r2, r3
 830 0084 BB80     		strh	r3, [r7, #4]	@ movhi
 580:.\Generated_Source\PSoC5/ADC.c ****             break;
 831              		.loc 1 580 0
 832 0086 11E0     		b	.L33
 833              	.L30:
 581:.\Generated_Source\PSoC5/ADC.c ****             
 582:.\Generated_Source\PSoC5/ADC.c ****         case ADC_GVAL_RESOLUTIN_12:
 583:.\Generated_Source\PSoC5/ADC.c ****             gcorValue = gcorRegValue << (ADC_MAX_GVAL - gValue);
 834              		.loc 1 583 0
 835 0088 FA88     		ldrh	r2, [r7, #6]
 836 008a FB78     		ldrb	r3, [r7, #3]	@ zero_extendqisi2
 837 008c C3F10F03 		rsb	r3, r3, #15
 838 0090 02FA03F3 		lsl	r3, r2, r3
ARM GAS  C:\Users\Victor\AppData\Local\Temp\ccOsbm6Y.s 			page 26


 839 0094 BB80     		strh	r3, [r7, #4]	@ movhi
 584:.\Generated_Source\PSoC5/ADC.c ****             break;
 840              		.loc 1 584 0
 841 0096 09E0     		b	.L33
 842              	.L31:
 585:.\Generated_Source\PSoC5/ADC.c ****             
 586:.\Generated_Source\PSoC5/ADC.c ****         case ADC_GVAL_RESOLUTIN_13:
 587:.\Generated_Source\PSoC5/ADC.c ****             gcorValue = gcorRegValue << (ADC_MAX_GVAL - gValue);
 843              		.loc 1 587 0
 844 0098 FA88     		ldrh	r2, [r7, #6]
 845 009a FB78     		ldrb	r3, [r7, #3]	@ zero_extendqisi2
 846 009c C3F10F03 		rsb	r3, r3, #15
 847 00a0 02FA03F3 		lsl	r3, r2, r3
 848 00a4 BB80     		strh	r3, [r7, #4]	@ movhi
 588:.\Generated_Source\PSoC5/ADC.c ****             break;
 849              		.loc 1 588 0
 850 00a6 01E0     		b	.L33
 851              	.L25:
 589:.\Generated_Source\PSoC5/ADC.c ****             
 590:.\Generated_Source\PSoC5/ADC.c ****         default:
 591:.\Generated_Source\PSoC5/ADC.c ****             gcorValue = gcorRegValue;
 852              		.loc 1 591 0
 853 00a8 FB88     		ldrh	r3, [r7, #6]	@ movhi
 854 00aa BB80     		strh	r3, [r7, #4]	@ movhi
 855              	.L33:
 592:.\Generated_Source\PSoC5/ADC.c ****             break;
 593:.\Generated_Source\PSoC5/ADC.c ****     }
 594:.\Generated_Source\PSoC5/ADC.c ****         
 595:.\Generated_Source\PSoC5/ADC.c ****     return gcorValue;
 856              		.loc 1 595 0
 857 00ac BB88     		ldrh	r3, [r7, #4]
 596:.\Generated_Source\PSoC5/ADC.c **** }
 858              		.loc 1 596 0
 859 00ae 1846     		mov	r0, r3
 860 00b0 07F10C07 		add	r7, r7, #12
 861 00b4 BD46     		mov	sp, r7
 862 00b6 80BC     		pop	{r7}
 863 00b8 7047     		bx	lr
 864              		.cfi_endproc
 865              	.LFE7:
 866              		.size	ADC_ReadGCOR, .-ADC_ReadGCOR
 867 00ba 00BF     		.section	.text.ADC_SetBufferChop,"ax",%progbits
 868              		.align	2
 869              		.global	ADC_SetBufferChop
 870              		.thumb
 871              		.thumb_func
 872              		.type	ADC_SetBufferChop, %function
 873              	ADC_SetBufferChop:
 874              	.LFB8:
 597:.\Generated_Source\PSoC5/ADC.c **** 
 598:.\Generated_Source\PSoC5/ADC.c **** 
 599:.\Generated_Source\PSoC5/ADC.c **** /*******************************************************************************
 600:.\Generated_Source\PSoC5/ADC.c **** * Function Name: ADC_SetBufferChop
 601:.\Generated_Source\PSoC5/ADC.c **** ********************************************************************************
 602:.\Generated_Source\PSoC5/ADC.c **** *
 603:.\Generated_Source\PSoC5/ADC.c **** * Summary:
 604:.\Generated_Source\PSoC5/ADC.c **** *  Sets the Delta Sigma Modulator Buffer chopper mode.
ARM GAS  C:\Users\Victor\AppData\Local\Temp\ccOsbm6Y.s 			page 27


 605:.\Generated_Source\PSoC5/ADC.c **** *
 606:.\Generated_Source\PSoC5/ADC.c **** * Parameters:  
 607:.\Generated_Source\PSoC5/ADC.c **** *  chopen:  If non-zero set the chopper mode.
 608:.\Generated_Source\PSoC5/ADC.c **** *  chopFreq:  Chop frequency value.
 609:.\Generated_Source\PSoC5/ADC.c **** *
 610:.\Generated_Source\PSoC5/ADC.c **** * Return: 
 611:.\Generated_Source\PSoC5/ADC.c **** *  void
 612:.\Generated_Source\PSoC5/ADC.c **** *
 613:.\Generated_Source\PSoC5/ADC.c **** *******************************************************************************/
 614:.\Generated_Source\PSoC5/ADC.c **** void ADC_SetBufferChop(uint8 chopen, uint8 chopFreq) 
 615:.\Generated_Source\PSoC5/ADC.c **** {
 875              		.loc 1 615 0
 876              		.cfi_startproc
 877              		@ args = 0, pretend = 0, frame = 8
 878              		@ frame_needed = 1, uses_anonymous_args = 0
 879              		@ link register save eliminated.
 880 0000 80B4     		push	{r7}
 881              	.LCFI20:
 882              		.cfi_def_cfa_offset 4
 883 0002 83B0     		sub	sp, sp, #12
 884              	.LCFI21:
 885              		.cfi_def_cfa_offset 16
 886 0004 00AF     		add	r7, sp, #0
 887              		.cfi_offset 7, -4
 888              	.LCFI22:
 889              		.cfi_def_cfa_register 7
 890 0006 0246     		mov	r2, r0
 891 0008 0B46     		mov	r3, r1
 892 000a FA71     		strb	r2, [r7, #7]
 893 000c BB71     		strb	r3, [r7, #6]
 616:.\Generated_Source\PSoC5/ADC.c ****     if(chopen != 0u)
 894              		.loc 1 616 0
 895 000e FB79     		ldrb	r3, [r7, #7]	@ zero_extendqisi2
 896 0010 002B     		cmp	r3, #0
 897 0012 0BD0     		beq	.L36
 617:.\Generated_Source\PSoC5/ADC.c ****     {
 618:.\Generated_Source\PSoC5/ADC.c ****         ADC_DSM_BUF2_REG = (ADC_DSM_BUF_FCHOP_MASK & chopFreq) | \
 898              		.loc 1 618 0
 899 0014 45F69C03 		movw	r3, #:lower16:1073764508
 900 0018 C4F20003 		movt	r3, #:upper16:1073764508
 901 001c BA79     		ldrb	r2, [r7, #6]	@ zero_extendqisi2
 902 001e 02F00702 		and	r2, r2, #7
 903 0022 42F00802 		orr	r2, r2, #8
 904 0026 D2B2     		uxtb	r2, r2
 905 0028 1A70     		strb	r2, [r3, #0]
 906 002a 06E0     		b	.L38
 907              	.L36:
 619:.\Generated_Source\PSoC5/ADC.c ****                                          ADC_DSM_BUF_CHOP_EN;
 620:.\Generated_Source\PSoC5/ADC.c ****     }
 621:.\Generated_Source\PSoC5/ADC.c ****     else
 622:.\Generated_Source\PSoC5/ADC.c ****     {
 623:.\Generated_Source\PSoC5/ADC.c ****         ADC_DSM_BUF2_REG = 0x00u;
 908              		.loc 1 623 0
 909 002c 45F69C03 		movw	r3, #:lower16:1073764508
 910 0030 C4F20003 		movt	r3, #:upper16:1073764508
 911 0034 4FF00002 		mov	r2, #0
 912 0038 1A70     		strb	r2, [r3, #0]
ARM GAS  C:\Users\Victor\AppData\Local\Temp\ccOsbm6Y.s 			page 28


 913              	.L38:
 624:.\Generated_Source\PSoC5/ADC.c ****     }
 625:.\Generated_Source\PSoC5/ADC.c **** }
 914              		.loc 1 625 0
 915 003a 07F10C07 		add	r7, r7, #12
 916 003e BD46     		mov	sp, r7
 917 0040 80BC     		pop	{r7}
 918 0042 7047     		bx	lr
 919              		.cfi_endproc
 920              	.LFE8:
 921              		.size	ADC_SetBufferChop, .-ADC_SetBufferChop
 922              		.section	.text.ADC_StartConvert,"ax",%progbits
 923              		.align	2
 924              		.global	ADC_StartConvert
 925              		.thumb
 926              		.thumb_func
 927              		.type	ADC_StartConvert, %function
 928              	ADC_StartConvert:
 929              	.LFB9:
 626:.\Generated_Source\PSoC5/ADC.c **** 
 627:.\Generated_Source\PSoC5/ADC.c **** 
 628:.\Generated_Source\PSoC5/ADC.c **** /*******************************************************************************
 629:.\Generated_Source\PSoC5/ADC.c **** * Function Name: ADC_StartConvert
 630:.\Generated_Source\PSoC5/ADC.c **** ********************************************************************************
 631:.\Generated_Source\PSoC5/ADC.c **** *
 632:.\Generated_Source\PSoC5/ADC.c **** * Summary:
 633:.\Generated_Source\PSoC5/ADC.c **** *  Starts ADC conversion using the given mode.
 634:.\Generated_Source\PSoC5/ADC.c **** *
 635:.\Generated_Source\PSoC5/ADC.c **** * Parameters:  
 636:.\Generated_Source\PSoC5/ADC.c **** *  void
 637:.\Generated_Source\PSoC5/ADC.c **** *
 638:.\Generated_Source\PSoC5/ADC.c **** * Return: 
 639:.\Generated_Source\PSoC5/ADC.c **** *  void 
 640:.\Generated_Source\PSoC5/ADC.c **** *
 641:.\Generated_Source\PSoC5/ADC.c **** *******************************************************************************/
 642:.\Generated_Source\PSoC5/ADC.c **** void ADC_StartConvert(void) 
 643:.\Generated_Source\PSoC5/ADC.c **** {
 930              		.loc 1 643 0
 931              		.cfi_startproc
 932              		@ args = 0, pretend = 0, frame = 0
 933              		@ frame_needed = 1, uses_anonymous_args = 0
 934              		@ link register save eliminated.
 935 0000 80B4     		push	{r7}
 936              	.LCFI23:
 937              		.cfi_def_cfa_offset 4
 938 0002 00AF     		add	r7, sp, #0
 939              		.cfi_offset 7, -4
 940              	.LCFI24:
 941              		.cfi_def_cfa_register 7
 644:.\Generated_Source\PSoC5/ADC.c ****     /* Start the conversion */
 645:.\Generated_Source\PSoC5/ADC.c ****     ADC_DEC_CR_REG |= ADC_DEC_START_CONV;  
 942              		.loc 1 645 0
 943 0004 44F60063 		movw	r3, #:lower16:1073761792
 944 0008 C4F20003 		movt	r3, #:upper16:1073761792
 945 000c 44F60062 		movw	r2, #:lower16:1073761792
 946 0010 C4F20002 		movt	r2, #:upper16:1073761792
 947 0014 1278     		ldrb	r2, [r2, #0]
ARM GAS  C:\Users\Victor\AppData\Local\Temp\ccOsbm6Y.s 			page 29


 948 0016 D2B2     		uxtb	r2, r2
 949 0018 42F00102 		orr	r2, r2, #1
 950 001c D2B2     		uxtb	r2, r2
 951 001e 1A70     		strb	r2, [r3, #0]
 646:.\Generated_Source\PSoC5/ADC.c **** }
 952              		.loc 1 646 0
 953 0020 BD46     		mov	sp, r7
 954 0022 80BC     		pop	{r7}
 955 0024 7047     		bx	lr
 956              		.cfi_endproc
 957              	.LFE9:
 958              		.size	ADC_StartConvert, .-ADC_StartConvert
 959 0026 00BF     		.section	.text.ADC_StopConvert,"ax",%progbits
 960              		.align	2
 961              		.global	ADC_StopConvert
 962              		.thumb
 963              		.thumb_func
 964              		.type	ADC_StopConvert, %function
 965              	ADC_StopConvert:
 966              	.LFB10:
 647:.\Generated_Source\PSoC5/ADC.c **** 
 648:.\Generated_Source\PSoC5/ADC.c **** 
 649:.\Generated_Source\PSoC5/ADC.c **** /*******************************************************************************
 650:.\Generated_Source\PSoC5/ADC.c **** * Function Name: ADC_StopConvert
 651:.\Generated_Source\PSoC5/ADC.c **** ********************************************************************************
 652:.\Generated_Source\PSoC5/ADC.c **** *
 653:.\Generated_Source\PSoC5/ADC.c **** * Summary:
 654:.\Generated_Source\PSoC5/ADC.c **** *  Starts ADC conversion using the given mode.
 655:.\Generated_Source\PSoC5/ADC.c **** *
 656:.\Generated_Source\PSoC5/ADC.c **** * Parameters:  
 657:.\Generated_Source\PSoC5/ADC.c **** *  void
 658:.\Generated_Source\PSoC5/ADC.c **** *
 659:.\Generated_Source\PSoC5/ADC.c **** * Return: 
 660:.\Generated_Source\PSoC5/ADC.c **** *  void
 661:.\Generated_Source\PSoC5/ADC.c **** *
 662:.\Generated_Source\PSoC5/ADC.c **** * Global variables:
 663:.\Generated_Source\PSoC5/ADC.c **** *  ADC_convDone:  Modified when conversion is complete for single
 664:.\Generated_Source\PSoC5/ADC.c **** *   sample mode with resolution is above 16.
 665:.\Generated_Source\PSoC5/ADC.c **** *
 666:.\Generated_Source\PSoC5/ADC.c **** *******************************************************************************/
 667:.\Generated_Source\PSoC5/ADC.c **** void ADC_StopConvert(void) 
 668:.\Generated_Source\PSoC5/ADC.c **** {
 967              		.loc 1 668 0
 968              		.cfi_startproc
 969              		@ args = 0, pretend = 0, frame = 0
 970              		@ frame_needed = 1, uses_anonymous_args = 0
 971              		@ link register save eliminated.
 972 0000 80B4     		push	{r7}
 973              	.LCFI25:
 974              		.cfi_def_cfa_offset 4
 975 0002 00AF     		add	r7, sp, #0
 976              		.cfi_offset 7, -4
 977              	.LCFI26:
 978              		.cfi_def_cfa_register 7
 669:.\Generated_Source\PSoC5/ADC.c ****     /* Stop all conversions */
 670:.\Generated_Source\PSoC5/ADC.c ****     ADC_DEC_CR_REG &= ~ADC_DEC_START_CONV; 
 979              		.loc 1 670 0
ARM GAS  C:\Users\Victor\AppData\Local\Temp\ccOsbm6Y.s 			page 30


 980 0004 44F60063 		movw	r3, #:lower16:1073761792
 981 0008 C4F20003 		movt	r3, #:upper16:1073761792
 982 000c 44F60062 		movw	r2, #:lower16:1073761792
 983 0010 C4F20002 		movt	r2, #:upper16:1073761792
 984 0014 1278     		ldrb	r2, [r2, #0]
 985 0016 D2B2     		uxtb	r2, r2
 986 0018 02F0FE02 		and	r2, r2, #254
 987 001c 1A70     		strb	r2, [r3, #0]
 671:.\Generated_Source\PSoC5/ADC.c ****     
 672:.\Generated_Source\PSoC5/ADC.c ****     /* Software flag for checking conversion complete or not. Will be used when
 673:.\Generated_Source\PSoC5/ADC.c ****        resolution is above 16 bits and conversion mode is single sample */
 674:.\Generated_Source\PSoC5/ADC.c ****     ADC_convDone = 1u;
 988              		.loc 1 674 0
 989 001e 40F20003 		movw	r3, #:lower16:ADC_convDone
 990 0022 C0F20003 		movt	r3, #:upper16:ADC_convDone
 991 0026 4FF00102 		mov	r2, #1
 992 002a 1A70     		strb	r2, [r3, #0]
 675:.\Generated_Source\PSoC5/ADC.c **** }
 993              		.loc 1 675 0
 994 002c BD46     		mov	sp, r7
 995 002e 80BC     		pop	{r7}
 996 0030 7047     		bx	lr
 997              		.cfi_endproc
 998              	.LFE10:
 999              		.size	ADC_StopConvert, .-ADC_StopConvert
 1000 0032 00BF     		.section	.text.ADC_IsEndConversion,"ax",%progbits
 1001              		.align	2
 1002              		.global	ADC_IsEndConversion
 1003              		.thumb
 1004              		.thumb_func
 1005              		.type	ADC_IsEndConversion, %function
 1006              	ADC_IsEndConversion:
 1007              	.LFB11:
 676:.\Generated_Source\PSoC5/ADC.c **** 
 677:.\Generated_Source\PSoC5/ADC.c **** 
 678:.\Generated_Source\PSoC5/ADC.c **** /*******************************************************************************
 679:.\Generated_Source\PSoC5/ADC.c **** * Function Name: ADC_IsEndConversion
 680:.\Generated_Source\PSoC5/ADC.c **** ********************************************************************************
 681:.\Generated_Source\PSoC5/ADC.c **** *
 682:.\Generated_Source\PSoC5/ADC.c **** * Summary:
 683:.\Generated_Source\PSoC5/ADC.c **** *  Queries the ADC to see if conversion is complete
 684:.\Generated_Source\PSoC5/ADC.c **** *
 685:.\Generated_Source\PSoC5/ADC.c **** * Parameters:  
 686:.\Generated_Source\PSoC5/ADC.c **** *  wMode:  Wait mode, 0 if return with answer immediately.
 687:.\Generated_Source\PSoC5/ADC.c **** *                     1 if wait until conversion is complete, then return.
 688:.\Generated_Source\PSoC5/ADC.c **** *
 689:.\Generated_Source\PSoC5/ADC.c **** * Return: 
 690:.\Generated_Source\PSoC5/ADC.c **** *  uint8 status:  0 =>  Conversion not complete.
 691:.\Generated_Source\PSoC5/ADC.c **** *                 1 =>  Conversion complete.
 692:.\Generated_Source\PSoC5/ADC.c **** *
 693:.\Generated_Source\PSoC5/ADC.c **** * Global variables:
 694:.\Generated_Source\PSoC5/ADC.c **** *  ADC_convDone:  Used to check whether conversion is complete
 695:.\Generated_Source\PSoC5/ADC.c **** *  or not for single sample mode with resolution is above 16
 696:.\Generated_Source\PSoC5/ADC.c **** *
 697:.\Generated_Source\PSoC5/ADC.c **** *******************************************************************************/
 698:.\Generated_Source\PSoC5/ADC.c **** uint8 ADC_IsEndConversion(uint8 wMode) 
 699:.\Generated_Source\PSoC5/ADC.c **** {
ARM GAS  C:\Users\Victor\AppData\Local\Temp\ccOsbm6Y.s 			page 31


 1008              		.loc 1 699 0
 1009              		.cfi_startproc
 1010              		@ args = 0, pretend = 0, frame = 16
 1011              		@ frame_needed = 1, uses_anonymous_args = 0
 1012              		@ link register save eliminated.
 1013 0000 80B4     		push	{r7}
 1014              	.LCFI27:
 1015              		.cfi_def_cfa_offset 4
 1016 0002 85B0     		sub	sp, sp, #20
 1017              	.LCFI28:
 1018              		.cfi_def_cfa_offset 24
 1019 0004 00AF     		add	r7, sp, #0
 1020              		.cfi_offset 7, -4
 1021              	.LCFI29:
 1022              		.cfi_def_cfa_register 7
 1023 0006 0346     		mov	r3, r0
 1024 0008 FB71     		strb	r3, [r7, #7]
 700:.\Generated_Source\PSoC5/ADC.c ****     uint8 status;
 701:.\Generated_Source\PSoC5/ADC.c ****         
 702:.\Generated_Source\PSoC5/ADC.c ****     /* Check for stop convert if conversion mode is Single Sample with 
 703:.\Generated_Source\PSoC5/ADC.c ****        resolution above 16 bit */
 704:.\Generated_Source\PSoC5/ADC.c ****     if(ADC_stopConversion == 1u)
 1025              		.loc 1 704 0
 1026 000a 40F20003 		movw	r3, #:lower16:ADC_stopConversion
 1027 000e C0F20003 		movt	r3, #:upper16:ADC_stopConversion
 1028 0012 1B78     		ldrb	r3, [r3, #0]
 1029 0014 DBB2     		uxtb	r3, r3
 1030 0016 012B     		cmp	r3, #1
 1031 0018 0CD1     		bne	.L44
 1032              	.L46:
 705:.\Generated_Source\PSoC5/ADC.c ****     {
 706:.\Generated_Source\PSoC5/ADC.c ****         do
 707:.\Generated_Source\PSoC5/ADC.c ****         {
 708:.\Generated_Source\PSoC5/ADC.c ****             status = ADC_convDone;
 1033              		.loc 1 708 0
 1034 001a 40F20003 		movw	r3, #:lower16:ADC_convDone
 1035 001e C0F20003 		movt	r3, #:upper16:ADC_convDone
 1036 0022 1B78     		ldrb	r3, [r3, #0]
 1037 0024 FB73     		strb	r3, [r7, #15]
 709:.\Generated_Source\PSoC5/ADC.c ****         } while((status != ADC_DEC_CONV_DONE) && (wMode == ADC_WAIT_FOR_RESULT));
 1038              		.loc 1 709 0
 1039 0026 FB7B     		ldrb	r3, [r7, #15]	@ zero_extendqisi2
 1040 0028 012B     		cmp	r3, #1
 1041 002a 12D0     		beq	.L47
 1042 002c FB79     		ldrb	r3, [r7, #7]	@ zero_extendqisi2
 1043 002e 002B     		cmp	r3, #0
 1044 0030 F3D0     		beq	.L46
 1045 0032 0EE0     		b	.L47
 1046              	.L44:
 710:.\Generated_Source\PSoC5/ADC.c ****     }
 711:.\Generated_Source\PSoC5/ADC.c ****     else
 712:.\Generated_Source\PSoC5/ADC.c ****     {
 713:.\Generated_Source\PSoC5/ADC.c ****         do 
 714:.\Generated_Source\PSoC5/ADC.c ****         {
 715:.\Generated_Source\PSoC5/ADC.c ****             status = ADC_DEC_SR_REG & ADC_DEC_CONV_DONE;
 1047              		.loc 1 715 0
 1048 0034 44F60163 		movw	r3, #:lower16:1073761793
ARM GAS  C:\Users\Victor\AppData\Local\Temp\ccOsbm6Y.s 			page 32


 1049 0038 C4F20003 		movt	r3, #:upper16:1073761793
 1050 003c 1B78     		ldrb	r3, [r3, #0]
 1051 003e DBB2     		uxtb	r3, r3
 1052 0040 03F00103 		and	r3, r3, #1
 1053 0044 FB73     		strb	r3, [r7, #15]
 716:.\Generated_Source\PSoC5/ADC.c ****         } while((status != ADC_DEC_CONV_DONE) && (wMode == ADC_WAIT_FOR_RESULT));
 1054              		.loc 1 716 0
 1055 0046 FB7B     		ldrb	r3, [r7, #15]	@ zero_extendqisi2
 1056 0048 012B     		cmp	r3, #1
 1057 004a 02D0     		beq	.L47
 1058 004c FB79     		ldrb	r3, [r7, #7]	@ zero_extendqisi2
 1059 004e 002B     		cmp	r3, #0
 1060 0050 F0D0     		beq	.L44
 1061              	.L47:
 717:.\Generated_Source\PSoC5/ADC.c ****     }
 718:.\Generated_Source\PSoC5/ADC.c ****     return(status);
 1062              		.loc 1 718 0
 1063 0052 FB7B     		ldrb	r3, [r7, #15]	@ zero_extendqisi2
 719:.\Generated_Source\PSoC5/ADC.c **** }
 1064              		.loc 1 719 0
 1065 0054 1846     		mov	r0, r3
 1066 0056 07F11407 		add	r7, r7, #20
 1067 005a BD46     		mov	sp, r7
 1068 005c 80BC     		pop	{r7}
 1069 005e 7047     		bx	lr
 1070              		.cfi_endproc
 1071              	.LFE11:
 1072              		.size	ADC_IsEndConversion, .-ADC_IsEndConversion
 1073              		.section	.text.ADC_GetResult8,"ax",%progbits
 1074              		.align	2
 1075              		.global	ADC_GetResult8
 1076              		.thumb
 1077              		.thumb_func
 1078              		.type	ADC_GetResult8, %function
 1079              	ADC_GetResult8:
 1080              	.LFB12:
 720:.\Generated_Source\PSoC5/ADC.c **** 
 721:.\Generated_Source\PSoC5/ADC.c **** 
 722:.\Generated_Source\PSoC5/ADC.c **** /*******************************************************************************
 723:.\Generated_Source\PSoC5/ADC.c **** * Function Name: ADC_GetResult8
 724:.\Generated_Source\PSoC5/ADC.c **** ********************************************************************************
 725:.\Generated_Source\PSoC5/ADC.c **** *
 726:.\Generated_Source\PSoC5/ADC.c **** * Summary:
 727:.\Generated_Source\PSoC5/ADC.c **** *  Returns an 8-bit result or the LSB of the last conversion.
 728:.\Generated_Source\PSoC5/ADC.c **** *
 729:.\Generated_Source\PSoC5/ADC.c **** * Parameters:  
 730:.\Generated_Source\PSoC5/ADC.c **** *  void
 731:.\Generated_Source\PSoC5/ADC.c **** *
 732:.\Generated_Source\PSoC5/ADC.c **** * Return: 
 733:.\Generated_Source\PSoC5/ADC.c **** *  int8:  ADC result.
 734:.\Generated_Source\PSoC5/ADC.c **** *
 735:.\Generated_Source\PSoC5/ADC.c **** *******************************************************************************/
 736:.\Generated_Source\PSoC5/ADC.c **** int8 ADC_GetResult8( void ) 
 737:.\Generated_Source\PSoC5/ADC.c **** {
 1081              		.loc 1 737 0
 1082              		.cfi_startproc
 1083              		@ args = 0, pretend = 0, frame = 0
ARM GAS  C:\Users\Victor\AppData\Local\Temp\ccOsbm6Y.s 			page 33


 1084              		@ frame_needed = 1, uses_anonymous_args = 0
 1085              		@ link register save eliminated.
 1086 0000 80B4     		push	{r7}
 1087              	.LCFI30:
 1088              		.cfi_def_cfa_offset 4
 1089 0002 00AF     		add	r7, sp, #0
 1090              		.cfi_offset 7, -4
 1091              	.LCFI31:
 1092              		.cfi_def_cfa_register 7
 738:.\Generated_Source\PSoC5/ADC.c ****      return( ADC_DEC_SAMP_REG );
 1093              		.loc 1 738 0
 1094 0004 44F61063 		movw	r3, #:lower16:1073761808
 1095 0008 C4F20003 		movt	r3, #:upper16:1073761808
 1096 000c 1B78     		ldrb	r3, [r3, #0]
 1097 000e DBB2     		uxtb	r3, r3
 1098 0010 5BB2     		sxtb	r3, r3
 739:.\Generated_Source\PSoC5/ADC.c **** }
 1099              		.loc 1 739 0
 1100 0012 1846     		mov	r0, r3
 1101 0014 BD46     		mov	sp, r7
 1102 0016 80BC     		pop	{r7}
 1103 0018 7047     		bx	lr
 1104              		.cfi_endproc
 1105              	.LFE12:
 1106              		.size	ADC_GetResult8, .-ADC_GetResult8
 1107 001a 00BF     		.section	.text.ADC_GetResult16,"ax",%progbits
 1108              		.align	2
 1109              		.global	ADC_GetResult16
 1110              		.thumb
 1111              		.thumb_func
 1112              		.type	ADC_GetResult16, %function
 1113              	ADC_GetResult16:
 1114              	.LFB13:
 740:.\Generated_Source\PSoC5/ADC.c **** 
 741:.\Generated_Source\PSoC5/ADC.c **** 
 742:.\Generated_Source\PSoC5/ADC.c **** /*******************************************************************************
 743:.\Generated_Source\PSoC5/ADC.c **** * Function Name: ADC_GetResult16
 744:.\Generated_Source\PSoC5/ADC.c **** ********************************************************************************
 745:.\Generated_Source\PSoC5/ADC.c **** *
 746:.\Generated_Source\PSoC5/ADC.c **** * Summary:
 747:.\Generated_Source\PSoC5/ADC.c **** *  Returns a 16-bit result from the last ADC conversion.
 748:.\Generated_Source\PSoC5/ADC.c **** *
 749:.\Generated_Source\PSoC5/ADC.c **** * Parameters:  
 750:.\Generated_Source\PSoC5/ADC.c **** *   void
 751:.\Generated_Source\PSoC5/ADC.c **** *
 752:.\Generated_Source\PSoC5/ADC.c **** * Return: 
 753:.\Generated_Source\PSoC5/ADC.c **** *  int16:  ADC result.
 754:.\Generated_Source\PSoC5/ADC.c **** *
 755:.\Generated_Source\PSoC5/ADC.c **** *******************************************************************************/
 756:.\Generated_Source\PSoC5/ADC.c **** int16 ADC_GetResult16(void) 
 757:.\Generated_Source\PSoC5/ADC.c **** {
 1115              		.loc 1 757 0
 1116              		.cfi_startproc
 1117              		@ args = 0, pretend = 0, frame = 8
 1118              		@ frame_needed = 1, uses_anonymous_args = 0
 1119              		@ link register save eliminated.
 1120 0000 80B4     		push	{r7}
ARM GAS  C:\Users\Victor\AppData\Local\Temp\ccOsbm6Y.s 			page 34


 1121              	.LCFI32:
 1122              		.cfi_def_cfa_offset 4
 1123 0002 83B0     		sub	sp, sp, #12
 1124              	.LCFI33:
 1125              		.cfi_def_cfa_offset 16
 1126 0004 00AF     		add	r7, sp, #0
 1127              		.cfi_offset 7, -4
 1128              	.LCFI34:
 1129              		.cfi_def_cfa_register 7
 758:.\Generated_Source\PSoC5/ADC.c ****     uint16 result;
 759:.\Generated_Source\PSoC5/ADC.c ****     
 760:.\Generated_Source\PSoC5/ADC.c ****     #if (CY_PSOC3)
 761:.\Generated_Source\PSoC5/ADC.c ****         result = ADC_DEC_SAMPM_REG ;
 762:.\Generated_Source\PSoC5/ADC.c ****         result = (result << 8 ) | ADC_DEC_SAMP_REG;
 763:.\Generated_Source\PSoC5/ADC.c ****     #else
 764:.\Generated_Source\PSoC5/ADC.c ****         result = (CY_GET_REG16(ADC_DEC_SAMP_PTR));
 1130              		.loc 1 764 0
 1131 0006 44F61063 		movw	r3, #:lower16:1073761808
 1132 000a C4F20003 		movt	r3, #:upper16:1073761808
 1133 000e 1B88     		ldrh	r3, [r3, #0]	@ movhi
 1134 0010 FB80     		strh	r3, [r7, #6]	@ movhi
 765:.\Generated_Source\PSoC5/ADC.c ****     #endif /* CY_PSOC3 */
 766:.\Generated_Source\PSoC5/ADC.c ****     
 767:.\Generated_Source\PSoC5/ADC.c ****     return result;
 1135              		.loc 1 767 0
 1136 0012 FB88     		ldrh	r3, [r7, #6]
 1137 0014 1BB2     		sxth	r3, r3
 768:.\Generated_Source\PSoC5/ADC.c **** }
 1138              		.loc 1 768 0
 1139 0016 1846     		mov	r0, r3
 1140 0018 07F10C07 		add	r7, r7, #12
 1141 001c BD46     		mov	sp, r7
 1142 001e 80BC     		pop	{r7}
 1143 0020 7047     		bx	lr
 1144              		.cfi_endproc
 1145              	.LFE13:
 1146              		.size	ADC_GetResult16, .-ADC_GetResult16
 1147 0022 00BF     		.section	.text.ADC_GetResult32,"ax",%progbits
 1148              		.align	2
 1149              		.global	ADC_GetResult32
 1150              		.thumb
 1151              		.thumb_func
 1152              		.type	ADC_GetResult32, %function
 1153              	ADC_GetResult32:
 1154              	.LFB14:
 769:.\Generated_Source\PSoC5/ADC.c **** 
 770:.\Generated_Source\PSoC5/ADC.c **** 
 771:.\Generated_Source\PSoC5/ADC.c **** /*******************************************************************************
 772:.\Generated_Source\PSoC5/ADC.c **** * Function Name: ADC_GetResult32
 773:.\Generated_Source\PSoC5/ADC.c **** ********************************************************************************
 774:.\Generated_Source\PSoC5/ADC.c **** *
 775:.\Generated_Source\PSoC5/ADC.c **** * Summary:
 776:.\Generated_Source\PSoC5/ADC.c **** *  Returns an 32-bit result from ADC
 777:.\Generated_Source\PSoC5/ADC.c **** *
 778:.\Generated_Source\PSoC5/ADC.c **** * Parameters:  
 779:.\Generated_Source\PSoC5/ADC.c **** *  void
 780:.\Generated_Source\PSoC5/ADC.c **** *
ARM GAS  C:\Users\Victor\AppData\Local\Temp\ccOsbm6Y.s 			page 35


 781:.\Generated_Source\PSoC5/ADC.c **** * Return: 
 782:.\Generated_Source\PSoC5/ADC.c **** *  int32:  ADC result.
 783:.\Generated_Source\PSoC5/ADC.c **** *
 784:.\Generated_Source\PSoC5/ADC.c **** *******************************************************************************/
 785:.\Generated_Source\PSoC5/ADC.c **** int32 ADC_GetResult32(void) 
 786:.\Generated_Source\PSoC5/ADC.c **** {
 1155              		.loc 1 786 0
 1156              		.cfi_startproc
 1157              		@ args = 0, pretend = 0, frame = 8
 1158              		@ frame_needed = 1, uses_anonymous_args = 0
 1159              		@ link register save eliminated.
 1160 0000 80B4     		push	{r7}
 1161              	.LCFI35:
 1162              		.cfi_def_cfa_offset 4
 1163 0002 83B0     		sub	sp, sp, #12
 1164              	.LCFI36:
 1165              		.cfi_def_cfa_offset 16
 1166 0004 00AF     		add	r7, sp, #0
 1167              		.cfi_offset 7, -4
 1168              	.LCFI37:
 1169              		.cfi_def_cfa_register 7
 787:.\Generated_Source\PSoC5/ADC.c ****     uint32 result;
 788:.\Generated_Source\PSoC5/ADC.c **** 
 789:.\Generated_Source\PSoC5/ADC.c ****     #if (CY_PSOC3)
 790:.\Generated_Source\PSoC5/ADC.c ****         /* to make upper bits fo result to 0 */
 791:.\Generated_Source\PSoC5/ADC.c ****         result = (int8) (0xff & ADC_DEC_SAMPH_REG); 
 792:.\Generated_Source\PSoC5/ADC.c ****         result = (result << 8) | ADC_DEC_SAMPM_REG;
 793:.\Generated_Source\PSoC5/ADC.c ****         result = (result << 8) | ADC_DEC_SAMP_REG;
 794:.\Generated_Source\PSoC5/ADC.c ****     #else
 795:.\Generated_Source\PSoC5/ADC.c ****         result = CY_GET_REG16(ADC_DEC_SAMPH_PTR);
 1170              		.loc 1 795 0
 1171 0006 44F61263 		movw	r3, #:lower16:1073761810
 1172 000a C4F20003 		movt	r3, #:upper16:1073761810
 1173 000e 1B88     		ldrh	r3, [r3, #0]	@ movhi
 1174 0010 9BB2     		uxth	r3, r3
 1175 0012 7B60     		str	r3, [r7, #4]
 796:.\Generated_Source\PSoC5/ADC.c ****         result = (result << 16) | (CY_GET_REG16(ADC_DEC_SAMP_PTR));
 1176              		.loc 1 796 0
 1177 0014 7B68     		ldr	r3, [r7, #4]
 1178 0016 4FEA0342 		lsl	r2, r3, #16
 1179 001a 44F61063 		movw	r3, #:lower16:1073761808
 1180 001e C4F20003 		movt	r3, #:upper16:1073761808
 1181 0022 1B88     		ldrh	r3, [r3, #0]	@ movhi
 1182 0024 9BB2     		uxth	r3, r3
 1183 0026 42EA0303 		orr	r3, r2, r3
 1184 002a 7B60     		str	r3, [r7, #4]
 797:.\Generated_Source\PSoC5/ADC.c ****     #endif /* CY_PSOC3 */
 798:.\Generated_Source\PSoC5/ADC.c ****     
 799:.\Generated_Source\PSoC5/ADC.c ****     return result;
 1185              		.loc 1 799 0
 1186 002c 7B68     		ldr	r3, [r7, #4]
 800:.\Generated_Source\PSoC5/ADC.c **** }
 1187              		.loc 1 800 0
 1188 002e 1846     		mov	r0, r3
 1189 0030 07F10C07 		add	r7, r7, #12
 1190 0034 BD46     		mov	sp, r7
 1191 0036 80BC     		pop	{r7}
ARM GAS  C:\Users\Victor\AppData\Local\Temp\ccOsbm6Y.s 			page 36


 1192 0038 7047     		bx	lr
 1193              		.cfi_endproc
 1194              	.LFE14:
 1195              		.size	ADC_GetResult32, .-ADC_GetResult32
 1196 003a 00BF     		.section	.text.ADC_SetOffset,"ax",%progbits
 1197              		.align	2
 1198              		.global	ADC_SetOffset
 1199              		.thumb
 1200              		.thumb_func
 1201              		.type	ADC_SetOffset, %function
 1202              	ADC_SetOffset:
 1203              	.LFB15:
 801:.\Generated_Source\PSoC5/ADC.c **** 
 802:.\Generated_Source\PSoC5/ADC.c **** 
 803:.\Generated_Source\PSoC5/ADC.c **** /*******************************************************************************
 804:.\Generated_Source\PSoC5/ADC.c **** * Function Name: ADC_SetOffset
 805:.\Generated_Source\PSoC5/ADC.c **** ********************************************************************************
 806:.\Generated_Source\PSoC5/ADC.c **** *
 807:.\Generated_Source\PSoC5/ADC.c **** * Summary:
 808:.\Generated_Source\PSoC5/ADC.c **** *  This function sets the offset for voltage readings.
 809:.\Generated_Source\PSoC5/ADC.c **** *
 810:.\Generated_Source\PSoC5/ADC.c **** * Parameters:  
 811:.\Generated_Source\PSoC5/ADC.c **** *  int32:  offset  Offset in counts
 812:.\Generated_Source\PSoC5/ADC.c **** *
 813:.\Generated_Source\PSoC5/ADC.c **** * Return: 
 814:.\Generated_Source\PSoC5/ADC.c **** *  void
 815:.\Generated_Source\PSoC5/ADC.c **** *
 816:.\Generated_Source\PSoC5/ADC.c **** * Global variables:
 817:.\Generated_Source\PSoC5/ADC.c **** *  ADC_Offset:  Modified to set the user provided offset. This 
 818:.\Generated_Source\PSoC5/ADC.c **** *  variable is used for offset calibration purpose.
 819:.\Generated_Source\PSoC5/ADC.c **** *  Affects the ADC_CountsTo_Volts, 
 820:.\Generated_Source\PSoC5/ADC.c **** *  ADC_CountsTo_mVolts, ADC_CountsTo_uVolts functions 
 821:.\Generated_Source\PSoC5/ADC.c **** *  by subtracting the given offset. 
 822:.\Generated_Source\PSoC5/ADC.c **** *
 823:.\Generated_Source\PSoC5/ADC.c **** *******************************************************************************/
 824:.\Generated_Source\PSoC5/ADC.c **** void ADC_SetOffset(int32 offset) 
 825:.\Generated_Source\PSoC5/ADC.c **** {
 1204              		.loc 1 825 0
 1205              		.cfi_startproc
 1206              		@ args = 0, pretend = 0, frame = 8
 1207              		@ frame_needed = 1, uses_anonymous_args = 0
 1208              		@ link register save eliminated.
 1209 0000 80B4     		push	{r7}
 1210              	.LCFI38:
 1211              		.cfi_def_cfa_offset 4
 1212 0002 83B0     		sub	sp, sp, #12
 1213              	.LCFI39:
 1214              		.cfi_def_cfa_offset 16
 1215 0004 00AF     		add	r7, sp, #0
 1216              		.cfi_offset 7, -4
 1217              	.LCFI40:
 1218              		.cfi_def_cfa_register 7
 1219 0006 7860     		str	r0, [r7, #4]
 826:.\Generated_Source\PSoC5/ADC.c ****  
 827:.\Generated_Source\PSoC5/ADC.c ****     ADC_Offset = offset;
 1220              		.loc 1 827 0
 1221 0008 40F20003 		movw	r3, #:lower16:ADC_Offset
ARM GAS  C:\Users\Victor\AppData\Local\Temp\ccOsbm6Y.s 			page 37


 1222 000c C0F20003 		movt	r3, #:upper16:ADC_Offset
 1223 0010 7A68     		ldr	r2, [r7, #4]
 1224 0012 1A60     		str	r2, [r3, #0]
 828:.\Generated_Source\PSoC5/ADC.c **** }
 1225              		.loc 1 828 0
 1226 0014 07F10C07 		add	r7, r7, #12
 1227 0018 BD46     		mov	sp, r7
 1228 001a 80BC     		pop	{r7}
 1229 001c 7047     		bx	lr
 1230              		.cfi_endproc
 1231              	.LFE15:
 1232              		.size	ADC_SetOffset, .-ADC_SetOffset
 1233 001e 00BF     		.section	.text.ADC_SetGain,"ax",%progbits
 1234              		.align	2
 1235              		.global	ADC_SetGain
 1236              		.thumb
 1237              		.thumb_func
 1238              		.type	ADC_SetGain, %function
 1239              	ADC_SetGain:
 1240              	.LFB16:
 829:.\Generated_Source\PSoC5/ADC.c **** 
 830:.\Generated_Source\PSoC5/ADC.c **** 
 831:.\Generated_Source\PSoC5/ADC.c **** /*******************************************************************************
 832:.\Generated_Source\PSoC5/ADC.c **** * Function Name: ADC_SetGain
 833:.\Generated_Source\PSoC5/ADC.c **** ********************************************************************************
 834:.\Generated_Source\PSoC5/ADC.c **** *
 835:.\Generated_Source\PSoC5/ADC.c **** * Summary:
 836:.\Generated_Source\PSoC5/ADC.c **** *  This function sets the ADC gain in counts per volt.
 837:.\Generated_Source\PSoC5/ADC.c **** *
 838:.\Generated_Source\PSoC5/ADC.c **** * Parameters:  
 839:.\Generated_Source\PSoC5/ADC.c **** *  int32:  offset  Offset in counts
 840:.\Generated_Source\PSoC5/ADC.c **** *
 841:.\Generated_Source\PSoC5/ADC.c **** * Return: 
 842:.\Generated_Source\PSoC5/ADC.c **** *  void 
 843:.\Generated_Source\PSoC5/ADC.c **** *
 844:.\Generated_Source\PSoC5/ADC.c **** * Global variables:
 845:.\Generated_Source\PSoC5/ADC.c **** *  ADC_CountsPerVolt:  modified to set the ADC gain in counts 
 846:.\Generated_Source\PSoC5/ADC.c **** *   per volt.
 847:.\Generated_Source\PSoC5/ADC.c **** *
 848:.\Generated_Source\PSoC5/ADC.c **** *******************************************************************************/
 849:.\Generated_Source\PSoC5/ADC.c **** void ADC_SetGain(int32 adcGain) 
 850:.\Generated_Source\PSoC5/ADC.c **** {
 1241              		.loc 1 850 0
 1242              		.cfi_startproc
 1243              		@ args = 0, pretend = 0, frame = 8
 1244              		@ frame_needed = 1, uses_anonymous_args = 0
 1245              		@ link register save eliminated.
 1246 0000 80B4     		push	{r7}
 1247              	.LCFI41:
 1248              		.cfi_def_cfa_offset 4
 1249 0002 83B0     		sub	sp, sp, #12
 1250              	.LCFI42:
 1251              		.cfi_def_cfa_offset 16
 1252 0004 00AF     		add	r7, sp, #0
 1253              		.cfi_offset 7, -4
 1254              	.LCFI43:
 1255              		.cfi_def_cfa_register 7
ARM GAS  C:\Users\Victor\AppData\Local\Temp\ccOsbm6Y.s 			page 38


 1256 0006 7860     		str	r0, [r7, #4]
 851:.\Generated_Source\PSoC5/ADC.c ****  
 852:.\Generated_Source\PSoC5/ADC.c ****     ADC_CountsPerVolt = adcGain;
 1257              		.loc 1 852 0
 1258 0008 40F20003 		movw	r3, #:lower16:ADC_CountsPerVolt
 1259 000c C0F20003 		movt	r3, #:upper16:ADC_CountsPerVolt
 1260 0010 7A68     		ldr	r2, [r7, #4]
 1261 0012 1A60     		str	r2, [r3, #0]
 853:.\Generated_Source\PSoC5/ADC.c **** }
 1262              		.loc 1 853 0
 1263 0014 07F10C07 		add	r7, r7, #12
 1264 0018 BD46     		mov	sp, r7
 1265 001a 80BC     		pop	{r7}
 1266 001c 7047     		bx	lr
 1267              		.cfi_endproc
 1268              	.LFE16:
 1269              		.size	ADC_SetGain, .-ADC_SetGain
 1270 001e 00BF     		.section	.text.ADC_CountsTo_mVolts,"ax",%progbits
 1271              		.align	2
 1272              		.global	ADC_CountsTo_mVolts
 1273              		.thumb
 1274              		.thumb_func
 1275              		.type	ADC_CountsTo_mVolts, %function
 1276              	ADC_CountsTo_mVolts:
 1277              	.LFB17:
 854:.\Generated_Source\PSoC5/ADC.c **** 
 855:.\Generated_Source\PSoC5/ADC.c **** 
 856:.\Generated_Source\PSoC5/ADC.c **** /*******************************************************************************
 857:.\Generated_Source\PSoC5/ADC.c **** * Function Name: ADC_CountsTo_mVolts
 858:.\Generated_Source\PSoC5/ADC.c **** ********************************************************************************
 859:.\Generated_Source\PSoC5/ADC.c **** *
 860:.\Generated_Source\PSoC5/ADC.c **** * Summary:
 861:.\Generated_Source\PSoC5/ADC.c **** *  This function converts ADC counts to mVolts.
 862:.\Generated_Source\PSoC5/ADC.c **** *
 863:.\Generated_Source\PSoC5/ADC.c **** * Parameters:  
 864:.\Generated_Source\PSoC5/ADC.c **** *  int32:  adcCounts   Reading from ADC.
 865:.\Generated_Source\PSoC5/ADC.c **** *
 866:.\Generated_Source\PSoC5/ADC.c **** * Return: 
 867:.\Generated_Source\PSoC5/ADC.c **** *  int32:  Result in mVolts
 868:.\Generated_Source\PSoC5/ADC.c **** *
 869:.\Generated_Source\PSoC5/ADC.c **** * Global variables:
 870:.\Generated_Source\PSoC5/ADC.c **** *  ADC_CountsPerVolt:  used to convert ADC counts to mVolts.
 871:.\Generated_Source\PSoC5/ADC.c **** *  ADC_Offset:  Used as the offset while converting ADC counts 
 872:.\Generated_Source\PSoC5/ADC.c **** *   to mVolts.
 873:.\Generated_Source\PSoC5/ADC.c **** *
 874:.\Generated_Source\PSoC5/ADC.c **** *******************************************************************************/
 875:.\Generated_Source\PSoC5/ADC.c **** int16 ADC_CountsTo_mVolts( int32 adcCounts) 
 876:.\Generated_Source\PSoC5/ADC.c **** {
 1278              		.loc 1 876 0
 1279              		.cfi_startproc
 1280              		@ args = 0, pretend = 0, frame = 24
 1281              		@ frame_needed = 1, uses_anonymous_args = 0
 1282              		@ link register save eliminated.
 1283 0000 80B4     		push	{r7}
 1284              	.LCFI44:
 1285              		.cfi_def_cfa_offset 4
 1286 0002 87B0     		sub	sp, sp, #28
ARM GAS  C:\Users\Victor\AppData\Local\Temp\ccOsbm6Y.s 			page 39


 1287              	.LCFI45:
 1288              		.cfi_def_cfa_offset 32
 1289 0004 00AF     		add	r7, sp, #0
 1290              		.cfi_offset 7, -4
 1291              	.LCFI46:
 1292              		.cfi_def_cfa_register 7
 1293 0006 7860     		str	r0, [r7, #4]
 877:.\Generated_Source\PSoC5/ADC.c **** 
 878:.\Generated_Source\PSoC5/ADC.c ****     int32 mVolts = 0;
 1294              		.loc 1 878 0
 1295 0008 4FF00003 		mov	r3, #0
 1296 000c BB60     		str	r3, [r7, #8]
 879:.\Generated_Source\PSoC5/ADC.c ****     int32 A, B;
 880:.\Generated_Source\PSoC5/ADC.c **** 	uint8 resolution = 16;
 1297              		.loc 1 880 0
 1298 000e 4FF01003 		mov	r3, #16
 1299 0012 FB75     		strb	r3, [r7, #23]
 881:.\Generated_Source\PSoC5/ADC.c **** 
 882:.\Generated_Source\PSoC5/ADC.c ****     /* Subtract ADC offset */
 883:.\Generated_Source\PSoC5/ADC.c ****     adcCounts -= ADC_Offset;
 1300              		.loc 1 883 0
 1301 0014 40F20003 		movw	r3, #:lower16:ADC_Offset
 1302 0018 C0F20003 		movt	r3, #:upper16:ADC_Offset
 1303 001c 1B68     		ldr	r3, [r3, #0]
 1304 001e 7A68     		ldr	r2, [r7, #4]
 1305 0020 C3EB0203 		rsb	r3, r3, r2
 1306 0024 7B60     		str	r3, [r7, #4]
 884:.\Generated_Source\PSoC5/ADC.c **** 	
 885:.\Generated_Source\PSoC5/ADC.c **** 	/* Set the resolution based on the configuration */
 886:.\Generated_Source\PSoC5/ADC.c **** 	if (ADC_Config == ADC_CFG1)
 1307              		.loc 1 886 0
 1308 0026 40F20003 		movw	r3, #:lower16:ADC_Config
 1309 002a C0F20003 		movt	r3, #:upper16:ADC_Config
 1310 002e 1B78     		ldrb	r3, [r3, #0]
 1311 0030 DBB2     		uxtb	r3, r3
 1312 0032 012B     		cmp	r3, #1
 1313 0034 03D1     		bne	.L60
 887:.\Generated_Source\PSoC5/ADC.c **** 	{
 888:.\Generated_Source\PSoC5/ADC.c ****         resolution = ADC_CFG1_RESOLUTION;
 1314              		.loc 1 888 0
 1315 0036 4FF01003 		mov	r3, #16
 1316 003a FB75     		strb	r3, [r7, #23]
 1317 003c 1AE0     		b	.L61
 1318              	.L60:
 889:.\Generated_Source\PSoC5/ADC.c **** 	}	
 890:.\Generated_Source\PSoC5/ADC.c **** 	else if (ADC_Config == ADC_CFG2)
 1319              		.loc 1 890 0
 1320 003e 40F20003 		movw	r3, #:lower16:ADC_Config
 1321 0042 C0F20003 		movt	r3, #:upper16:ADC_Config
 1322 0046 1B78     		ldrb	r3, [r3, #0]
 1323 0048 DBB2     		uxtb	r3, r3
 1324 004a 022B     		cmp	r3, #2
 1325 004c 03D1     		bne	.L62
 891:.\Generated_Source\PSoC5/ADC.c **** 	{
 892:.\Generated_Source\PSoC5/ADC.c **** 	    resolution = ADC_CFG2_RESOLUTION;
 1326              		.loc 1 892 0
 1327 004e 4FF01003 		mov	r3, #16
ARM GAS  C:\Users\Victor\AppData\Local\Temp\ccOsbm6Y.s 			page 40


 1328 0052 FB75     		strb	r3, [r7, #23]
 1329 0054 0EE0     		b	.L61
 1330              	.L62:
 893:.\Generated_Source\PSoC5/ADC.c **** 	}
 894:.\Generated_Source\PSoC5/ADC.c **** 	else if (ADC_Config == ADC_CFG3)
 1331              		.loc 1 894 0
 1332 0056 40F20003 		movw	r3, #:lower16:ADC_Config
 1333 005a C0F20003 		movt	r3, #:upper16:ADC_Config
 1334 005e 1B78     		ldrb	r3, [r3, #0]
 1335 0060 DBB2     		uxtb	r3, r3
 1336 0062 032B     		cmp	r3, #3
 1337 0064 03D1     		bne	.L63
 895:.\Generated_Source\PSoC5/ADC.c **** 	{
 896:.\Generated_Source\PSoC5/ADC.c **** 	    resolution = ADC_CFG3_RESOLUTION;
 1338              		.loc 1 896 0
 1339 0066 4FF01003 		mov	r3, #16
 1340 006a FB75     		strb	r3, [r7, #23]
 1341 006c 02E0     		b	.L61
 1342              	.L63:
 897:.\Generated_Source\PSoC5/ADC.c **** 	}
 898:.\Generated_Source\PSoC5/ADC.c **** 	else
 899:.\Generated_Source\PSoC5/ADC.c **** 	{
 900:.\Generated_Source\PSoC5/ADC.c **** 	    resolution = ADC_CFG4_RESOLUTION;
 1343              		.loc 1 900 0
 1344 006e 4FF01003 		mov	r3, #16
 1345 0072 FB75     		strb	r3, [r7, #23]
 1346              	.L61:
 901:.\Generated_Source\PSoC5/ADC.c **** 	}
 902:.\Generated_Source\PSoC5/ADC.c **** 	
 903:.\Generated_Source\PSoC5/ADC.c ****     if(resolution < 17)
 1347              		.loc 1 903 0
 1348 0074 FB7D     		ldrb	r3, [r7, #23]	@ zero_extendqisi2
 1349 0076 102B     		cmp	r3, #16
 1350 0078 06D8     		bhi	.L64
 904:.\Generated_Source\PSoC5/ADC.c ****     {
 905:.\Generated_Source\PSoC5/ADC.c ****         A = 1000;
 1351              		.loc 1 905 0
 1352 007a 4FF47A73 		mov	r3, #1000
 1353 007e FB60     		str	r3, [r7, #12]
 906:.\Generated_Source\PSoC5/ADC.c ****         B = 1;
 1354              		.loc 1 906 0
 1355 0080 4FF00103 		mov	r3, #1
 1356 0084 3B61     		str	r3, [r7, #16]
 1357 0086 05E0     		b	.L65
 1358              	.L64:
 907:.\Generated_Source\PSoC5/ADC.c ****     }
 908:.\Generated_Source\PSoC5/ADC.c ****     else
 909:.\Generated_Source\PSoC5/ADC.c ****     {
 910:.\Generated_Source\PSoC5/ADC.c ****         A = 100;
 1359              		.loc 1 910 0
 1360 0088 4FF06403 		mov	r3, #100
 1361 008c FB60     		str	r3, [r7, #12]
 911:.\Generated_Source\PSoC5/ADC.c ****         B = 10;
 1362              		.loc 1 911 0
 1363 008e 4FF00A03 		mov	r3, #10
 1364 0092 3B61     		str	r3, [r7, #16]
 1365              	.L65:
ARM GAS  C:\Users\Victor\AppData\Local\Temp\ccOsbm6Y.s 			page 41


 912:.\Generated_Source\PSoC5/ADC.c ****     }
 913:.\Generated_Source\PSoC5/ADC.c **** 
 914:.\Generated_Source\PSoC5/ADC.c ****     mVolts = ((A * adcCounts) / ((int32)ADC_CountsPerVolt/B)) ;   
 1366              		.loc 1 914 0
 1367 0094 FB68     		ldr	r3, [r7, #12]
 1368 0096 7A68     		ldr	r2, [r7, #4]
 1369 0098 02FB03F2 		mul	r2, r2, r3
 1370 009c 40F20003 		movw	r3, #:lower16:ADC_CountsPerVolt
 1371 00a0 C0F20003 		movt	r3, #:upper16:ADC_CountsPerVolt
 1372 00a4 1968     		ldr	r1, [r3, #0]
 1373 00a6 3B69     		ldr	r3, [r7, #16]
 1374 00a8 91FBF3F3 		sdiv	r3, r1, r3
 1375 00ac 92FBF3F3 		sdiv	r3, r2, r3
 1376 00b0 BB60     		str	r3, [r7, #8]
 915:.\Generated_Source\PSoC5/ADC.c **** 
 916:.\Generated_Source\PSoC5/ADC.c ****     return( (int16)mVolts );
 1377              		.loc 1 916 0
 1378 00b2 BB68     		ldr	r3, [r7, #8]
 1379 00b4 9BB2     		uxth	r3, r3
 1380 00b6 1BB2     		sxth	r3, r3
 917:.\Generated_Source\PSoC5/ADC.c **** }
 1381              		.loc 1 917 0
 1382 00b8 1846     		mov	r0, r3
 1383 00ba 07F11C07 		add	r7, r7, #28
 1384 00be BD46     		mov	sp, r7
 1385 00c0 80BC     		pop	{r7}
 1386 00c2 7047     		bx	lr
 1387              		.cfi_endproc
 1388              	.LFE17:
 1389              		.size	ADC_CountsTo_mVolts, .-ADC_CountsTo_mVolts
 1390              		.global	__aeabi_i2f
 1391              		.section	.text.ADC_CountsTo_Volts,"ax",%progbits
 1392              		.align	2
 1393              		.global	ADC_CountsTo_Volts
 1394              		.thumb
 1395              		.thumb_func
 1396              		.type	ADC_CountsTo_Volts, %function
 1397              	ADC_CountsTo_Volts:
 1398              	.LFB18:
 918:.\Generated_Source\PSoC5/ADC.c **** 
 919:.\Generated_Source\PSoC5/ADC.c **** 
 920:.\Generated_Source\PSoC5/ADC.c **** /*******************************************************************************
 921:.\Generated_Source\PSoC5/ADC.c **** * Function Name: ADC_CountsTo_Volts
 922:.\Generated_Source\PSoC5/ADC.c **** ********************************************************************************
 923:.\Generated_Source\PSoC5/ADC.c **** *
 924:.\Generated_Source\PSoC5/ADC.c **** * Summary:
 925:.\Generated_Source\PSoC5/ADC.c **** *  This function converts ADC counts to Volts
 926:.\Generated_Source\PSoC5/ADC.c **** *
 927:.\Generated_Source\PSoC5/ADC.c **** * Parameters:  
 928:.\Generated_Source\PSoC5/ADC.c **** *  int32:  adcCounts   Reading from ADC.
 929:.\Generated_Source\PSoC5/ADC.c **** *
 930:.\Generated_Source\PSoC5/ADC.c **** * Return: 
 931:.\Generated_Source\PSoC5/ADC.c **** *  float:  Result in Volts
 932:.\Generated_Source\PSoC5/ADC.c **** *
 933:.\Generated_Source\PSoC5/ADC.c **** * Global variables:
 934:.\Generated_Source\PSoC5/ADC.c **** *  ADC_CountsPerVolt:  used to convert to Volts.
 935:.\Generated_Source\PSoC5/ADC.c **** *  ADC_Offset:  Used as the offset while converting ADC counts 
ARM GAS  C:\Users\Victor\AppData\Local\Temp\ccOsbm6Y.s 			page 42


 936:.\Generated_Source\PSoC5/ADC.c **** *   to Volts.
 937:.\Generated_Source\PSoC5/ADC.c **** *
 938:.\Generated_Source\PSoC5/ADC.c **** *******************************************************************************/
 939:.\Generated_Source\PSoC5/ADC.c **** float ADC_CountsTo_Volts( int32 adcCounts) 
 940:.\Generated_Source\PSoC5/ADC.c **** {
 1399              		.loc 1 940 0
 1400              		.cfi_startproc
 1401              		@ args = 0, pretend = 0, frame = 16
 1402              		@ frame_needed = 1, uses_anonymous_args = 0
 1403 0000 90B5     		push	{r4, r7, lr}
 1404              	.LCFI47:
 1405              		.cfi_def_cfa_offset 12
 1406 0002 85B0     		sub	sp, sp, #20
 1407              	.LCFI48:
 1408              		.cfi_def_cfa_offset 32
 1409 0004 00AF     		add	r7, sp, #0
 1410              		.cfi_offset 14, -4
 1411              		.cfi_offset 7, -8
 1412              		.cfi_offset 4, -12
 1413              	.LCFI49:
 1414              		.cfi_def_cfa_register 7
 1415 0006 7860     		str	r0, [r7, #4]
 941:.\Generated_Source\PSoC5/ADC.c **** 
 942:.\Generated_Source\PSoC5/ADC.c ****     float Volts = 0;
 1416              		.loc 1 942 0
 1417 0008 114B     		ldr	r3, .L69	@ float
 1418 000a FB60     		str	r3, [r7, #12]	@ float
 943:.\Generated_Source\PSoC5/ADC.c **** 
 944:.\Generated_Source\PSoC5/ADC.c ****     /* Subtract ADC offset */
 945:.\Generated_Source\PSoC5/ADC.c ****     adcCounts -= ADC_Offset;
 1419              		.loc 1 945 0
 1420 000c 40F20003 		movw	r3, #:lower16:ADC_Offset
 1421 0010 C0F20003 		movt	r3, #:upper16:ADC_Offset
 1422 0014 1B68     		ldr	r3, [r3, #0]
 1423 0016 7A68     		ldr	r2, [r7, #4]
 1424 0018 C3EB0203 		rsb	r3, r3, r2
 1425 001c 7B60     		str	r3, [r7, #4]
 946:.\Generated_Source\PSoC5/ADC.c **** 
 947:.\Generated_Source\PSoC5/ADC.c ****     Volts = (float)adcCounts / (float)ADC_CountsPerVolt;   
 1426              		.loc 1 947 0
 1427 001e 7868     		ldr	r0, [r7, #4]
 1428 0020 FFF7FEFF 		bl	__aeabi_i2f
 1429 0024 0446     		mov	r4, r0
 1430 0026 40F20003 		movw	r3, #:lower16:ADC_CountsPerVolt
 1431 002a C0F20003 		movt	r3, #:upper16:ADC_CountsPerVolt
 1432 002e 1B68     		ldr	r3, [r3, #0]
 1433 0030 1846     		mov	r0, r3
 1434 0032 FFF7FEFF 		bl	__aeabi_i2f
 1435 0036 0346     		mov	r3, r0
 1436 0038 2046     		mov	r0, r4
 1437 003a 1946     		mov	r1, r3
 1438 003c FFF7FEFF 		bl	__aeabi_fdiv
 1439 0040 0346     		mov	r3, r0
 1440 0042 FB60     		str	r3, [r7, #12]	@ float
 948:.\Generated_Source\PSoC5/ADC.c ****     
 949:.\Generated_Source\PSoC5/ADC.c ****     return( Volts );
 1441              		.loc 1 949 0
ARM GAS  C:\Users\Victor\AppData\Local\Temp\ccOsbm6Y.s 			page 43


 1442 0044 FB68     		ldr	r3, [r7, #12]	@ float
 950:.\Generated_Source\PSoC5/ADC.c **** }
 1443              		.loc 1 950 0
 1444 0046 1846     		mov	r0, r3
 1445 0048 07F11407 		add	r7, r7, #20
 1446 004c BD46     		mov	sp, r7
 1447 004e 90BD     		pop	{r4, r7, pc}
 1448              	.L70:
 1449              		.align	2
 1450              	.L69:
 1451 0050 00000000 		.word	0
 1452              		.cfi_endproc
 1453              	.LFE18:
 1454              		.size	ADC_CountsTo_Volts, .-ADC_CountsTo_Volts
 1455              		.section	.text.ADC_CountsTo_uVolts,"ax",%progbits
 1456              		.align	2
 1457              		.global	ADC_CountsTo_uVolts
 1458              		.thumb
 1459              		.thumb_func
 1460              		.type	ADC_CountsTo_uVolts, %function
 1461              	ADC_CountsTo_uVolts:
 1462              	.LFB19:
 951:.\Generated_Source\PSoC5/ADC.c **** 
 952:.\Generated_Source\PSoC5/ADC.c **** 
 953:.\Generated_Source\PSoC5/ADC.c **** /*******************************************************************************
 954:.\Generated_Source\PSoC5/ADC.c **** * Function Name: ADC_CountsTo_uVolts
 955:.\Generated_Source\PSoC5/ADC.c **** ********************************************************************************
 956:.\Generated_Source\PSoC5/ADC.c **** *
 957:.\Generated_Source\PSoC5/ADC.c **** * Summary:
 958:.\Generated_Source\PSoC5/ADC.c **** *  This function converts ADC counts to uVolts
 959:.\Generated_Source\PSoC5/ADC.c **** *
 960:.\Generated_Source\PSoC5/ADC.c **** * Parameters:  
 961:.\Generated_Source\PSoC5/ADC.c **** *  int32:  adcCounts   Reading from ADC.
 962:.\Generated_Source\PSoC5/ADC.c **** *
 963:.\Generated_Source\PSoC5/ADC.c **** * Return: 
 964:.\Generated_Source\PSoC5/ADC.c **** *  int32:  Result in uVolts
 965:.\Generated_Source\PSoC5/ADC.c **** *
 966:.\Generated_Source\PSoC5/ADC.c **** * Global variables:
 967:.\Generated_Source\PSoC5/ADC.c **** *  ADC_CountsPerVolt:  used to convert ADC counts to mVolts.
 968:.\Generated_Source\PSoC5/ADC.c **** *  ADC_Offset:  Used as the offset while converting ADC counts 
 969:.\Generated_Source\PSoC5/ADC.c **** *   to mVolts.
 970:.\Generated_Source\PSoC5/ADC.c **** *
 971:.\Generated_Source\PSoC5/ADC.c **** * Theory: 
 972:.\Generated_Source\PSoC5/ADC.c **** * Care must be taken to not exceed the maximum value for a 32 bit signed
 973:.\Generated_Source\PSoC5/ADC.c **** * number in the conversion to uVolts and at the same time not loose 
 974:.\Generated_Source\PSoC5/ADC.c **** * resolution.
 975:.\Generated_Source\PSoC5/ADC.c **** *
 976:.\Generated_Source\PSoC5/ADC.c **** * uVolts = ((A * adcCounts) / ((int32)ADC_CountsPerVolt/B)) ;   
 977:.\Generated_Source\PSoC5/ADC.c **** *
 978:.\Generated_Source\PSoC5/ADC.c **** *  Resolution       A           B
 979:.\Generated_Source\PSoC5/ADC.c **** *   8 - 11      1,000,000         1
 980:.\Generated_Source\PSoC5/ADC.c **** *  12 - 14        100,000        10
 981:.\Generated_Source\PSoC5/ADC.c **** *  15 - 17         10,000       100
 982:.\Generated_Source\PSoC5/ADC.c **** *  18 - 20           1000      1000
 983:.\Generated_Source\PSoC5/ADC.c **** *
 984:.\Generated_Source\PSoC5/ADC.c **** *******************************************************************************/
 985:.\Generated_Source\PSoC5/ADC.c **** int32 ADC_CountsTo_uVolts( int32 adcCounts) 
ARM GAS  C:\Users\Victor\AppData\Local\Temp\ccOsbm6Y.s 			page 44


 986:.\Generated_Source\PSoC5/ADC.c **** {
 1463              		.loc 1 986 0
 1464              		.cfi_startproc
 1465              		@ args = 0, pretend = 0, frame = 24
 1466              		@ frame_needed = 1, uses_anonymous_args = 0
 1467              		@ link register save eliminated.
 1468 0000 80B4     		push	{r7}
 1469              	.LCFI50:
 1470              		.cfi_def_cfa_offset 4
 1471 0002 87B0     		sub	sp, sp, #28
 1472              	.LCFI51:
 1473              		.cfi_def_cfa_offset 32
 1474 0004 00AF     		add	r7, sp, #0
 1475              		.cfi_offset 7, -4
 1476              	.LCFI52:
 1477              		.cfi_def_cfa_register 7
 1478 0006 7860     		str	r0, [r7, #4]
 987:.\Generated_Source\PSoC5/ADC.c **** 
 988:.\Generated_Source\PSoC5/ADC.c ****     int32 uVolts = 0;
 1479              		.loc 1 988 0
 1480 0008 4FF00003 		mov	r3, #0
 1481 000c BB60     		str	r3, [r7, #8]
 989:.\Generated_Source\PSoC5/ADC.c ****     int32 A, B;
 990:.\Generated_Source\PSoC5/ADC.c **** 	uint8 resolution = 16;
 1482              		.loc 1 990 0
 1483 000e 4FF01003 		mov	r3, #16
 1484 0012 FB75     		strb	r3, [r7, #23]
 991:.\Generated_Source\PSoC5/ADC.c **** 	
 992:.\Generated_Source\PSoC5/ADC.c **** 	/* Set the resolution based on the configuration */
 993:.\Generated_Source\PSoC5/ADC.c **** 	if (ADC_Config == ADC_CFG1)
 1485              		.loc 1 993 0
 1486 0014 40F20003 		movw	r3, #:lower16:ADC_Config
 1487 0018 C0F20003 		movt	r3, #:upper16:ADC_Config
 1488 001c 1B78     		ldrb	r3, [r3, #0]
 1489 001e DBB2     		uxtb	r3, r3
 1490 0020 012B     		cmp	r3, #1
 1491 0022 03D1     		bne	.L72
 994:.\Generated_Source\PSoC5/ADC.c **** 	{
 995:.\Generated_Source\PSoC5/ADC.c ****         resolution = ADC_CFG1_RESOLUTION;
 1492              		.loc 1 995 0
 1493 0024 4FF01003 		mov	r3, #16
 1494 0028 FB75     		strb	r3, [r7, #23]
 1495 002a 1AE0     		b	.L73
 1496              	.L72:
 996:.\Generated_Source\PSoC5/ADC.c **** 	}	
 997:.\Generated_Source\PSoC5/ADC.c **** 	else if (ADC_Config == ADC_CFG2)
 1497              		.loc 1 997 0
 1498 002c 40F20003 		movw	r3, #:lower16:ADC_Config
 1499 0030 C0F20003 		movt	r3, #:upper16:ADC_Config
 1500 0034 1B78     		ldrb	r3, [r3, #0]
 1501 0036 DBB2     		uxtb	r3, r3
 1502 0038 022B     		cmp	r3, #2
 1503 003a 03D1     		bne	.L74
 998:.\Generated_Source\PSoC5/ADC.c **** 	{
 999:.\Generated_Source\PSoC5/ADC.c **** 	    resolution = ADC_CFG2_RESOLUTION;
 1504              		.loc 1 999 0
 1505 003c 4FF01003 		mov	r3, #16
ARM GAS  C:\Users\Victor\AppData\Local\Temp\ccOsbm6Y.s 			page 45


 1506 0040 FB75     		strb	r3, [r7, #23]
 1507 0042 0EE0     		b	.L73
 1508              	.L74:
1000:.\Generated_Source\PSoC5/ADC.c **** 	}
1001:.\Generated_Source\PSoC5/ADC.c **** 	else if (ADC_Config == ADC_CFG3)
 1509              		.loc 1 1001 0
 1510 0044 40F20003 		movw	r3, #:lower16:ADC_Config
 1511 0048 C0F20003 		movt	r3, #:upper16:ADC_Config
 1512 004c 1B78     		ldrb	r3, [r3, #0]
 1513 004e DBB2     		uxtb	r3, r3
 1514 0050 032B     		cmp	r3, #3
 1515 0052 03D1     		bne	.L75
1002:.\Generated_Source\PSoC5/ADC.c **** 	{
1003:.\Generated_Source\PSoC5/ADC.c **** 	    resolution = ADC_CFG3_RESOLUTION;
 1516              		.loc 1 1003 0
 1517 0054 4FF01003 		mov	r3, #16
 1518 0058 FB75     		strb	r3, [r7, #23]
 1519 005a 02E0     		b	.L73
 1520              	.L75:
1004:.\Generated_Source\PSoC5/ADC.c **** 	}
1005:.\Generated_Source\PSoC5/ADC.c **** 	else
1006:.\Generated_Source\PSoC5/ADC.c **** 	{
1007:.\Generated_Source\PSoC5/ADC.c **** 	    resolution = ADC_CFG4_RESOLUTION;
 1521              		.loc 1 1007 0
 1522 005c 4FF01003 		mov	r3, #16
 1523 0060 FB75     		strb	r3, [r7, #23]
 1524              	.L73:
1008:.\Generated_Source\PSoC5/ADC.c **** 	}
1009:.\Generated_Source\PSoC5/ADC.c ****     
1010:.\Generated_Source\PSoC5/ADC.c ****     if(resolution < 12)
 1525              		.loc 1 1010 0
 1526 0062 FB7D     		ldrb	r3, [r7, #23]	@ zero_extendqisi2
 1527 0064 0B2B     		cmp	r3, #11
 1528 0066 08D8     		bhi	.L76
1011:.\Generated_Source\PSoC5/ADC.c ****     {
1012:.\Generated_Source\PSoC5/ADC.c ****         A = 1000000;
 1529              		.loc 1 1012 0
 1530 0068 44F24023 		movw	r3, #:lower16:1000000
 1531 006c C0F20F03 		movt	r3, #:upper16:1000000
 1532 0070 FB60     		str	r3, [r7, #12]
1013:.\Generated_Source\PSoC5/ADC.c ****         B = 1;
 1533              		.loc 1 1013 0
 1534 0072 4FF00103 		mov	r3, #1
 1535 0076 3B61     		str	r3, [r7, #16]
 1536 0078 1BE0     		b	.L77
 1537              	.L76:
1014:.\Generated_Source\PSoC5/ADC.c ****     }
1015:.\Generated_Source\PSoC5/ADC.c ****     else if(resolution < 15)
 1538              		.loc 1 1015 0
 1539 007a FB7D     		ldrb	r3, [r7, #23]	@ zero_extendqisi2
 1540 007c 0E2B     		cmp	r3, #14
 1541 007e 08D8     		bhi	.L78
1016:.\Generated_Source\PSoC5/ADC.c ****     {
1017:.\Generated_Source\PSoC5/ADC.c ****         A = 100000;
 1542              		.loc 1 1017 0
 1543 0080 48F2A063 		movw	r3, #:lower16:100000
 1544 0084 C0F20103 		movt	r3, #:upper16:100000
ARM GAS  C:\Users\Victor\AppData\Local\Temp\ccOsbm6Y.s 			page 46


 1545 0088 FB60     		str	r3, [r7, #12]
1018:.\Generated_Source\PSoC5/ADC.c ****         B = 10;
 1546              		.loc 1 1018 0
 1547 008a 4FF00A03 		mov	r3, #10
 1548 008e 3B61     		str	r3, [r7, #16]
 1549 0090 0FE0     		b	.L77
 1550              	.L78:
1019:.\Generated_Source\PSoC5/ADC.c ****     }
1020:.\Generated_Source\PSoC5/ADC.c ****     else if(resolution < 18)
 1551              		.loc 1 1020 0
 1552 0092 FB7D     		ldrb	r3, [r7, #23]	@ zero_extendqisi2
 1553 0094 112B     		cmp	r3, #17
 1554 0096 06D8     		bhi	.L79
1021:.\Generated_Source\PSoC5/ADC.c ****     {
1022:.\Generated_Source\PSoC5/ADC.c ****         A = 10000;
 1555              		.loc 1 1022 0
 1556 0098 42F21073 		movw	r3, #10000
 1557 009c FB60     		str	r3, [r7, #12]
1023:.\Generated_Source\PSoC5/ADC.c ****         B = 100;
 1558              		.loc 1 1023 0
 1559 009e 4FF06403 		mov	r3, #100
 1560 00a2 3B61     		str	r3, [r7, #16]
 1561 00a4 05E0     		b	.L77
 1562              	.L79:
1024:.\Generated_Source\PSoC5/ADC.c ****     }
1025:.\Generated_Source\PSoC5/ADC.c ****     else
1026:.\Generated_Source\PSoC5/ADC.c ****     {
1027:.\Generated_Source\PSoC5/ADC.c ****         A = 1000;
 1563              		.loc 1 1027 0
 1564 00a6 4FF47A73 		mov	r3, #1000
 1565 00aa FB60     		str	r3, [r7, #12]
1028:.\Generated_Source\PSoC5/ADC.c ****         B = 1000;
 1566              		.loc 1 1028 0
 1567 00ac 4FF47A73 		mov	r3, #1000
 1568 00b0 3B61     		str	r3, [r7, #16]
 1569              	.L77:
1029:.\Generated_Source\PSoC5/ADC.c ****     }
1030:.\Generated_Source\PSoC5/ADC.c **** 
1031:.\Generated_Source\PSoC5/ADC.c ****     /* Subtract ADC offset */
1032:.\Generated_Source\PSoC5/ADC.c ****     adcCounts -= ADC_Offset;
 1570              		.loc 1 1032 0
 1571 00b2 40F20003 		movw	r3, #:lower16:ADC_Offset
 1572 00b6 C0F20003 		movt	r3, #:upper16:ADC_Offset
 1573 00ba 1B68     		ldr	r3, [r3, #0]
 1574 00bc 7A68     		ldr	r2, [r7, #4]
 1575 00be C3EB0203 		rsb	r3, r3, r2
 1576 00c2 7B60     		str	r3, [r7, #4]
1033:.\Generated_Source\PSoC5/ADC.c **** 
1034:.\Generated_Source\PSoC5/ADC.c ****     uVolts = ((A * adcCounts) / ((int32)ADC_CountsPerVolt/B)) ;   
 1577              		.loc 1 1034 0
 1578 00c4 FB68     		ldr	r3, [r7, #12]
 1579 00c6 7A68     		ldr	r2, [r7, #4]
 1580 00c8 02FB03F2 		mul	r2, r2, r3
 1581 00cc 40F20003 		movw	r3, #:lower16:ADC_CountsPerVolt
 1582 00d0 C0F20003 		movt	r3, #:upper16:ADC_CountsPerVolt
 1583 00d4 1968     		ldr	r1, [r3, #0]
 1584 00d6 3B69     		ldr	r3, [r7, #16]
ARM GAS  C:\Users\Victor\AppData\Local\Temp\ccOsbm6Y.s 			page 47


 1585 00d8 91FBF3F3 		sdiv	r3, r1, r3
 1586 00dc 92FBF3F3 		sdiv	r3, r2, r3
 1587 00e0 BB60     		str	r3, [r7, #8]
1035:.\Generated_Source\PSoC5/ADC.c ****   
1036:.\Generated_Source\PSoC5/ADC.c ****     return( uVolts );
 1588              		.loc 1 1036 0
 1589 00e2 BB68     		ldr	r3, [r7, #8]
1037:.\Generated_Source\PSoC5/ADC.c **** }
 1590              		.loc 1 1037 0
 1591 00e4 1846     		mov	r0, r3
 1592 00e6 07F11C07 		add	r7, r7, #28
 1593 00ea BD46     		mov	sp, r7
 1594 00ec 80BC     		pop	{r7}
 1595 00ee 7047     		bx	lr
 1596              		.cfi_endproc
 1597              	.LFE19:
 1598              		.size	ADC_CountsTo_uVolts, .-ADC_CountsTo_uVolts
 1599              		.section	.text.ADC_IRQ_Start,"ax",%progbits
 1600              		.align	2
 1601              		.global	ADC_IRQ_Start
 1602              		.thumb
 1603              		.thumb_func
 1604              		.type	ADC_IRQ_Start, %function
 1605              	ADC_IRQ_Start:
 1606              	.LFB20:
1038:.\Generated_Source\PSoC5/ADC.c **** 
1039:.\Generated_Source\PSoC5/ADC.c **** 
1040:.\Generated_Source\PSoC5/ADC.c **** /*******************************************************************************
1041:.\Generated_Source\PSoC5/ADC.c **** * Function Name: ADC_IRQ_Start(void)
1042:.\Generated_Source\PSoC5/ADC.c **** ********************************************************************************
1043:.\Generated_Source\PSoC5/ADC.c **** *
1044:.\Generated_Source\PSoC5/ADC.c **** * Summary:
1045:.\Generated_Source\PSoC5/ADC.c **** *  Set up the interrupt and enable it. The IRQ_Start() API is included to 
1046:.\Generated_Source\PSoC5/ADC.c **** *  support legacy code. The routine has been replaced by the library source 
1047:.\Generated_Source\PSoC5/ADC.c **** *  code for interrupts. IRQ_Start() should not be used in new designs.
1048:.\Generated_Source\PSoC5/ADC.c **** * 
1049:.\Generated_Source\PSoC5/ADC.c **** * Parameters:  
1050:.\Generated_Source\PSoC5/ADC.c **** *   void.
1051:.\Generated_Source\PSoC5/ADC.c **** *
1052:.\Generated_Source\PSoC5/ADC.c **** * Return:
1053:.\Generated_Source\PSoC5/ADC.c **** *   void.
1054:.\Generated_Source\PSoC5/ADC.c **** *
1055:.\Generated_Source\PSoC5/ADC.c **** *******************************************************************************/
1056:.\Generated_Source\PSoC5/ADC.c **** void ADC_IRQ_Start(void) 
1057:.\Generated_Source\PSoC5/ADC.c **** {
 1607              		.loc 1 1057 0
 1608              		.cfi_startproc
 1609              		@ args = 0, pretend = 0, frame = 0
 1610              		@ frame_needed = 1, uses_anonymous_args = 0
 1611 0000 80B5     		push	{r7, lr}
 1612              	.LCFI53:
 1613              		.cfi_def_cfa_offset 8
 1614 0002 00AF     		add	r7, sp, #0
 1615              		.cfi_offset 14, -4
 1616              		.cfi_offset 7, -8
 1617              	.LCFI54:
 1618              		.cfi_def_cfa_register 7
ARM GAS  C:\Users\Victor\AppData\Local\Temp\ccOsbm6Y.s 			page 48


1058:.\Generated_Source\PSoC5/ADC.c ****     /* For all we know the interrupt is active. */
1059:.\Generated_Source\PSoC5/ADC.c ****     CyIntDisable(ADC_IRQ__INTC_NUMBER );
 1619              		.loc 1 1059 0
 1620 0004 4EF28013 		movw	r3, #:lower16:-536813184
 1621 0008 CEF20003 		movt	r3, #:upper16:-536813184
 1622 000c 4FF00052 		mov	r2, #536870912
 1623 0010 1A60     		str	r2, [r3, #0]
1060:.\Generated_Source\PSoC5/ADC.c **** 
1061:.\Generated_Source\PSoC5/ADC.c ****     /* Set the ISR to point to the ADC_DelSig_1_IRQ Interrupt. */
1062:.\Generated_Source\PSoC5/ADC.c ****     CyIntSetVector(ADC_IRQ__INTC_NUMBER, ADC_ISR1);
 1624              		.loc 1 1062 0
 1625 0012 4FF01D00 		mov	r0, #29
 1626 0016 40F20001 		movw	r1, #:lower16:ADC_ISR1
 1627 001a C0F20001 		movt	r1, #:upper16:ADC_ISR1
 1628 001e FFF7FEFF 		bl	CyIntSetVector
1063:.\Generated_Source\PSoC5/ADC.c **** 
1064:.\Generated_Source\PSoC5/ADC.c ****     /* Set the priority. */
1065:.\Generated_Source\PSoC5/ADC.c ****     CyIntSetPriority(ADC_IRQ__INTC_NUMBER, ADC_IRQ_INTC_PRIOR_NUMBER);
 1629              		.loc 1 1065 0
 1630 0022 4FF01D00 		mov	r0, #29
 1631 0026 4FF00701 		mov	r1, #7
 1632 002a FFF7FEFF 		bl	CyIntSetPriority
1066:.\Generated_Source\PSoC5/ADC.c **** 
1067:.\Generated_Source\PSoC5/ADC.c ****     /* Enable interrupt. */
1068:.\Generated_Source\PSoC5/ADC.c ****     CyIntEnable(ADC_IRQ__INTC_NUMBER);
 1633              		.loc 1 1068 0
 1634 002e 4EF20013 		movw	r3, #:lower16:-536813312
 1635 0032 CEF20003 		movt	r3, #:upper16:-536813312
 1636 0036 4FF00052 		mov	r2, #536870912
 1637 003a 1A60     		str	r2, [r3, #0]
1069:.\Generated_Source\PSoC5/ADC.c **** }
 1638              		.loc 1 1069 0
 1639 003c 80BD     		pop	{r7, pc}
 1640              		.cfi_endproc
 1641              	.LFE20:
 1642              		.size	ADC_IRQ_Start, .-ADC_IRQ_Start
 1643 003e 00BF     		.section	.text.ADC_InitConfig,"ax",%progbits
 1644              		.align	2
 1645              		.global	ADC_InitConfig
 1646              		.thumb
 1647              		.thumb_func
 1648              		.type	ADC_InitConfig, %function
 1649              	ADC_InitConfig:
 1650              	.LFB21:
1070:.\Generated_Source\PSoC5/ADC.c **** 
1071:.\Generated_Source\PSoC5/ADC.c **** 
1072:.\Generated_Source\PSoC5/ADC.c **** /*******************************************************************************
1073:.\Generated_Source\PSoC5/ADC.c **** * Function Name: ADC_InitConfig(uint8 config)
1074:.\Generated_Source\PSoC5/ADC.c **** ********************************************************************************
1075:.\Generated_Source\PSoC5/ADC.c **** *
1076:.\Generated_Source\PSoC5/ADC.c **** * Summary:
1077:.\Generated_Source\PSoC5/ADC.c **** *  Initializes all registers based on customizer settings
1078:.\Generated_Source\PSoC5/ADC.c **** *
1079:.\Generated_Source\PSoC5/ADC.c **** * Parameters:  
1080:.\Generated_Source\PSoC5/ADC.c **** *   void
1081:.\Generated_Source\PSoC5/ADC.c **** *
1082:.\Generated_Source\PSoC5/ADC.c **** * Return: 
ARM GAS  C:\Users\Victor\AppData\Local\Temp\ccOsbm6Y.s 			page 49


1083:.\Generated_Source\PSoC5/ADC.c **** *  void
1084:.\Generated_Source\PSoC5/ADC.c **** *
1085:.\Generated_Source\PSoC5/ADC.c **** * Global variables:
1086:.\Generated_Source\PSoC5/ADC.c **** *  ADC_initVar:  used to set the common registers in the beginning.
1087:.\Generated_Source\PSoC5/ADC.c **** *  ADC_CountsPerVolt:  Used to set the default counts per volt.
1088:.\Generated_Source\PSoC5/ADC.c **** *
1089:.\Generated_Source\PSoC5/ADC.c **** *******************************************************************************/
1090:.\Generated_Source\PSoC5/ADC.c **** void ADC_InitConfig(uint8 config) 
1091:.\Generated_Source\PSoC5/ADC.c **** {
 1651              		.loc 1 1091 0
 1652              		.cfi_startproc
 1653              		@ args = 0, pretend = 0, frame = 8
 1654              		@ frame_needed = 1, uses_anonymous_args = 0
 1655 0000 80B5     		push	{r7, lr}
 1656              	.LCFI55:
 1657              		.cfi_def_cfa_offset 8
 1658 0002 82B0     		sub	sp, sp, #8
 1659              	.LCFI56:
 1660              		.cfi_def_cfa_offset 16
 1661 0004 00AF     		add	r7, sp, #0
 1662              		.cfi_offset 14, -4
 1663              		.cfi_offset 7, -8
 1664              	.LCFI57:
 1665              		.cfi_def_cfa_register 7
 1666 0006 0346     		mov	r3, r0
 1667 0008 FB71     		strb	r3, [r7, #7]
1092:.\Generated_Source\PSoC5/ADC.c ****     ADC_stopConversion = 0u;
 1668              		.loc 1 1092 0
 1669 000a 40F20003 		movw	r3, #:lower16:ADC_stopConversion
 1670 000e C0F20003 		movt	r3, #:upper16:ADC_stopConversion
 1671 0012 4FF00002 		mov	r2, #0
 1672 0016 1A70     		strb	r2, [r3, #0]
1093:.\Generated_Source\PSoC5/ADC.c ****     
1094:.\Generated_Source\PSoC5/ADC.c ****     if(ADC_initVar == 0u)
 1673              		.loc 1 1094 0
 1674 0018 40F20003 		movw	r3, #:lower16:ADC_initVar
 1675 001c C0F20003 		movt	r3, #:upper16:ADC_initVar
 1676 0020 1B78     		ldrb	r3, [r3, #0]	@ zero_extendqisi2
 1677 0022 002B     		cmp	r3, #0
 1678 0024 68D1     		bne	.L84
1095:.\Generated_Source\PSoC5/ADC.c ****         {
1096:.\Generated_Source\PSoC5/ADC.c ****             ADC_DSM_DEM0_REG    = ADC_CFG1_DSM_DEM0;    
 1679              		.loc 1 1096 0
 1680 0026 45F69603 		movw	r3, #:lower16:1073764502
 1681 002a C4F20003 		movt	r3, #:upper16:1073764502
 1682 002e 4FF00702 		mov	r2, #7
 1683 0032 1A70     		strb	r2, [r3, #0]
1097:.\Generated_Source\PSoC5/ADC.c ****             ADC_DSM_DEM1_REG    = ADC_CFG1_DSM_DEM1;    
 1684              		.loc 1 1097 0
 1685 0034 45F69703 		movw	r3, #:lower16:1073764503
 1686 0038 C4F20003 		movt	r3, #:upper16:1073764503
 1687 003c 4FF00002 		mov	r2, #0
 1688 0040 1A70     		strb	r2, [r3, #0]
1098:.\Generated_Source\PSoC5/ADC.c ****             ADC_DSM_MISC_REG    = ADC_CFG1_DSM_MISC;    
 1689              		.loc 1 1098 0
 1690 0042 45F69E03 		movw	r3, #:lower16:1073764510
 1691 0046 C4F20003 		movt	r3, #:upper16:1073764510
ARM GAS  C:\Users\Victor\AppData\Local\Temp\ccOsbm6Y.s 			page 50


 1692 004a 4FF00002 		mov	r2, #0
 1693 004e 1A70     		strb	r2, [r3, #0]
1099:.\Generated_Source\PSoC5/ADC.c ****             ADC_DSM_CLK_REG    |= ADC_CFG1_DSM_CLK; 
 1694              		.loc 1 1099 0
 1695 0050 45F60733 		movw	r3, #:lower16:1073765127
 1696 0054 C4F20003 		movt	r3, #:upper16:1073765127
 1697 0058 45F60732 		movw	r2, #:lower16:1073765127
 1698 005c C4F20002 		movt	r2, #:upper16:1073765127
 1699 0060 1278     		ldrb	r2, [r2, #0]
 1700 0062 D2B2     		uxtb	r2, r2
 1701 0064 42F01802 		orr	r2, r2, #24
 1702 0068 D2B2     		uxtb	r2, r2
 1703 006a 1A70     		strb	r2, [r3, #0]
1100:.\Generated_Source\PSoC5/ADC.c ****             ADC_DSM_REF1_REG    = ADC_CFG1_DSM_REF1;    
 1704              		.loc 1 1100 0
 1705 006c 45F69303 		movw	r3, #:lower16:1073764499
 1706 0070 C4F20003 		movt	r3, #:upper16:1073764499
 1707 0074 4FF00002 		mov	r2, #0
 1708 0078 1A70     		strb	r2, [r3, #0]
1101:.\Generated_Source\PSoC5/ADC.c ****         
1102:.\Generated_Source\PSoC5/ADC.c ****             ADC_DSM_OUT0_REG    = ADC_CFG1_DSM_OUT0;    
 1709              		.loc 1 1102 0
 1710 007a 45F68833 		movw	r3, #:lower16:1073765256
 1711 007e C4F20003 		movt	r3, #:upper16:1073765256
 1712 0082 4FF00002 		mov	r2, #0
 1713 0086 1A70     		strb	r2, [r3, #0]
1103:.\Generated_Source\PSoC5/ADC.c ****             ADC_DSM_OUT1_REG    = ADC_CFG1_DSM_OUT1;   
 1714              		.loc 1 1103 0
 1715 0088 45F68933 		movw	r3, #:lower16:1073765257
 1716 008c C4F20003 		movt	r3, #:upper16:1073765257
 1717 0090 4FF00002 		mov	r2, #0
 1718 0094 1A70     		strb	r2, [r3, #0]
1104:.\Generated_Source\PSoC5/ADC.c ****         
1105:.\Generated_Source\PSoC5/ADC.c ****             ADC_DSM_CR0_REG     = ADC_CFG1_DSM_CR0;     
 1719              		.loc 1 1105 0
 1720 0096 45F68003 		movw	r3, #:lower16:1073764480
 1721 009a C4F20003 		movt	r3, #:upper16:1073764480
 1722 009e 4FF00A02 		mov	r2, #10
 1723 00a2 1A70     		strb	r2, [r3, #0]
1106:.\Generated_Source\PSoC5/ADC.c ****             ADC_DSM_CR1_REG     = ADC_CFG1_DSM_CR1;     
 1724              		.loc 1 1106 0
 1725 00a4 45F68103 		movw	r3, #:lower16:1073764481
 1726 00a8 C4F20003 		movt	r3, #:upper16:1073764481
 1727 00ac 4FF00002 		mov	r2, #0
 1728 00b0 1A70     		strb	r2, [r3, #0]
1107:.\Generated_Source\PSoC5/ADC.c ****             ADC_DSM_CR2_REG     = ADC_CFG1_DSM_CR2;     
 1729              		.loc 1 1107 0
 1730 00b2 45F68203 		movw	r3, #:lower16:1073764482
 1731 00b6 C4F20003 		movt	r3, #:upper16:1073764482
 1732 00ba 4FF07A02 		mov	r2, #122
 1733 00be 1A70     		strb	r2, [r3, #0]
1108:.\Generated_Source\PSoC5/ADC.c ****             ADC_DSM_CR3_REG     = ADC_CFG1_DSM_CR3;     
 1734              		.loc 1 1108 0
 1735 00c0 45F68303 		movw	r3, #:lower16:1073764483
 1736 00c4 C4F20003 		movt	r3, #:upper16:1073764483
 1737 00c8 4FF00002 		mov	r2, #0
 1738 00cc 1A70     		strb	r2, [r3, #0]
ARM GAS  C:\Users\Victor\AppData\Local\Temp\ccOsbm6Y.s 			page 51


1109:.\Generated_Source\PSoC5/ADC.c ****             ADC_DSM_CR13_REG    = ADC_CFG1_DSM_CR13;     
 1739              		.loc 1 1109 0
 1740 00ce 45F68D03 		movw	r3, #:lower16:1073764493
 1741 00d2 C4F20003 		movt	r3, #:upper16:1073764493
 1742 00d6 4FF00002 		mov	r2, #0
 1743 00da 1A70     		strb	r2, [r3, #0]
1110:.\Generated_Source\PSoC5/ADC.c ****             
1111:.\Generated_Source\PSoC5/ADC.c ****             ADC_DEC_SR_REG      = ADC_CFG1_DEC_SR;      
 1744              		.loc 1 1111 0
 1745 00dc 44F60163 		movw	r3, #:lower16:1073761793
 1746 00e0 C4F20003 		movt	r3, #:upper16:1073761793
 1747 00e4 4FF01402 		mov	r2, #20
 1748 00e8 1A70     		strb	r2, [r3, #0]
1112:.\Generated_Source\PSoC5/ADC.c ****             ADC_DEC_COHER_REG   = ADC_CFG1_DEC_COHER;   
 1749              		.loc 1 1112 0
 1750 00ea 44F61463 		movw	r3, #:lower16:1073761812
 1751 00ee C4F20003 		movt	r3, #:upper16:1073761812
 1752 00f2 4FF00102 		mov	r2, #1
 1753 00f6 1A70     		strb	r2, [r3, #0]
 1754              	.L84:
1113:.\Generated_Source\PSoC5/ADC.c ****         }
1114:.\Generated_Source\PSoC5/ADC.c **** 
1115:.\Generated_Source\PSoC5/ADC.c ****     if (config == 1u)
 1755              		.loc 1 1115 0
 1756 00f8 FB79     		ldrb	r3, [r7, #7]	@ zero_extendqisi2
 1757 00fa 012B     		cmp	r3, #1
 1758 00fc 40F0E880 		bne	.L85
1116:.\Generated_Source\PSoC5/ADC.c ****     {
1117:.\Generated_Source\PSoC5/ADC.c ****         /* Default Config */   
1118:.\Generated_Source\PSoC5/ADC.c ****         ADC_DEC_CR_REG      = ADC_CFG1_DEC_CR;      
 1759              		.loc 1 1118 0
 1760 0100 44F60063 		movw	r3, #:lower16:1073761792
 1761 0104 C4F20003 		movt	r3, #:upper16:1073761792
 1762 0108 4FF03802 		mov	r2, #56
 1763 010c 1A70     		strb	r2, [r3, #0]
1119:.\Generated_Source\PSoC5/ADC.c ****         ADC_DEC_SHIFT1_REG  = ADC_CFG1_DEC_SHIFT1;  
 1764              		.loc 1 1119 0
 1765 010e 44F60263 		movw	r3, #:lower16:1073761794
 1766 0112 C4F20003 		movt	r3, #:upper16:1073761794
 1767 0116 4FF00402 		mov	r2, #4
 1768 011a 1A70     		strb	r2, [r3, #0]
1120:.\Generated_Source\PSoC5/ADC.c ****         ADC_DEC_SHIFT2_REG  = ADC_CFG1_DEC_SHIFT2;  
 1769              		.loc 1 1120 0
 1770 011c 44F60363 		movw	r3, #:lower16:1073761795
 1771 0120 C4F20003 		movt	r3, #:upper16:1073761795
 1772 0124 4FF00602 		mov	r2, #6
 1773 0128 1A70     		strb	r2, [r3, #0]
1121:.\Generated_Source\PSoC5/ADC.c ****         ADC_DEC_DR2_REG     = ADC_CFG1_DEC_DR2;     
 1774              		.loc 1 1121 0
 1775 012a 44F60463 		movw	r3, #:lower16:1073761796
 1776 012e C4F20003 		movt	r3, #:upper16:1073761796
 1777 0132 4FF00002 		mov	r2, #0
 1778 0136 1A70     		strb	r2, [r3, #0]
1122:.\Generated_Source\PSoC5/ADC.c ****         ADC_DEC_DR2H_REG    = ADC_CFG1_DEC_DR2H;    
 1779              		.loc 1 1122 0
 1780 0138 44F60563 		movw	r3, #:lower16:1073761797
 1781 013c C4F20003 		movt	r3, #:upper16:1073761797
ARM GAS  C:\Users\Victor\AppData\Local\Temp\ccOsbm6Y.s 			page 52


 1782 0140 4FF00002 		mov	r2, #0
 1783 0144 1A70     		strb	r2, [r3, #0]
1123:.\Generated_Source\PSoC5/ADC.c ****         ADC_DEC_DR1_REG     = ADC_CFG1_DEC_DR1;     
 1784              		.loc 1 1123 0
 1785 0146 44F60663 		movw	r3, #:lower16:1073761798
 1786 014a C4F20003 		movt	r3, #:upper16:1073761798
 1787 014e 4FF03F02 		mov	r2, #63
 1788 0152 1A70     		strb	r2, [r3, #0]
1124:.\Generated_Source\PSoC5/ADC.c ****         ADC_DEC_OCOR_REG    = ADC_CFG1_DEC_OCOR;    
 1789              		.loc 1 1124 0
 1790 0154 44F60863 		movw	r3, #:lower16:1073761800
 1791 0158 C4F20003 		movt	r3, #:upper16:1073761800
 1792 015c 4FF00002 		mov	r2, #0
 1793 0160 1A70     		strb	r2, [r3, #0]
1125:.\Generated_Source\PSoC5/ADC.c ****         ADC_DEC_OCORM_REG   = ADC_CFG1_DEC_OCORM;   
 1794              		.loc 1 1125 0
 1795 0162 44F60963 		movw	r3, #:lower16:1073761801
 1796 0166 C4F20003 		movt	r3, #:upper16:1073761801
 1797 016a 4FF00002 		mov	r2, #0
 1798 016e 1A70     		strb	r2, [r3, #0]
1126:.\Generated_Source\PSoC5/ADC.c ****         ADC_DEC_OCORH_REG   = ADC_CFG1_DEC_OCORH;   
 1799              		.loc 1 1126 0
 1800 0170 44F60A63 		movw	r3, #:lower16:1073761802
 1801 0174 C4F20003 		movt	r3, #:upper16:1073761802
 1802 0178 4FF00002 		mov	r2, #0
 1803 017c 1A70     		strb	r2, [r3, #0]
1127:.\Generated_Source\PSoC5/ADC.c ****         
1128:.\Generated_Source\PSoC5/ADC.c ****         ADC_DSM_CR4_REG     = ADC_CFG1_DSM_CR4;     
 1804              		.loc 1 1128 0
 1805 017e 45F68403 		movw	r3, #:lower16:1073764484
 1806 0182 C4F20003 		movt	r3, #:upper16:1073764484
 1807 0186 4FF05002 		mov	r2, #80
 1808 018a 1A70     		strb	r2, [r3, #0]
1129:.\Generated_Source\PSoC5/ADC.c ****         ADC_DSM_CR5_REG     = ADC_CFG1_DSM_CR5;     
 1809              		.loc 1 1129 0
 1810 018c 45F68503 		movw	r3, #:lower16:1073764485
 1811 0190 C4F20003 		movt	r3, #:upper16:1073764485
 1812 0194 4FF00E02 		mov	r2, #14
 1813 0198 1A70     		strb	r2, [r3, #0]
1130:.\Generated_Source\PSoC5/ADC.c ****         ADC_DSM_CR6_REG     = ADC_CFG1_DSM_CR6;     
 1814              		.loc 1 1130 0
 1815 019a 45F68603 		movw	r3, #:lower16:1073764486
 1816 019e C4F20003 		movt	r3, #:upper16:1073764486
 1817 01a2 4FF03E02 		mov	r2, #62
 1818 01a6 1A70     		strb	r2, [r3, #0]
1131:.\Generated_Source\PSoC5/ADC.c ****         ADC_DSM_CR7_REG     = ADC_CFG1_DSM_CR7;     
 1819              		.loc 1 1131 0
 1820 01a8 45F68703 		movw	r3, #:lower16:1073764487
 1821 01ac C4F20003 		movt	r3, #:upper16:1073764487
 1822 01b0 4FF00002 		mov	r2, #0
 1823 01b4 1A70     		strb	r2, [r3, #0]
1132:.\Generated_Source\PSoC5/ADC.c ****         ADC_DSM_CR8_REG     = ADC_CFG1_DSM_CR8;     
 1824              		.loc 1 1132 0
 1825 01b6 45F68803 		movw	r3, #:lower16:1073764488
 1826 01ba C4F20003 		movt	r3, #:upper16:1073764488
 1827 01be 4FF01202 		mov	r2, #18
 1828 01c2 1A70     		strb	r2, [r3, #0]
ARM GAS  C:\Users\Victor\AppData\Local\Temp\ccOsbm6Y.s 			page 53


1133:.\Generated_Source\PSoC5/ADC.c ****         ADC_DSM_CR9_REG     = ADC_CFG1_DSM_CR9;     
 1829              		.loc 1 1133 0
 1830 01c4 45F68903 		movw	r3, #:lower16:1073764489
 1831 01c8 C4F20003 		movt	r3, #:upper16:1073764489
 1832 01cc 4FF01302 		mov	r2, #19
 1833 01d0 1A70     		strb	r2, [r3, #0]
1134:.\Generated_Source\PSoC5/ADC.c ****         ADC_DSM_CR10_REG    = ADC_CFG1_DSM_CR10;    
 1834              		.loc 1 1134 0
 1835 01d2 45F68A03 		movw	r3, #:lower16:1073764490
 1836 01d6 C4F20003 		movt	r3, #:upper16:1073764490
 1837 01da 4FF04402 		mov	r2, #68
 1838 01de 1A70     		strb	r2, [r3, #0]
1135:.\Generated_Source\PSoC5/ADC.c ****         ADC_DSM_CR11_REG    = ADC_CFG1_DSM_CR11;    
 1839              		.loc 1 1135 0
 1840 01e0 45F68B03 		movw	r3, #:lower16:1073764491
 1841 01e4 C4F20003 		movt	r3, #:upper16:1073764491
 1842 01e8 4FF04802 		mov	r2, #72
 1843 01ec 1A70     		strb	r2, [r3, #0]
1136:.\Generated_Source\PSoC5/ADC.c ****         ADC_DSM_CR12_REG    = ADC_CFG1_DSM_CR12;    
 1844              		.loc 1 1136 0
 1845 01ee 45F68C03 		movw	r3, #:lower16:1073764492
 1846 01f2 C4F20003 		movt	r3, #:upper16:1073764492
 1847 01f6 4FF00102 		mov	r2, #1
 1848 01fa 1A70     		strb	r2, [r3, #0]
1137:.\Generated_Source\PSoC5/ADC.c ****         ADC_DSM_CR14_REG    = ADC_CFG1_DSM_CR14;    
 1849              		.loc 1 1137 0
 1850 01fc 45F68E03 		movw	r3, #:lower16:1073764494
 1851 0200 C4F20003 		movt	r3, #:upper16:1073764494
 1852 0204 4FF00102 		mov	r2, #1
 1853 0208 1A70     		strb	r2, [r3, #0]
1138:.\Generated_Source\PSoC5/ADC.c ****         ADC_DSM_CR15_REG    = ADC_CFG1_DSM_CR15;    
 1854              		.loc 1 1138 0
 1855 020a 45F68F03 		movw	r3, #:lower16:1073764495
 1856 020e C4F20003 		movt	r3, #:upper16:1073764495
 1857 0212 4FF01102 		mov	r2, #17
 1858 0216 1A70     		strb	r2, [r3, #0]
1139:.\Generated_Source\PSoC5/ADC.c ****         ADC_DSM_CR16_REG    = ADC_CFG1_DSM_CR16;    
 1859              		.loc 1 1139 0
 1860 0218 45F69003 		movw	r3, #:lower16:1073764496
 1861 021c C4F20003 		movt	r3, #:upper16:1073764496
 1862 0220 4FF01902 		mov	r2, #25
 1863 0224 1A70     		strb	r2, [r3, #0]
1140:.\Generated_Source\PSoC5/ADC.c ****         ADC_DSM_CR17_REG    = ADC_CFG1_DSM_CR17;
 1864              		.loc 1 1140 0
 1865 0226 45F69103 		movw	r3, #:lower16:1073764497
 1866 022a C4F20003 		movt	r3, #:upper16:1073764497
 1867 022e 6FF06802 		mvn	r2, #104
 1868 0232 1A70     		strb	r2, [r3, #0]
1141:.\Generated_Source\PSoC5/ADC.c **** 		/* Set DSM_REF0_REG by disabling and enabling the PRESS cirucit */
1142:.\Generated_Source\PSoC5/ADC.c **** 		ADC_SetDSMRef0Reg(ADC_CFG1_DSM_REF0);
 1869              		.loc 1 1142 0
 1870 0234 4FF05200 		mov	r0, #82
 1871 0238 FFF7FEFF 		bl	ADC_SetDSMRef0Reg
1143:.\Generated_Source\PSoC5/ADC.c ****         ADC_DSM_REF2_REG    = ADC_CFG1_DSM_REF2;    
 1872              		.loc 1 1143 0
 1873 023c 45F69403 		movw	r3, #:lower16:1073764500
 1874 0240 C4F20003 		movt	r3, #:upper16:1073764500
ARM GAS  C:\Users\Victor\AppData\Local\Temp\ccOsbm6Y.s 			page 54


 1875 0244 4FF05802 		mov	r2, #88
 1876 0248 1A70     		strb	r2, [r3, #0]
1144:.\Generated_Source\PSoC5/ADC.c ****         ADC_DSM_REF3_REG    = ADC_CFG1_DSM_REF3;    
 1877              		.loc 1 1144 0
 1878 024a 45F69503 		movw	r3, #:lower16:1073764501
 1879 024e C4F20003 		movt	r3, #:upper16:1073764501
 1880 0252 4FF00002 		mov	r2, #0
 1881 0256 1A70     		strb	r2, [r3, #0]
1145:.\Generated_Source\PSoC5/ADC.c ****         
1146:.\Generated_Source\PSoC5/ADC.c ****         ADC_DSM_BUF0_REG    = ADC_CFG1_DSM_BUF0;    
 1882              		.loc 1 1146 0
 1883 0258 45F69A03 		movw	r3, #:lower16:1073764506
 1884 025c C4F20003 		movt	r3, #:upper16:1073764506
 1885 0260 4FF00502 		mov	r2, #5
 1886 0264 1A70     		strb	r2, [r3, #0]
1147:.\Generated_Source\PSoC5/ADC.c ****         ADC_DSM_BUF1_REG    = ADC_CFG1_DSM_BUF1;    
 1887              		.loc 1 1147 0
 1888 0266 45F69B03 		movw	r3, #:lower16:1073764507
 1889 026a C4F20003 		movt	r3, #:upper16:1073764507
 1890 026e 4FF00202 		mov	r2, #2
 1891 0272 1A70     		strb	r2, [r3, #0]
1148:.\Generated_Source\PSoC5/ADC.c ****         ADC_DSM_BUF2_REG    = ADC_CFG1_DSM_BUF2;   
 1892              		.loc 1 1148 0
 1893 0274 45F69C03 		movw	r3, #:lower16:1073764508
 1894 0278 C4F20003 		movt	r3, #:upper16:1073764508
 1895 027c 4FF00102 		mov	r2, #1
 1896 0280 1A70     		strb	r2, [r3, #0]
1149:.\Generated_Source\PSoC5/ADC.c ****         ADC_DSM_BUF3_REG    = ADC_CFG1_DSM_BUF3;
 1897              		.loc 1 1149 0
 1898 0282 45F69D03 		movw	r3, #:lower16:1073764509
 1899 0286 C4F20003 		movt	r3, #:upper16:1073764509
 1900 028a 4FF00002 		mov	r2, #0
 1901 028e 1A70     		strb	r2, [r3, #0]
1150:.\Generated_Source\PSoC5/ADC.c ****         #if (CY_PSOC5A)
1151:.\Generated_Source\PSoC5/ADC.c ****             ADC_DSM_CLK_REG    |= ADC_CFG1_DSM_CLK; 
1152:.\Generated_Source\PSoC5/ADC.c ****         #endif /* CY_PSOC5A */
1153:.\Generated_Source\PSoC5/ADC.c ****         
1154:.\Generated_Source\PSoC5/ADC.c ****         /* To select either Vssa or Vref to -ve input of DSM depending on 
1155:.\Generated_Source\PSoC5/ADC.c ****           the input  range selected.
1156:.\Generated_Source\PSoC5/ADC.c ****         */
1157:.\Generated_Source\PSoC5/ADC.c ****         
1158:.\Generated_Source\PSoC5/ADC.c ****         #if(ADC_DEFAULT_INPUT_MODE)
1159:.\Generated_Source\PSoC5/ADC.c ****             #if (CY_PSOC3 || CY_PSOC5LP)
1160:.\Generated_Source\PSoC5/ADC.c ****                 #if (ADC_CFG1_RANGE == ADC_IR_VSSA_TO_2VREF)
1161:.\Generated_Source\PSoC5/ADC.c ****                     ADC_AMux_Select(1);
1162:.\Generated_Source\PSoC5/ADC.c ****                 #else
1163:.\Generated_Source\PSoC5/ADC.c ****                     ADC_AMux_Select(0);
 1902              		.loc 1 1163 0
 1903 0290 4FF00000 		mov	r0, #0
 1904 0294 FFF7FEFF 		bl	ADC_AMux_Select
1164:.\Generated_Source\PSoC5/ADC.c ****                 #endif /* ADC_IR_VSSA_TO_2VREF) */
1165:.\Generated_Source\PSoC5/ADC.c ****             #elif (CY_PSOC5A)
1166:.\Generated_Source\PSoC5/ADC.c ****                 ADC_AMux_Select(0);
1167:.\Generated_Source\PSoC5/ADC.c ****             #endif /* CY_PSOC3 || CY_PSOC5LP */
1168:.\Generated_Source\PSoC5/ADC.c ****         #endif /* ADC_DEFAULT_INPUT_MODE */
1169:.\Generated_Source\PSoC5/ADC.c ****         
1170:.\Generated_Source\PSoC5/ADC.c ****         /* Set the Conversion stop if resolution is above 16 bit and conversion 
ARM GAS  C:\Users\Victor\AppData\Local\Temp\ccOsbm6Y.s 			page 55


1171:.\Generated_Source\PSoC5/ADC.c ****            mode is Single sample */
1172:.\Generated_Source\PSoC5/ADC.c ****         #if(ADC_CFG1_RESOLUTION > 16 && \
1173:.\Generated_Source\PSoC5/ADC.c ****             ADC_CFG1_CONV_MODE == ADC_MODE_SINGLE_SAMPLE) 
1174:.\Generated_Source\PSoC5/ADC.c ****             ADC_stopConversion = 1;
1175:.\Generated_Source\PSoC5/ADC.c ****         #endif /* Single sample with resolution above 16 bits. */
1176:.\Generated_Source\PSoC5/ADC.c ****         ADC_CountsPerVolt = (uint32)ADC_CFG1_COUNTS_PER_VOLT;
 1905              		.loc 1 1176 0
 1906 0298 40F20003 		movw	r3, #:lower16:ADC_CountsPerVolt
 1907 029c C0F20003 		movt	r3, #:upper16:ADC_CountsPerVolt
 1908 02a0 43F23332 		movw	r2, #13107
 1909 02a4 1A60     		str	r2, [r3, #0]
1177:.\Generated_Source\PSoC5/ADC.c ****         
1178:.\Generated_Source\PSoC5/ADC.c ****         /* Start and set interrupt vector */
1179:.\Generated_Source\PSoC5/ADC.c ****         CyIntSetPriority(ADC_IRQ__INTC_NUMBER, ADC_IRQ_INTC_PRIOR_NUMBER);
 1910              		.loc 1 1179 0
 1911 02a6 4FF01D00 		mov	r0, #29
 1912 02aa 4FF00701 		mov	r1, #7
 1913 02ae FFF7FEFF 		bl	CyIntSetPriority
1180:.\Generated_Source\PSoC5/ADC.c ****         CyIntSetVector(ADC_IRQ__INTC_NUMBER, ADC_ISR1 );
 1914              		.loc 1 1180 0
 1915 02b2 4FF01D00 		mov	r0, #29
 1916 02b6 40F20001 		movw	r1, #:lower16:ADC_ISR1
 1917 02ba C0F20001 		movt	r1, #:upper16:ADC_ISR1
 1918 02be FFF7FEFF 		bl	CyIntSetVector
1181:.\Generated_Source\PSoC5/ADC.c ****         CyIntEnable(ADC_IRQ__INTC_NUMBER);
 1919              		.loc 1 1181 0
 1920 02c2 4EF20013 		movw	r3, #:lower16:-536813312
 1921 02c6 CEF20003 		movt	r3, #:upper16:-536813312
 1922 02ca 4FF00052 		mov	r2, #536870912
 1923 02ce 1A60     		str	r2, [r3, #0]
 1924              	.L85:
1182:.\Generated_Source\PSoC5/ADC.c ****     }
1183:.\Generated_Source\PSoC5/ADC.c ****     
1184:.\Generated_Source\PSoC5/ADC.c ****     #if(ADC_DEFAULT_NUM_CONFIGS > 1)
1185:.\Generated_Source\PSoC5/ADC.c ****         if(config == 2u)
 1925              		.loc 1 1185 0
 1926 02d0 FB79     		ldrb	r3, [r7, #7]	@ zero_extendqisi2
 1927 02d2 022B     		cmp	r3, #2
 1928 02d4 40F0E880 		bne	.L86
1186:.\Generated_Source\PSoC5/ADC.c ****         {
1187:.\Generated_Source\PSoC5/ADC.c ****             /* Second Config */
1188:.\Generated_Source\PSoC5/ADC.c ****             ADC_DEC_CR_REG      = ADC_CFG2_DEC_CR;      
 1929              		.loc 1 1188 0
 1930 02d8 44F60063 		movw	r3, #:lower16:1073761792
 1931 02dc C4F20003 		movt	r3, #:upper16:1073761792
 1932 02e0 4FF03802 		mov	r2, #56
 1933 02e4 1A70     		strb	r2, [r3, #0]
1189:.\Generated_Source\PSoC5/ADC.c ****             ADC_DEC_SHIFT1_REG  = ADC_CFG2_DEC_SHIFT1;  
 1934              		.loc 1 1189 0
 1935 02e6 44F60263 		movw	r3, #:lower16:1073761794
 1936 02ea C4F20003 		movt	r3, #:upper16:1073761794
 1937 02ee 4FF00402 		mov	r2, #4
 1938 02f2 1A70     		strb	r2, [r3, #0]
1190:.\Generated_Source\PSoC5/ADC.c ****             ADC_DEC_SHIFT2_REG  = ADC_CFG2_DEC_SHIFT2;  
 1939              		.loc 1 1190 0
 1940 02f4 44F60363 		movw	r3, #:lower16:1073761795
 1941 02f8 C4F20003 		movt	r3, #:upper16:1073761795
ARM GAS  C:\Users\Victor\AppData\Local\Temp\ccOsbm6Y.s 			page 56


 1942 02fc 4FF00602 		mov	r2, #6
 1943 0300 1A70     		strb	r2, [r3, #0]
1191:.\Generated_Source\PSoC5/ADC.c ****             ADC_DEC_DR2_REG     = ADC_CFG2_DEC_DR2;     
 1944              		.loc 1 1191 0
 1945 0302 44F60463 		movw	r3, #:lower16:1073761796
 1946 0306 C4F20003 		movt	r3, #:upper16:1073761796
 1947 030a 4FF00002 		mov	r2, #0
 1948 030e 1A70     		strb	r2, [r3, #0]
1192:.\Generated_Source\PSoC5/ADC.c ****             ADC_DEC_DR2H_REG    = ADC_CFG2_DEC_DR2H;    
 1949              		.loc 1 1192 0
 1950 0310 44F60563 		movw	r3, #:lower16:1073761797
 1951 0314 C4F20003 		movt	r3, #:upper16:1073761797
 1952 0318 4FF00002 		mov	r2, #0
 1953 031c 1A70     		strb	r2, [r3, #0]
1193:.\Generated_Source\PSoC5/ADC.c ****             ADC_DEC_DR1_REG     = ADC_CFG2_DEC_DR1;     
 1954              		.loc 1 1193 0
 1955 031e 44F60663 		movw	r3, #:lower16:1073761798
 1956 0322 C4F20003 		movt	r3, #:upper16:1073761798
 1957 0326 4FF03F02 		mov	r2, #63
 1958 032a 1A70     		strb	r2, [r3, #0]
1194:.\Generated_Source\PSoC5/ADC.c ****             ADC_DEC_OCOR_REG    = ADC_CFG2_DEC_OCOR;    
 1959              		.loc 1 1194 0
 1960 032c 44F60863 		movw	r3, #:lower16:1073761800
 1961 0330 C4F20003 		movt	r3, #:upper16:1073761800
 1962 0334 4FF00002 		mov	r2, #0
 1963 0338 1A70     		strb	r2, [r3, #0]
1195:.\Generated_Source\PSoC5/ADC.c ****             ADC_DEC_OCORM_REG   = ADC_CFG2_DEC_OCORM;   
 1964              		.loc 1 1195 0
 1965 033a 44F60963 		movw	r3, #:lower16:1073761801
 1966 033e C4F20003 		movt	r3, #:upper16:1073761801
 1967 0342 4FF00002 		mov	r2, #0
 1968 0346 1A70     		strb	r2, [r3, #0]
1196:.\Generated_Source\PSoC5/ADC.c ****             ADC_DEC_OCORH_REG   = ADC_CFG2_DEC_OCORH;   
 1969              		.loc 1 1196 0
 1970 0348 44F60A63 		movw	r3, #:lower16:1073761802
 1971 034c C4F20003 		movt	r3, #:upper16:1073761802
 1972 0350 4FF00002 		mov	r2, #0
 1973 0354 1A70     		strb	r2, [r3, #0]
1197:.\Generated_Source\PSoC5/ADC.c ****         
1198:.\Generated_Source\PSoC5/ADC.c ****             ADC_DSM_CR4_REG     = ADC_CFG2_DSM_CR4;     
 1974              		.loc 1 1198 0
 1975 0356 45F68403 		movw	r3, #:lower16:1073764484
 1976 035a C4F20003 		movt	r3, #:upper16:1073764484
 1977 035e 4FF05002 		mov	r2, #80
 1978 0362 1A70     		strb	r2, [r3, #0]
1199:.\Generated_Source\PSoC5/ADC.c ****             ADC_DSM_CR5_REG     = ADC_CFG2_DSM_CR5;     
 1979              		.loc 1 1199 0
 1980 0364 45F68503 		movw	r3, #:lower16:1073764485
 1981 0368 C4F20003 		movt	r3, #:upper16:1073764485
 1982 036c 4FF02702 		mov	r2, #39
 1983 0370 1A70     		strb	r2, [r3, #0]
1200:.\Generated_Source\PSoC5/ADC.c ****             ADC_DSM_CR6_REG     = ADC_CFG2_DSM_CR6;     
 1984              		.loc 1 1200 0
 1985 0372 45F68603 		movw	r3, #:lower16:1073764486
 1986 0376 C4F20003 		movt	r3, #:upper16:1073764486
 1987 037a 4FF02C02 		mov	r2, #44
 1988 037e 1A70     		strb	r2, [r3, #0]
ARM GAS  C:\Users\Victor\AppData\Local\Temp\ccOsbm6Y.s 			page 57


1201:.\Generated_Source\PSoC5/ADC.c ****             ADC_DSM_CR7_REG     = ADC_CFG2_DSM_CR7;     
 1989              		.loc 1 1201 0
 1990 0380 45F68703 		movw	r3, #:lower16:1073764487
 1991 0384 C4F20003 		movt	r3, #:upper16:1073764487
 1992 0388 4FF00002 		mov	r2, #0
 1993 038c 1A70     		strb	r2, [r3, #0]
1202:.\Generated_Source\PSoC5/ADC.c ****             ADC_DSM_CR8_REG     = ADC_CFG2_DSM_CR8;     
 1994              		.loc 1 1202 0
 1995 038e 45F68803 		movw	r3, #:lower16:1073764488
 1996 0392 C4F20003 		movt	r3, #:upper16:1073764488
 1997 0396 4FF01202 		mov	r2, #18
 1998 039a 1A70     		strb	r2, [r3, #0]
1203:.\Generated_Source\PSoC5/ADC.c ****             ADC_DSM_CR9_REG     = ADC_CFG2_DSM_CR9;     
 1999              		.loc 1 1203 0
 2000 039c 45F68903 		movw	r3, #:lower16:1073764489
 2001 03a0 C4F20003 		movt	r3, #:upper16:1073764489
 2002 03a4 4FF01302 		mov	r2, #19
 2003 03a8 1A70     		strb	r2, [r3, #0]
1204:.\Generated_Source\PSoC5/ADC.c ****             ADC_DSM_CR10_REG    = ADC_CFG2_DSM_CR10;    
 2004              		.loc 1 1204 0
 2005 03aa 45F68A03 		movw	r3, #:lower16:1073764490
 2006 03ae C4F20003 		movt	r3, #:upper16:1073764490
 2007 03b2 4FF05502 		mov	r2, #85
 2008 03b6 1A70     		strb	r2, [r3, #0]
1205:.\Generated_Source\PSoC5/ADC.c ****             ADC_DSM_CR11_REG    = ADC_CFG2_DSM_CR11;    
 2009              		.loc 1 1205 0
 2010 03b8 45F68B03 		movw	r3, #:lower16:1073764491
 2011 03bc C4F20003 		movt	r3, #:upper16:1073764491
 2012 03c0 4FF05A02 		mov	r2, #90
 2013 03c4 1A70     		strb	r2, [r3, #0]
1206:.\Generated_Source\PSoC5/ADC.c ****             ADC_DSM_CR12_REG    = ADC_CFG2_DSM_CR12;    
 2014              		.loc 1 1206 0
 2015 03c6 45F68C03 		movw	r3, #:lower16:1073764492
 2016 03ca C4F20003 		movt	r3, #:upper16:1073764492
 2017 03ce 4FF00502 		mov	r2, #5
 2018 03d2 1A70     		strb	r2, [r3, #0]
1207:.\Generated_Source\PSoC5/ADC.c ****             ADC_DSM_CR14_REG    = ADC_CFG2_DSM_CR14;    
 2019              		.loc 1 1207 0
 2020 03d4 45F68E03 		movw	r3, #:lower16:1073764494
 2021 03d8 C4F20003 		movt	r3, #:upper16:1073764494
 2022 03dc 4FF00102 		mov	r2, #1
 2023 03e0 1A70     		strb	r2, [r3, #0]
1208:.\Generated_Source\PSoC5/ADC.c ****             ADC_DSM_CR15_REG    = ADC_CFG2_DSM_CR15;    
 2024              		.loc 1 1208 0
 2025 03e2 45F68F03 		movw	r3, #:lower16:1073764495
 2026 03e6 C4F20003 		movt	r3, #:upper16:1073764495
 2027 03ea 4FF01102 		mov	r2, #17
 2028 03ee 1A70     		strb	r2, [r3, #0]
1209:.\Generated_Source\PSoC5/ADC.c ****             ADC_DSM_CR16_REG    = ADC_CFG2_DSM_CR16;    
 2029              		.loc 1 1209 0
 2030 03f0 45F69003 		movw	r3, #:lower16:1073764496
 2031 03f4 C4F20003 		movt	r3, #:upper16:1073764496
 2032 03f8 4FF01902 		mov	r2, #25
 2033 03fc 1A70     		strb	r2, [r3, #0]
1210:.\Generated_Source\PSoC5/ADC.c ****             ADC_DSM_CR17_REG    = ADC_CFG2_DSM_CR17;    
 2034              		.loc 1 1210 0
 2035 03fe 45F69103 		movw	r3, #:lower16:1073764497
ARM GAS  C:\Users\Victor\AppData\Local\Temp\ccOsbm6Y.s 			page 58


 2036 0402 C4F20003 		movt	r3, #:upper16:1073764497
 2037 0406 6FF06802 		mvn	r2, #104
 2038 040a 1A70     		strb	r2, [r3, #0]
1211:.\Generated_Source\PSoC5/ADC.c **** 			/* Set DSM_REF0_REG by disabling and enabling the PRESS cirucit */
1212:.\Generated_Source\PSoC5/ADC.c **** 			ADC_SetDSMRef0Reg(ADC_CFG2_DSM_REF0);
 2039              		.loc 1 1212 0
 2040 040c 4FF04400 		mov	r0, #68
 2041 0410 FFF7FEFF 		bl	ADC_SetDSMRef0Reg
1213:.\Generated_Source\PSoC5/ADC.c ****             ADC_DSM_REF2_REG    = ADC_CFG2_DSM_REF2;    
 2042              		.loc 1 1213 0
 2043 0414 45F69403 		movw	r3, #:lower16:1073764500
 2044 0418 C4F20003 		movt	r3, #:upper16:1073764500
 2045 041c 4FF05802 		mov	r2, #88
 2046 0420 1A70     		strb	r2, [r3, #0]
1214:.\Generated_Source\PSoC5/ADC.c ****             ADC_DSM_REF3_REG    = ADC_CFG2_DSM_REF3;    
 2047              		.loc 1 1214 0
 2048 0422 45F69503 		movw	r3, #:lower16:1073764501
 2049 0426 C4F20003 		movt	r3, #:upper16:1073764501
 2050 042a 4FF00002 		mov	r2, #0
 2051 042e 1A70     		strb	r2, [r3, #0]
1215:.\Generated_Source\PSoC5/ADC.c ****         
1216:.\Generated_Source\PSoC5/ADC.c ****             ADC_DSM_BUF0_REG    = ADC_CFG2_DSM_BUF0;    
 2052              		.loc 1 1216 0
 2053 0430 45F69A03 		movw	r3, #:lower16:1073764506
 2054 0434 C4F20003 		movt	r3, #:upper16:1073764506
 2055 0438 4FF00502 		mov	r2, #5
 2056 043c 1A70     		strb	r2, [r3, #0]
1217:.\Generated_Source\PSoC5/ADC.c ****             ADC_DSM_BUF1_REG    = ADC_CFG2_DSM_BUF1;    
 2057              		.loc 1 1217 0
 2058 043e 45F69B03 		movw	r3, #:lower16:1073764507
 2059 0442 C4F20003 		movt	r3, #:upper16:1073764507
 2060 0446 4FF00202 		mov	r2, #2
 2061 044a 1A70     		strb	r2, [r3, #0]
1218:.\Generated_Source\PSoC5/ADC.c ****             ADC_DSM_BUF2_REG    = ADC_CFG2_DSM_BUF2;    
 2062              		.loc 1 1218 0
 2063 044c 45F69C03 		movw	r3, #:lower16:1073764508
 2064 0450 C4F20003 		movt	r3, #:upper16:1073764508
 2065 0454 4FF00102 		mov	r2, #1
 2066 0458 1A70     		strb	r2, [r3, #0]
1219:.\Generated_Source\PSoC5/ADC.c ****             ADC_DSM_BUF3_REG    = ADC_CFG2_DSM_BUF3; 
 2067              		.loc 1 1219 0
 2068 045a 45F69D03 		movw	r3, #:lower16:1073764509
 2069 045e C4F20003 		movt	r3, #:upper16:1073764509
 2070 0462 4FF00002 		mov	r2, #0
 2071 0466 1A70     		strb	r2, [r3, #0]
1220:.\Generated_Source\PSoC5/ADC.c ****             #if (CY_PSOC5A)
1221:.\Generated_Source\PSoC5/ADC.c ****                 ADC_DSM_CLK_REG    |= ADC_CFG1_DSM_CLK; 
1222:.\Generated_Source\PSoC5/ADC.c ****             #endif /* CY_PSOC5A */
1223:.\Generated_Source\PSoC5/ADC.c ****             
1224:.\Generated_Source\PSoC5/ADC.c ****             /* To select either Vssa or Vref to -ve input of DSM depending on 
1225:.\Generated_Source\PSoC5/ADC.c ****                the input range selected.
1226:.\Generated_Source\PSoC5/ADC.c ****             */
1227:.\Generated_Source\PSoC5/ADC.c ****             
1228:.\Generated_Source\PSoC5/ADC.c ****             #if(ADC_DEFAULT_INPUT_MODE)
1229:.\Generated_Source\PSoC5/ADC.c ****                 #if (CY_PSOC3 || CY_PSOC5LP)
1230:.\Generated_Source\PSoC5/ADC.c ****                     #if (ADC_CFG2_INPUT_RANGE == ADC_IR_VSSA_TO_2VREF)
1231:.\Generated_Source\PSoC5/ADC.c ****                         ADC_AMux_Select(1);
ARM GAS  C:\Users\Victor\AppData\Local\Temp\ccOsbm6Y.s 			page 59


1232:.\Generated_Source\PSoC5/ADC.c ****                     #else
1233:.\Generated_Source\PSoC5/ADC.c ****                         ADC_AMux_Select(0);
 2072              		.loc 1 1233 0
 2073 0468 4FF00000 		mov	r0, #0
 2074 046c FFF7FEFF 		bl	ADC_AMux_Select
1234:.\Generated_Source\PSoC5/ADC.c ****                     #endif /* ADC_IR_VSSA_TO_2VREF) */
1235:.\Generated_Source\PSoC5/ADC.c ****                 #elif (CY_PSOC5A)
1236:.\Generated_Source\PSoC5/ADC.c ****                     ADC_AMux_Select(0);
1237:.\Generated_Source\PSoC5/ADC.c ****                 #endif /* CY_PSOC3 || CY_PSOC5LP */
1238:.\Generated_Source\PSoC5/ADC.c ****             #endif /* ADC_DEFAULT_INPUT_MODE */
1239:.\Generated_Source\PSoC5/ADC.c ****             
1240:.\Generated_Source\PSoC5/ADC.c ****             /* Set the Conversion stop if resolution is above 16 bit and 
1241:.\Generated_Source\PSoC5/ADC.c ****                conversion mode is Single sample */
1242:.\Generated_Source\PSoC5/ADC.c ****             #if(ADC_CFG2_RESOLUTION > 16 && \
1243:.\Generated_Source\PSoC5/ADC.c ****                 ADC_CFG2_CONVMODE == ADC_MODE_SINGLE_SAMPLE) 
1244:.\Generated_Source\PSoC5/ADC.c ****                 ADC_stopConversion = 1;
1245:.\Generated_Source\PSoC5/ADC.c ****             #endif /* Single sample with resolution above 16 bits. */
1246:.\Generated_Source\PSoC5/ADC.c ****             
1247:.\Generated_Source\PSoC5/ADC.c ****             ADC_CountsPerVolt = (uint32)ADC_CFG2_COUNTS_PER_VOLT;
 2075              		.loc 1 1247 0
 2076 0470 40F20003 		movw	r3, #:lower16:ADC_CountsPerVolt
 2077 0474 C0F20003 		movt	r3, #:upper16:ADC_CountsPerVolt
 2078 0478 4FF47A42 		mov	r2, #64000
 2079 047c 1A60     		str	r2, [r3, #0]
1248:.\Generated_Source\PSoC5/ADC.c ****             
1249:.\Generated_Source\PSoC5/ADC.c ****             /* Start and set interrupt vector */
1250:.\Generated_Source\PSoC5/ADC.c ****             CyIntSetPriority(ADC_IRQ__INTC_NUMBER, ADC_IRQ_INTC_PRIOR_NUMBER);
 2080              		.loc 1 1250 0
 2081 047e 4FF01D00 		mov	r0, #29
 2082 0482 4FF00701 		mov	r1, #7
 2083 0486 FFF7FEFF 		bl	CyIntSetPriority
1251:.\Generated_Source\PSoC5/ADC.c ****             CyIntSetVector(ADC_IRQ__INTC_NUMBER, ADC_ISR2 );
 2084              		.loc 1 1251 0
 2085 048a 4FF01D00 		mov	r0, #29
 2086 048e 40F20001 		movw	r1, #:lower16:ADC_ISR2
 2087 0492 C0F20001 		movt	r1, #:upper16:ADC_ISR2
 2088 0496 FFF7FEFF 		bl	CyIntSetVector
1252:.\Generated_Source\PSoC5/ADC.c ****             CyIntEnable(ADC_IRQ__INTC_NUMBER);
 2089              		.loc 1 1252 0
 2090 049a 4EF20013 		movw	r3, #:lower16:-536813312
 2091 049e CEF20003 		movt	r3, #:upper16:-536813312
 2092 04a2 4FF00052 		mov	r2, #536870912
 2093 04a6 1A60     		str	r2, [r3, #0]
 2094              	.L86:
1253:.\Generated_Source\PSoC5/ADC.c ****         }
1254:.\Generated_Source\PSoC5/ADC.c ****     #endif /* ADC_DEFAULT_NUM_CONFIGS > 1 */
1255:.\Generated_Source\PSoC5/ADC.c **** 
1256:.\Generated_Source\PSoC5/ADC.c ****     #if(ADC_DEFAULT_NUM_CONFIGS > 2)
1257:.\Generated_Source\PSoC5/ADC.c ****         if(config == 3u)
 2095              		.loc 1 1257 0
 2096 04a8 FB79     		ldrb	r3, [r7, #7]	@ zero_extendqisi2
 2097 04aa 032B     		cmp	r3, #3
 2098 04ac 40F0E880 		bne	.L87
1258:.\Generated_Source\PSoC5/ADC.c ****         {
1259:.\Generated_Source\PSoC5/ADC.c ****             /* Third Config */
1260:.\Generated_Source\PSoC5/ADC.c ****             ADC_DEC_CR_REG      = ADC_CFG3_DEC_CR;      
 2099              		.loc 1 1260 0
ARM GAS  C:\Users\Victor\AppData\Local\Temp\ccOsbm6Y.s 			page 60


 2100 04b0 44F60063 		movw	r3, #:lower16:1073761792
 2101 04b4 C4F20003 		movt	r3, #:upper16:1073761792
 2102 04b8 4FF03802 		mov	r2, #56
 2103 04bc 1A70     		strb	r2, [r3, #0]
1261:.\Generated_Source\PSoC5/ADC.c ****             ADC_DEC_SHIFT1_REG  = ADC_CFG3_DEC_SHIFT1;  
 2104              		.loc 1 1261 0
 2105 04be 44F60263 		movw	r3, #:lower16:1073761794
 2106 04c2 C4F20003 		movt	r3, #:upper16:1073761794
 2107 04c6 4FF00402 		mov	r2, #4
 2108 04ca 1A70     		strb	r2, [r3, #0]
1262:.\Generated_Source\PSoC5/ADC.c ****             ADC_DEC_SHIFT2_REG  = ADC_CFG3_DEC_SHIFT2;  
 2109              		.loc 1 1262 0
 2110 04cc 44F60363 		movw	r3, #:lower16:1073761795
 2111 04d0 C4F20003 		movt	r3, #:upper16:1073761795
 2112 04d4 4FF00602 		mov	r2, #6
 2113 04d8 1A70     		strb	r2, [r3, #0]
1263:.\Generated_Source\PSoC5/ADC.c ****             ADC_DEC_DR2_REG     = ADC_CFG3_DEC_DR2;     
 2114              		.loc 1 1263 0
 2115 04da 44F60463 		movw	r3, #:lower16:1073761796
 2116 04de C4F20003 		movt	r3, #:upper16:1073761796
 2117 04e2 4FF00002 		mov	r2, #0
 2118 04e6 1A70     		strb	r2, [r3, #0]
1264:.\Generated_Source\PSoC5/ADC.c ****             ADC_DEC_DR2H_REG    = ADC_CFG3_DEC_DR2H;    
 2119              		.loc 1 1264 0
 2120 04e8 44F60563 		movw	r3, #:lower16:1073761797
 2121 04ec C4F20003 		movt	r3, #:upper16:1073761797
 2122 04f0 4FF00002 		mov	r2, #0
 2123 04f4 1A70     		strb	r2, [r3, #0]
1265:.\Generated_Source\PSoC5/ADC.c ****             ADC_DEC_DR1_REG     = ADC_CFG3_DEC_DR1;     
 2124              		.loc 1 1265 0
 2125 04f6 44F60663 		movw	r3, #:lower16:1073761798
 2126 04fa C4F20003 		movt	r3, #:upper16:1073761798
 2127 04fe 4FF03F02 		mov	r2, #63
 2128 0502 1A70     		strb	r2, [r3, #0]
1266:.\Generated_Source\PSoC5/ADC.c ****             ADC_DEC_OCOR_REG    = ADC_CFG3_DEC_OCOR;    
 2129              		.loc 1 1266 0
 2130 0504 44F60863 		movw	r3, #:lower16:1073761800
 2131 0508 C4F20003 		movt	r3, #:upper16:1073761800
 2132 050c 4FF00002 		mov	r2, #0
 2133 0510 1A70     		strb	r2, [r3, #0]
1267:.\Generated_Source\PSoC5/ADC.c ****             ADC_DEC_OCORM_REG   = ADC_CFG3_DEC_OCORM;   
 2134              		.loc 1 1267 0
 2135 0512 44F60963 		movw	r3, #:lower16:1073761801
 2136 0516 C4F20003 		movt	r3, #:upper16:1073761801
 2137 051a 4FF00002 		mov	r2, #0
 2138 051e 1A70     		strb	r2, [r3, #0]
1268:.\Generated_Source\PSoC5/ADC.c ****             ADC_DEC_OCORH_REG   = ADC_CFG3_DEC_OCORH;   
 2139              		.loc 1 1268 0
 2140 0520 44F60A63 		movw	r3, #:lower16:1073761802
 2141 0524 C4F20003 		movt	r3, #:upper16:1073761802
 2142 0528 4FF00002 		mov	r2, #0
 2143 052c 1A70     		strb	r2, [r3, #0]
1269:.\Generated_Source\PSoC5/ADC.c ****          
1270:.\Generated_Source\PSoC5/ADC.c ****             ADC_DSM_CR4_REG     = ADC_CFG3_DSM_CR4;     
 2144              		.loc 1 1270 0
 2145 052e 45F68403 		movw	r3, #:lower16:1073764484
 2146 0532 C4F20003 		movt	r3, #:upper16:1073764484
ARM GAS  C:\Users\Victor\AppData\Local\Temp\ccOsbm6Y.s 			page 61


 2147 0536 4FF05002 		mov	r2, #80
 2148 053a 1A70     		strb	r2, [r3, #0]
1271:.\Generated_Source\PSoC5/ADC.c ****             ADC_DSM_CR5_REG     = ADC_CFG3_DSM_CR5;     
 2149              		.loc 1 1271 0
 2150 053c 45F68503 		movw	r3, #:lower16:1073764485
 2151 0540 C4F20003 		movt	r3, #:upper16:1073764485
 2152 0544 4FF02702 		mov	r2, #39
 2153 0548 1A70     		strb	r2, [r3, #0]
1272:.\Generated_Source\PSoC5/ADC.c ****             ADC_DSM_CR6_REG     = ADC_CFG3_DSM_CR6;     
 2154              		.loc 1 1272 0
 2155 054a 45F68603 		movw	r3, #:lower16:1073764486
 2156 054e C4F20003 		movt	r3, #:upper16:1073764486
 2157 0552 4FF02C02 		mov	r2, #44
 2158 0556 1A70     		strb	r2, [r3, #0]
1273:.\Generated_Source\PSoC5/ADC.c ****             ADC_DSM_CR7_REG     = ADC_CFG3_DSM_CR7;     
 2159              		.loc 1 1273 0
 2160 0558 45F68703 		movw	r3, #:lower16:1073764487
 2161 055c C4F20003 		movt	r3, #:upper16:1073764487
 2162 0560 4FF00002 		mov	r2, #0
 2163 0564 1A70     		strb	r2, [r3, #0]
1274:.\Generated_Source\PSoC5/ADC.c ****             ADC_DSM_CR8_REG     = ADC_CFG3_DSM_CR8;     
 2164              		.loc 1 1274 0
 2165 0566 45F68803 		movw	r3, #:lower16:1073764488
 2166 056a C4F20003 		movt	r3, #:upper16:1073764488
 2167 056e 4FF01202 		mov	r2, #18
 2168 0572 1A70     		strb	r2, [r3, #0]
1275:.\Generated_Source\PSoC5/ADC.c ****             ADC_DSM_CR9_REG     = ADC_CFG3_DSM_CR9;     
 2169              		.loc 1 1275 0
 2170 0574 45F68903 		movw	r3, #:lower16:1073764489
 2171 0578 C4F20003 		movt	r3, #:upper16:1073764489
 2172 057c 4FF01302 		mov	r2, #19
 2173 0580 1A70     		strb	r2, [r3, #0]
1276:.\Generated_Source\PSoC5/ADC.c ****             ADC_DSM_CR10_REG    = ADC_CFG3_DSM_CR10;    
 2174              		.loc 1 1276 0
 2175 0582 45F68A03 		movw	r3, #:lower16:1073764490
 2176 0586 C4F20003 		movt	r3, #:upper16:1073764490
 2177 058a 4FF05502 		mov	r2, #85
 2178 058e 1A70     		strb	r2, [r3, #0]
1277:.\Generated_Source\PSoC5/ADC.c ****             ADC_DSM_CR11_REG    = ADC_CFG3_DSM_CR11;    
 2179              		.loc 1 1277 0
 2180 0590 45F68B03 		movw	r3, #:lower16:1073764491
 2181 0594 C4F20003 		movt	r3, #:upper16:1073764491
 2182 0598 4FF05A02 		mov	r2, #90
 2183 059c 1A70     		strb	r2, [r3, #0]
1278:.\Generated_Source\PSoC5/ADC.c ****             ADC_DSM_CR12_REG    = ADC_CFG3_DSM_CR12;    
 2184              		.loc 1 1278 0
 2185 059e 45F68C03 		movw	r3, #:lower16:1073764492
 2186 05a2 C4F20003 		movt	r3, #:upper16:1073764492
 2187 05a6 4FF00502 		mov	r2, #5
 2188 05aa 1A70     		strb	r2, [r3, #0]
1279:.\Generated_Source\PSoC5/ADC.c ****             ADC_DSM_CR14_REG    = ADC_CFG3_DSM_CR14;    
 2189              		.loc 1 1279 0
 2190 05ac 45F68E03 		movw	r3, #:lower16:1073764494
 2191 05b0 C4F20003 		movt	r3, #:upper16:1073764494
 2192 05b4 4FF00102 		mov	r2, #1
 2193 05b8 1A70     		strb	r2, [r3, #0]
1280:.\Generated_Source\PSoC5/ADC.c ****             ADC_DSM_CR15_REG    = ADC_CFG3_DSM_CR15;    
ARM GAS  C:\Users\Victor\AppData\Local\Temp\ccOsbm6Y.s 			page 62


 2194              		.loc 1 1280 0
 2195 05ba 45F68F03 		movw	r3, #:lower16:1073764495
 2196 05be C4F20003 		movt	r3, #:upper16:1073764495
 2197 05c2 4FF01102 		mov	r2, #17
 2198 05c6 1A70     		strb	r2, [r3, #0]
1281:.\Generated_Source\PSoC5/ADC.c ****             ADC_DSM_CR16_REG    = ADC_CFG3_DSM_CR16;    
 2199              		.loc 1 1281 0
 2200 05c8 45F69003 		movw	r3, #:lower16:1073764496
 2201 05cc C4F20003 		movt	r3, #:upper16:1073764496
 2202 05d0 4FF01902 		mov	r2, #25
 2203 05d4 1A70     		strb	r2, [r3, #0]
1282:.\Generated_Source\PSoC5/ADC.c ****             ADC_DSM_CR17_REG    = ADC_CFG3_DSM_CR17;    
 2204              		.loc 1 1282 0
 2205 05d6 45F69103 		movw	r3, #:lower16:1073764497
 2206 05da C4F20003 		movt	r3, #:upper16:1073764497
 2207 05de 6FF06802 		mvn	r2, #104
 2208 05e2 1A70     		strb	r2, [r3, #0]
1283:.\Generated_Source\PSoC5/ADC.c **** 			/* Set DSM_REF0_REG by disabling and enabling the PRESS cirucit */
1284:.\Generated_Source\PSoC5/ADC.c **** 			ADC_SetDSMRef0Reg(ADC_CFG3_DSM_REF0);
 2209              		.loc 1 1284 0
 2210 05e4 4FF04400 		mov	r0, #68
 2211 05e8 FFF7FEFF 		bl	ADC_SetDSMRef0Reg
1285:.\Generated_Source\PSoC5/ADC.c ****             ADC_DSM_REF2_REG    = ADC_CFG3_DSM_REF2;    
 2212              		.loc 1 1285 0
 2213 05ec 45F69403 		movw	r3, #:lower16:1073764500
 2214 05f0 C4F20003 		movt	r3, #:upper16:1073764500
 2215 05f4 4FF05802 		mov	r2, #88
 2216 05f8 1A70     		strb	r2, [r3, #0]
1286:.\Generated_Source\PSoC5/ADC.c ****             ADC_DSM_REF3_REG    = ADC_CFG3_DSM_REF3;    
 2217              		.loc 1 1286 0
 2218 05fa 45F69503 		movw	r3, #:lower16:1073764501
 2219 05fe C4F20003 		movt	r3, #:upper16:1073764501
 2220 0602 4FF00002 		mov	r2, #0
 2221 0606 1A70     		strb	r2, [r3, #0]
1287:.\Generated_Source\PSoC5/ADC.c ****         
1288:.\Generated_Source\PSoC5/ADC.c ****             ADC_DSM_BUF0_REG    = ADC_CFG3_DSM_BUF0;    
 2222              		.loc 1 1288 0
 2223 0608 45F69A03 		movw	r3, #:lower16:1073764506
 2224 060c C4F20003 		movt	r3, #:upper16:1073764506
 2225 0610 4FF00502 		mov	r2, #5
 2226 0614 1A70     		strb	r2, [r3, #0]
1289:.\Generated_Source\PSoC5/ADC.c ****             ADC_DSM_BUF1_REG    = ADC_CFG3_DSM_BUF1;    
 2227              		.loc 1 1289 0
 2228 0616 45F69B03 		movw	r3, #:lower16:1073764507
 2229 061a C4F20003 		movt	r3, #:upper16:1073764507
 2230 061e 4FF00202 		mov	r2, #2
 2231 0622 1A70     		strb	r2, [r3, #0]
1290:.\Generated_Source\PSoC5/ADC.c ****             ADC_DSM_BUF2_REG    = ADC_CFG3_DSM_BUF2;
 2232              		.loc 1 1290 0
 2233 0624 45F69C03 		movw	r3, #:lower16:1073764508
 2234 0628 C4F20003 		movt	r3, #:upper16:1073764508
 2235 062c 4FF00102 		mov	r2, #1
 2236 0630 1A70     		strb	r2, [r3, #0]
1291:.\Generated_Source\PSoC5/ADC.c ****             ADC_DSM_BUF3_REG    = ADC_CFG3_DSM_BUF3;
 2237              		.loc 1 1291 0
 2238 0632 45F69D03 		movw	r3, #:lower16:1073764509
 2239 0636 C4F20003 		movt	r3, #:upper16:1073764509
ARM GAS  C:\Users\Victor\AppData\Local\Temp\ccOsbm6Y.s 			page 63


 2240 063a 4FF00002 		mov	r2, #0
 2241 063e 1A70     		strb	r2, [r3, #0]
1292:.\Generated_Source\PSoC5/ADC.c ****             #if (CY_PSOC5A)
1293:.\Generated_Source\PSoC5/ADC.c ****                 ADC_DSM_CLK_REG    |= ADC_CFG1_DSM_CLK; 
1294:.\Generated_Source\PSoC5/ADC.c ****             #endif /* CY_PSOC5A */
1295:.\Generated_Source\PSoC5/ADC.c ****             
1296:.\Generated_Source\PSoC5/ADC.c ****             /* To select either Vssa or Vref to -ve input of DSM depending on 
1297:.\Generated_Source\PSoC5/ADC.c ****                the input range selected.
1298:.\Generated_Source\PSoC5/ADC.c ****             */
1299:.\Generated_Source\PSoC5/ADC.c ****             
1300:.\Generated_Source\PSoC5/ADC.c ****             #if(ADC_DEFAULT_INPUT_MODE)
1301:.\Generated_Source\PSoC5/ADC.c ****                 #if (CY_PSOC3 || CY_PSOC5LP)
1302:.\Generated_Source\PSoC5/ADC.c ****                     #if (ADC_CFG3_INPUT_RANGE == ADC_IR_VSSA_TO_2VREF)
1303:.\Generated_Source\PSoC5/ADC.c ****                         ADC_AMux_Select(1);
1304:.\Generated_Source\PSoC5/ADC.c ****                     #else
1305:.\Generated_Source\PSoC5/ADC.c ****                         ADC_AMux_Select(0);
 2242              		.loc 1 1305 0
 2243 0640 4FF00000 		mov	r0, #0
 2244 0644 FFF7FEFF 		bl	ADC_AMux_Select
1306:.\Generated_Source\PSoC5/ADC.c ****                     #endif /* ADC_IR_VSSA_TO_2VREF) */
1307:.\Generated_Source\PSoC5/ADC.c ****                 #elif (CY_PSOC5A)
1308:.\Generated_Source\PSoC5/ADC.c ****                     ADC_AMux_Select(0);
1309:.\Generated_Source\PSoC5/ADC.c ****                 #endif /* CY_PSOC3 || CY_PSOC5LP */
1310:.\Generated_Source\PSoC5/ADC.c ****             #endif /* ADC_DEFAULT_INPUT_MODE */
1311:.\Generated_Source\PSoC5/ADC.c ****                        
1312:.\Generated_Source\PSoC5/ADC.c ****             /* Set the Conversion stop if resolution is above 16 bit and 
1313:.\Generated_Source\PSoC5/ADC.c ****                conversion  mode is Single sample */
1314:.\Generated_Source\PSoC5/ADC.c ****             #if(ADC_CFG3_RESOLUTION > 16 && \
1315:.\Generated_Source\PSoC5/ADC.c ****                 ADC_CFG3_CONVMODE == ADC_MODE_SINGLE_SAMPLE) 
1316:.\Generated_Source\PSoC5/ADC.c ****                 ADC_stopConversion = 1;
1317:.\Generated_Source\PSoC5/ADC.c ****             #endif /* Single sample with resolution above 16 bits */
1318:.\Generated_Source\PSoC5/ADC.c ****             
1319:.\Generated_Source\PSoC5/ADC.c ****             ADC_CountsPerVolt = (uint32)ADC_CFG3_COUNTS_PER_VOLT;
 2245              		.loc 1 1319 0
 2246 0648 40F20003 		movw	r3, #:lower16:ADC_CountsPerVolt
 2247 064c C0F20003 		movt	r3, #:upper16:ADC_CountsPerVolt
 2248 0650 4FF47A42 		mov	r2, #64000
 2249 0654 1A60     		str	r2, [r3, #0]
1320:.\Generated_Source\PSoC5/ADC.c ****             
1321:.\Generated_Source\PSoC5/ADC.c ****             /* Start and set interrupt vector */
1322:.\Generated_Source\PSoC5/ADC.c ****             CyIntSetPriority(ADC_IRQ__INTC_NUMBER, ADC_IRQ_INTC_PRIOR_NUMBER);
 2250              		.loc 1 1322 0
 2251 0656 4FF01D00 		mov	r0, #29
 2252 065a 4FF00701 		mov	r1, #7
 2253 065e FFF7FEFF 		bl	CyIntSetPriority
1323:.\Generated_Source\PSoC5/ADC.c ****             CyIntSetVector(ADC_IRQ__INTC_NUMBER, ADC_ISR3 );
 2254              		.loc 1 1323 0
 2255 0662 4FF01D00 		mov	r0, #29
 2256 0666 40F20001 		movw	r1, #:lower16:ADC_ISR3
 2257 066a C0F20001 		movt	r1, #:upper16:ADC_ISR3
 2258 066e FFF7FEFF 		bl	CyIntSetVector
1324:.\Generated_Source\PSoC5/ADC.c ****             CyIntEnable(ADC_IRQ__INTC_NUMBER);
 2259              		.loc 1 1324 0
 2260 0672 4EF20013 		movw	r3, #:lower16:-536813312
 2261 0676 CEF20003 		movt	r3, #:upper16:-536813312
 2262 067a 4FF00052 		mov	r2, #536870912
 2263 067e 1A60     		str	r2, [r3, #0]
ARM GAS  C:\Users\Victor\AppData\Local\Temp\ccOsbm6Y.s 			page 64


 2264              	.L87:
1325:.\Generated_Source\PSoC5/ADC.c ****         }
1326:.\Generated_Source\PSoC5/ADC.c ****     #endif /* ADC_DEFAULT_NUM_CONFIGS > 3 */
1327:.\Generated_Source\PSoC5/ADC.c **** 
1328:.\Generated_Source\PSoC5/ADC.c ****     #if(ADC_DEFAULT_NUM_CONFIGS == 4)
1329:.\Generated_Source\PSoC5/ADC.c ****         if (config == 4u)
 2265              		.loc 1 1329 0
 2266 0680 FB79     		ldrb	r3, [r7, #7]	@ zero_extendqisi2
 2267 0682 042B     		cmp	r3, #4
 2268 0684 40F0E880 		bne	.L89
1330:.\Generated_Source\PSoC5/ADC.c ****         {
1331:.\Generated_Source\PSoC5/ADC.c ****             /* Fourth Config */
1332:.\Generated_Source\PSoC5/ADC.c ****             ADC_DEC_CR_REG      = ADC_CFG4_DEC_CR;      
 2269              		.loc 1 1332 0
 2270 0688 44F60063 		movw	r3, #:lower16:1073761792
 2271 068c C4F20003 		movt	r3, #:upper16:1073761792
 2272 0690 4FF03802 		mov	r2, #56
 2273 0694 1A70     		strb	r2, [r3, #0]
1333:.\Generated_Source\PSoC5/ADC.c ****             ADC_DEC_SHIFT1_REG  = ADC_CFG4_DEC_SHIFT1;  
 2274              		.loc 1 1333 0
 2275 0696 44F60263 		movw	r3, #:lower16:1073761794
 2276 069a C4F20003 		movt	r3, #:upper16:1073761794
 2277 069e 4FF00402 		mov	r2, #4
 2278 06a2 1A70     		strb	r2, [r3, #0]
1334:.\Generated_Source\PSoC5/ADC.c ****             ADC_DEC_SHIFT2_REG  = ADC_CFG4_DEC_SHIFT2;  
 2279              		.loc 1 1334 0
 2280 06a4 44F60363 		movw	r3, #:lower16:1073761795
 2281 06a8 C4F20003 		movt	r3, #:upper16:1073761795
 2282 06ac 4FF00602 		mov	r2, #6
 2283 06b0 1A70     		strb	r2, [r3, #0]
1335:.\Generated_Source\PSoC5/ADC.c ****             ADC_DEC_DR2_REG     = ADC_CFG4_DEC_DR2;     
 2284              		.loc 1 1335 0
 2285 06b2 44F60463 		movw	r3, #:lower16:1073761796
 2286 06b6 C4F20003 		movt	r3, #:upper16:1073761796
 2287 06ba 4FF00002 		mov	r2, #0
 2288 06be 1A70     		strb	r2, [r3, #0]
1336:.\Generated_Source\PSoC5/ADC.c ****             ADC_DEC_DR2H_REG    = ADC_CFG4_DEC_DR2H;    
 2289              		.loc 1 1336 0
 2290 06c0 44F60563 		movw	r3, #:lower16:1073761797
 2291 06c4 C4F20003 		movt	r3, #:upper16:1073761797
 2292 06c8 4FF00002 		mov	r2, #0
 2293 06cc 1A70     		strb	r2, [r3, #0]
1337:.\Generated_Source\PSoC5/ADC.c ****             ADC_DEC_DR1_REG     = ADC_CFG4_DEC_DR1;     
 2294              		.loc 1 1337 0
 2295 06ce 44F60663 		movw	r3, #:lower16:1073761798
 2296 06d2 C4F20003 		movt	r3, #:upper16:1073761798
 2297 06d6 4FF03F02 		mov	r2, #63
 2298 06da 1A70     		strb	r2, [r3, #0]
1338:.\Generated_Source\PSoC5/ADC.c ****             ADC_DEC_OCOR_REG    = ADC_CFG4_DEC_OCOR;    
 2299              		.loc 1 1338 0
 2300 06dc 44F60863 		movw	r3, #:lower16:1073761800
 2301 06e0 C4F20003 		movt	r3, #:upper16:1073761800
 2302 06e4 4FF00002 		mov	r2, #0
 2303 06e8 1A70     		strb	r2, [r3, #0]
1339:.\Generated_Source\PSoC5/ADC.c ****             ADC_DEC_OCORM_REG   = ADC_CFG4_DEC_OCORM;   
 2304              		.loc 1 1339 0
 2305 06ea 44F60963 		movw	r3, #:lower16:1073761801
ARM GAS  C:\Users\Victor\AppData\Local\Temp\ccOsbm6Y.s 			page 65


 2306 06ee C4F20003 		movt	r3, #:upper16:1073761801
 2307 06f2 4FF00002 		mov	r2, #0
 2308 06f6 1A70     		strb	r2, [r3, #0]
1340:.\Generated_Source\PSoC5/ADC.c ****             ADC_DEC_OCORH_REG   = ADC_CFG4_DEC_OCORH;   
 2309              		.loc 1 1340 0
 2310 06f8 44F60A63 		movw	r3, #:lower16:1073761802
 2311 06fc C4F20003 		movt	r3, #:upper16:1073761802
 2312 0700 4FF00002 		mov	r2, #0
 2313 0704 1A70     		strb	r2, [r3, #0]
1341:.\Generated_Source\PSoC5/ADC.c **** 
1342:.\Generated_Source\PSoC5/ADC.c ****             ADC_DSM_CR4_REG     = ADC_CFG4_DSM_CR4;     
 2314              		.loc 1 1342 0
 2315 0706 45F68403 		movw	r3, #:lower16:1073764484
 2316 070a C4F20003 		movt	r3, #:upper16:1073764484
 2317 070e 4FF05002 		mov	r2, #80
 2318 0712 1A70     		strb	r2, [r3, #0]
1343:.\Generated_Source\PSoC5/ADC.c ****             ADC_DSM_CR5_REG     = ADC_CFG4_DSM_CR5;     
 2319              		.loc 1 1343 0
 2320 0714 45F68503 		movw	r3, #:lower16:1073764485
 2321 0718 C4F20003 		movt	r3, #:upper16:1073764485
 2322 071c 4FF02702 		mov	r2, #39
 2323 0720 1A70     		strb	r2, [r3, #0]
1344:.\Generated_Source\PSoC5/ADC.c ****             ADC_DSM_CR6_REG     = ADC_CFG4_DSM_CR6;     
 2324              		.loc 1 1344 0
 2325 0722 45F68603 		movw	r3, #:lower16:1073764486
 2326 0726 C4F20003 		movt	r3, #:upper16:1073764486
 2327 072a 4FF02C02 		mov	r2, #44
 2328 072e 1A70     		strb	r2, [r3, #0]
1345:.\Generated_Source\PSoC5/ADC.c ****             ADC_DSM_CR7_REG     = ADC_CFG4_DSM_CR7;     
 2329              		.loc 1 1345 0
 2330 0730 45F68703 		movw	r3, #:lower16:1073764487
 2331 0734 C4F20003 		movt	r3, #:upper16:1073764487
 2332 0738 4FF00002 		mov	r2, #0
 2333 073c 1A70     		strb	r2, [r3, #0]
1346:.\Generated_Source\PSoC5/ADC.c ****             ADC_DSM_CR8_REG     = ADC_CFG4_DSM_CR8;     
 2334              		.loc 1 1346 0
 2335 073e 45F68803 		movw	r3, #:lower16:1073764488
 2336 0742 C4F20003 		movt	r3, #:upper16:1073764488
 2337 0746 4FF01202 		mov	r2, #18
 2338 074a 1A70     		strb	r2, [r3, #0]
1347:.\Generated_Source\PSoC5/ADC.c ****             ADC_DSM_CR9_REG     = ADC_CFG4_DSM_CR9;     
 2339              		.loc 1 1347 0
 2340 074c 45F68903 		movw	r3, #:lower16:1073764489
 2341 0750 C4F20003 		movt	r3, #:upper16:1073764489
 2342 0754 4FF01302 		mov	r2, #19
 2343 0758 1A70     		strb	r2, [r3, #0]
1348:.\Generated_Source\PSoC5/ADC.c ****             ADC_DSM_CR10_REG    = ADC_CFG4_DSM_CR10;    
 2344              		.loc 1 1348 0
 2345 075a 45F68A03 		movw	r3, #:lower16:1073764490
 2346 075e C4F20003 		movt	r3, #:upper16:1073764490
 2347 0762 4FF05502 		mov	r2, #85
 2348 0766 1A70     		strb	r2, [r3, #0]
1349:.\Generated_Source\PSoC5/ADC.c ****             ADC_DSM_CR11_REG    = ADC_CFG4_DSM_CR11;    
 2349              		.loc 1 1349 0
 2350 0768 45F68B03 		movw	r3, #:lower16:1073764491
 2351 076c C4F20003 		movt	r3, #:upper16:1073764491
 2352 0770 4FF05A02 		mov	r2, #90
ARM GAS  C:\Users\Victor\AppData\Local\Temp\ccOsbm6Y.s 			page 66


 2353 0774 1A70     		strb	r2, [r3, #0]
1350:.\Generated_Source\PSoC5/ADC.c ****             ADC_DSM_CR12_REG    = ADC_CFG4_DSM_CR12;    
 2354              		.loc 1 1350 0
 2355 0776 45F68C03 		movw	r3, #:lower16:1073764492
 2356 077a C4F20003 		movt	r3, #:upper16:1073764492
 2357 077e 4FF00502 		mov	r2, #5
 2358 0782 1A70     		strb	r2, [r3, #0]
1351:.\Generated_Source\PSoC5/ADC.c ****             ADC_DSM_CR14_REG    = ADC_CFG4_DSM_CR14;    
 2359              		.loc 1 1351 0
 2360 0784 45F68E03 		movw	r3, #:lower16:1073764494
 2361 0788 C4F20003 		movt	r3, #:upper16:1073764494
 2362 078c 4FF00102 		mov	r2, #1
 2363 0790 1A70     		strb	r2, [r3, #0]
1352:.\Generated_Source\PSoC5/ADC.c ****             ADC_DSM_CR15_REG    = ADC_CFG4_DSM_CR15;    
 2364              		.loc 1 1352 0
 2365 0792 45F68F03 		movw	r3, #:lower16:1073764495
 2366 0796 C4F20003 		movt	r3, #:upper16:1073764495
 2367 079a 4FF01102 		mov	r2, #17
 2368 079e 1A70     		strb	r2, [r3, #0]
1353:.\Generated_Source\PSoC5/ADC.c ****             ADC_DSM_CR16_REG    = ADC_CFG4_DSM_CR16;    
 2369              		.loc 1 1353 0
 2370 07a0 45F69003 		movw	r3, #:lower16:1073764496
 2371 07a4 C4F20003 		movt	r3, #:upper16:1073764496
 2372 07a8 4FF01902 		mov	r2, #25
 2373 07ac 1A70     		strb	r2, [r3, #0]
1354:.\Generated_Source\PSoC5/ADC.c ****             ADC_DSM_CR17_REG    = ADC_CFG4_DSM_CR17;
 2374              		.loc 1 1354 0
 2375 07ae 45F69103 		movw	r3, #:lower16:1073764497
 2376 07b2 C4F20003 		movt	r3, #:upper16:1073764497
 2377 07b6 6FF06802 		mvn	r2, #104
 2378 07ba 1A70     		strb	r2, [r3, #0]
1355:.\Generated_Source\PSoC5/ADC.c **** 			/* Set DSM_REF0_REG by disabling and enabling the PRESS cirucit */
1356:.\Generated_Source\PSoC5/ADC.c **** 			ADC_SetDSMRef0Reg(ADC_CFG4_DSM_REF0);
 2379              		.loc 1 1356 0
 2380 07bc 4FF04400 		mov	r0, #68
 2381 07c0 FFF7FEFF 		bl	ADC_SetDSMRef0Reg
1357:.\Generated_Source\PSoC5/ADC.c ****             ADC_DSM_REF2_REG    = ADC_CFG4_DSM_REF2;    
 2382              		.loc 1 1357 0
 2383 07c4 45F69403 		movw	r3, #:lower16:1073764500
 2384 07c8 C4F20003 		movt	r3, #:upper16:1073764500
 2385 07cc 4FF05802 		mov	r2, #88
 2386 07d0 1A70     		strb	r2, [r3, #0]
1358:.\Generated_Source\PSoC5/ADC.c ****             ADC_DSM_REF3_REG    = ADC_CFG4_DSM_REF3;    
 2387              		.loc 1 1358 0
 2388 07d2 45F69503 		movw	r3, #:lower16:1073764501
 2389 07d6 C4F20003 		movt	r3, #:upper16:1073764501
 2390 07da 4FF00002 		mov	r2, #0
 2391 07de 1A70     		strb	r2, [r3, #0]
1359:.\Generated_Source\PSoC5/ADC.c ****         
1360:.\Generated_Source\PSoC5/ADC.c ****             ADC_DSM_BUF0_REG    = ADC_CFG4_DSM_BUF0;    
 2392              		.loc 1 1360 0
 2393 07e0 45F69A03 		movw	r3, #:lower16:1073764506
 2394 07e4 C4F20003 		movt	r3, #:upper16:1073764506
 2395 07e8 4FF00502 		mov	r2, #5
 2396 07ec 1A70     		strb	r2, [r3, #0]
1361:.\Generated_Source\PSoC5/ADC.c ****             ADC_DSM_BUF1_REG    = ADC_CFG4_DSM_BUF1;    
 2397              		.loc 1 1361 0
ARM GAS  C:\Users\Victor\AppData\Local\Temp\ccOsbm6Y.s 			page 67


 2398 07ee 45F69B03 		movw	r3, #:lower16:1073764507
 2399 07f2 C4F20003 		movt	r3, #:upper16:1073764507
 2400 07f6 4FF00202 		mov	r2, #2
 2401 07fa 1A70     		strb	r2, [r3, #0]
1362:.\Generated_Source\PSoC5/ADC.c ****             ADC_DSM_BUF2_REG    = ADC_CFG4_DSM_BUF2;
 2402              		.loc 1 1362 0
 2403 07fc 45F69C03 		movw	r3, #:lower16:1073764508
 2404 0800 C4F20003 		movt	r3, #:upper16:1073764508
 2405 0804 4FF00102 		mov	r2, #1
 2406 0808 1A70     		strb	r2, [r3, #0]
1363:.\Generated_Source\PSoC5/ADC.c ****             ADC_DSM_BUF3_REG    = ADC_CFG4_DSM_BUF3;
 2407              		.loc 1 1363 0
 2408 080a 45F69D03 		movw	r3, #:lower16:1073764509
 2409 080e C4F20003 		movt	r3, #:upper16:1073764509
 2410 0812 4FF00002 		mov	r2, #0
 2411 0816 1A70     		strb	r2, [r3, #0]
1364:.\Generated_Source\PSoC5/ADC.c ****             #if (CY_PSOC5A)
1365:.\Generated_Source\PSoC5/ADC.c ****                 ADC_DSM_CLK_REG    |= ADC_CFG1_DSM_CLK; 
1366:.\Generated_Source\PSoC5/ADC.c ****             #endif /* CY_PSOC5A */
1367:.\Generated_Source\PSoC5/ADC.c ****             
1368:.\Generated_Source\PSoC5/ADC.c ****             /* To select either Vssa or Vref to -ve input of DSM depending on 
1369:.\Generated_Source\PSoC5/ADC.c ****                the input range selected.
1370:.\Generated_Source\PSoC5/ADC.c ****             */
1371:.\Generated_Source\PSoC5/ADC.c ****             
1372:.\Generated_Source\PSoC5/ADC.c ****             #if(ADC_DEFAULT_INPUT_MODE)
1373:.\Generated_Source\PSoC5/ADC.c ****                 #if (CY_PSOC3 || CY_PSOC5LP)
1374:.\Generated_Source\PSoC5/ADC.c ****                     #if (ADC_CFG4_INPUT_RANGE == ADC_IR_VSSA_TO_2VREF)
1375:.\Generated_Source\PSoC5/ADC.c ****                         ADC_AMux_Select(1);
1376:.\Generated_Source\PSoC5/ADC.c ****                     #else
1377:.\Generated_Source\PSoC5/ADC.c ****                         ADC_AMux_Select(0);
 2412              		.loc 1 1377 0
 2413 0818 4FF00000 		mov	r0, #0
 2414 081c FFF7FEFF 		bl	ADC_AMux_Select
1378:.\Generated_Source\PSoC5/ADC.c ****                     #endif /* ADC_IR_VSSA_TO_2VREF) */
1379:.\Generated_Source\PSoC5/ADC.c ****                 #elif (CY_PSOC5A)
1380:.\Generated_Source\PSoC5/ADC.c ****                     ADC_AMux_Select(0);
1381:.\Generated_Source\PSoC5/ADC.c ****                 #endif /* CY_PSOC3 || CY_PSOC5LP */
1382:.\Generated_Source\PSoC5/ADC.c ****             #endif /* ADC_DEFAULT_INPUT_MODE */
1383:.\Generated_Source\PSoC5/ADC.c ****                        
1384:.\Generated_Source\PSoC5/ADC.c ****             /* Set the Conversion stop if resolution is above 16 bit and 
1385:.\Generated_Source\PSoC5/ADC.c ****                conversion mode is Single sample */
1386:.\Generated_Source\PSoC5/ADC.c ****             #if(ADC_CFG4_RESOLUTION > 16 && \
1387:.\Generated_Source\PSoC5/ADC.c ****                 ADC_CFG4_CONVMODE == ADC_MODE_SINGLE_SAMPLE) 
1388:.\Generated_Source\PSoC5/ADC.c ****                 ADC_stopConversion = 1;
1389:.\Generated_Source\PSoC5/ADC.c ****             #endif /* Single sample with resolution above 16 bits */
1390:.\Generated_Source\PSoC5/ADC.c ****             
1391:.\Generated_Source\PSoC5/ADC.c ****             ADC_CountsPerVolt = (uint32)ADC_CFG4_COUNTS_PER_VOLT;
 2415              		.loc 1 1391 0
 2416 0820 40F20003 		movw	r3, #:lower16:ADC_CountsPerVolt
 2417 0824 C0F20003 		movt	r3, #:upper16:ADC_CountsPerVolt
 2418 0828 4FF47A42 		mov	r2, #64000
 2419 082c 1A60     		str	r2, [r3, #0]
1392:.\Generated_Source\PSoC5/ADC.c **** 
1393:.\Generated_Source\PSoC5/ADC.c ****             /* Start and set interrupt vector */
1394:.\Generated_Source\PSoC5/ADC.c ****             CyIntSetPriority(ADC_IRQ__INTC_NUMBER, ADC_IRQ_INTC_PRIOR_NUMBER);
 2420              		.loc 1 1394 0
 2421 082e 4FF01D00 		mov	r0, #29
ARM GAS  C:\Users\Victor\AppData\Local\Temp\ccOsbm6Y.s 			page 68


 2422 0832 4FF00701 		mov	r1, #7
 2423 0836 FFF7FEFF 		bl	CyIntSetPriority
1395:.\Generated_Source\PSoC5/ADC.c ****             CyIntSetVector(ADC_IRQ__INTC_NUMBER, ADC_ISR4 );
 2424              		.loc 1 1395 0
 2425 083a 4FF01D00 		mov	r0, #29
 2426 083e 40F20001 		movw	r1, #:lower16:ADC_ISR4
 2427 0842 C0F20001 		movt	r1, #:upper16:ADC_ISR4
 2428 0846 FFF7FEFF 		bl	CyIntSetVector
1396:.\Generated_Source\PSoC5/ADC.c ****             CyIntEnable(ADC_IRQ__INTC_NUMBER);
 2429              		.loc 1 1396 0
 2430 084a 4EF20013 		movw	r3, #:lower16:-536813312
 2431 084e CEF20003 		movt	r3, #:upper16:-536813312
 2432 0852 4FF00052 		mov	r2, #536870912
 2433 0856 1A60     		str	r2, [r3, #0]
 2434              	.L89:
1397:.\Generated_Source\PSoC5/ADC.c ****         }
1398:.\Generated_Source\PSoC5/ADC.c ****     #endif /* ADC_DEFAULT_NUM_CONFIGS > 4 */
1399:.\Generated_Source\PSoC5/ADC.c **** }
 2435              		.loc 1 1399 0
 2436 0858 07F10807 		add	r7, r7, #8
 2437 085c BD46     		mov	sp, r7
 2438 085e 80BD     		pop	{r7, pc}
 2439              		.cfi_endproc
 2440              	.LFE21:
 2441              		.size	ADC_InitConfig, .-ADC_InitConfig
 2442              		.section	.text.ADC_RoundValue,"ax",%progbits
 2443              		.align	2
 2444              		.global	ADC_RoundValue
 2445              		.thumb
 2446              		.thumb_func
 2447              		.type	ADC_RoundValue, %function
 2448              	ADC_RoundValue:
 2449              	.LFB22:
1400:.\Generated_Source\PSoC5/ADC.c **** 
1401:.\Generated_Source\PSoC5/ADC.c **** 
1402:.\Generated_Source\PSoC5/ADC.c **** /*******************************************************************************
1403:.\Generated_Source\PSoC5/ADC.c **** * Function Name: ADC_RoundValue(uint32 busClockFreq, 
1404:.\Generated_Source\PSoC5/ADC.c **** *                                            uint32 clockFreq)
1405:.\Generated_Source\PSoC5/ADC.c **** ********************************************************************************
1406:.\Generated_Source\PSoC5/ADC.c **** *
1407:.\Generated_Source\PSoC5/ADC.c **** * Summary:
1408:.\Generated_Source\PSoC5/ADC.c **** *  Function to round an integer value.
1409:.\Generated_Source\PSoC5/ADC.c **** *
1410:.\Generated_Source\PSoC5/ADC.c **** * Parameters:  
1411:.\Generated_Source\PSoC5/ADC.c **** *  busClockFreq:  Frequency of the bus clock.
1412:.\Generated_Source\PSoC5/ADC.c **** *  clockFreq:  Frequency of the component clock.
1413:.\Generated_Source\PSoC5/ADC.c **** *
1414:.\Generated_Source\PSoC5/ADC.c **** * Return: 
1415:.\Generated_Source\PSoC5/ADC.c **** *  uint16: rounded integer value.
1416:.\Generated_Source\PSoC5/ADC.c **** *
1417:.\Generated_Source\PSoC5/ADC.c **** *******************************************************************************/
1418:.\Generated_Source\PSoC5/ADC.c **** uint16 ADC_RoundValue(uint32 busClockFreq, uint32 clockFreq) \
1419:.\Generated_Source\PSoC5/ADC.c ****                                   
1420:.\Generated_Source\PSoC5/ADC.c **** {
 2450              		.loc 1 1420 0
 2451              		.cfi_startproc
 2452              		@ args = 0, pretend = 0, frame = 16
ARM GAS  C:\Users\Victor\AppData\Local\Temp\ccOsbm6Y.s 			page 69


 2453              		@ frame_needed = 1, uses_anonymous_args = 0
 2454              		@ link register save eliminated.
 2455 0000 80B4     		push	{r7}
 2456              	.LCFI58:
 2457              		.cfi_def_cfa_offset 4
 2458 0002 85B0     		sub	sp, sp, #20
 2459              	.LCFI59:
 2460              		.cfi_def_cfa_offset 24
 2461 0004 00AF     		add	r7, sp, #0
 2462              		.cfi_offset 7, -4
 2463              	.LCFI60:
 2464              		.cfi_def_cfa_register 7
 2465 0006 7860     		str	r0, [r7, #4]
 2466 0008 3960     		str	r1, [r7, #0]
1421:.\Generated_Source\PSoC5/ADC.c ****     uint16 divider1, divider2;
1422:.\Generated_Source\PSoC5/ADC.c ****     
1423:.\Generated_Source\PSoC5/ADC.c ****     divider1 = ((busClockFreq * 10) / clockFreq);
 2467              		.loc 1 1423 0
 2468 000a 7A68     		ldr	r2, [r7, #4]
 2469 000c 1346     		mov	r3, r2
 2470 000e 4FEA8303 		lsl	r3, r3, #2
 2471 0012 1344     		add	r3, r3, r2
 2472 0014 4FEA4303 		lsl	r3, r3, #1
 2473 0018 1A46     		mov	r2, r3
 2474 001a 3B68     		ldr	r3, [r7, #0]
 2475 001c B2FBF3F3 		udiv	r3, r2, r3
 2476 0020 BB81     		strh	r3, [r7, #12]	@ movhi
1424:.\Generated_Source\PSoC5/ADC.c ****     divider2 = (busClockFreq / clockFreq);
 2477              		.loc 1 1424 0
 2478 0022 7A68     		ldr	r2, [r7, #4]
 2479 0024 3B68     		ldr	r3, [r7, #0]
 2480 0026 B2FBF3F3 		udiv	r3, r2, r3
 2481 002a FB81     		strh	r3, [r7, #14]	@ movhi
1425:.\Generated_Source\PSoC5/ADC.c ****     if ( divider1 - (divider2 * 10) >= 5)
 2482              		.loc 1 1425 0
 2483 002c BA89     		ldrh	r2, [r7, #12]
 2484 002e FB89     		ldrh	r3, [r7, #14]
 2485 0030 6FF00901 		mvn	r1, #9
 2486 0034 01FB03F3 		mul	r3, r1, r3
 2487 0038 1344     		add	r3, r2, r3
 2488 003a 042B     		cmp	r3, #4
 2489 003c 03DD     		ble	.L91
1426:.\Generated_Source\PSoC5/ADC.c ****     {
1427:.\Generated_Source\PSoC5/ADC.c ****         divider2 += 1;
 2490              		.loc 1 1427 0
 2491 003e FB89     		ldrh	r3, [r7, #14]	@ movhi
 2492 0040 03F10103 		add	r3, r3, #1
 2493 0044 FB81     		strh	r3, [r7, #14]	@ movhi
 2494              	.L91:
1428:.\Generated_Source\PSoC5/ADC.c ****     }
1429:.\Generated_Source\PSoC5/ADC.c ****     return divider2;
 2495              		.loc 1 1429 0
 2496 0046 FB89     		ldrh	r3, [r7, #14]
1430:.\Generated_Source\PSoC5/ADC.c **** }
 2497              		.loc 1 1430 0
 2498 0048 1846     		mov	r0, r3
 2499 004a 07F11407 		add	r7, r7, #20
ARM GAS  C:\Users\Victor\AppData\Local\Temp\ccOsbm6Y.s 			page 70


 2500 004e BD46     		mov	sp, r7
 2501 0050 80BC     		pop	{r7}
 2502 0052 7047     		bx	lr
 2503              		.cfi_endproc
 2504              	.LFE22:
 2505              		.size	ADC_RoundValue, .-ADC_RoundValue
 2506              		.section	.text.ADC_SelectConfiguration,"ax",%progbits
 2507              		.align	2
 2508              		.global	ADC_SelectConfiguration
 2509              		.thumb
 2510              		.thumb_func
 2511              		.type	ADC_SelectConfiguration, %function
 2512              	ADC_SelectConfiguration:
 2513              	.LFB23:
1431:.\Generated_Source\PSoC5/ADC.c ****          
1432:.\Generated_Source\PSoC5/ADC.c **** 
1433:.\Generated_Source\PSoC5/ADC.c **** /*******************************************************************************
1434:.\Generated_Source\PSoC5/ADC.c **** * Function Name: ADC_SelectCofiguration(uint8 config, 
1435:.\Generated_Source\PSoC5/ADC.c **** *                                                    uint8 restart)
1436:.\Generated_Source\PSoC5/ADC.c **** ********************************************************************************
1437:.\Generated_Source\PSoC5/ADC.c **** *
1438:.\Generated_Source\PSoC5/ADC.c **** * Summary:
1439:.\Generated_Source\PSoC5/ADC.c **** *  Selects the user defined configuration. This API first stops the current ADC
1440:.\Generated_Source\PSoC5/ADC.c **** *  and then initializes the registers with the default values for that config. 
1441:.\Generated_Source\PSoC5/ADC.c **** *  This also performs calibration by writing GCOR registers with trim values 
1442:.\Generated_Source\PSoC5/ADC.c **** *  stored in the flash.
1443:.\Generated_Source\PSoC5/ADC.c **** *
1444:.\Generated_Source\PSoC5/ADC.c **** * Parameters:  
1445:.\Generated_Source\PSoC5/ADC.c **** *  config:  configuration user wants to select.
1446:.\Generated_Source\PSoC5/ADC.c **** *
1447:.\Generated_Source\PSoC5/ADC.c **** * Return: 
1448:.\Generated_Source\PSoC5/ADC.c **** *  void
1449:.\Generated_Source\PSoC5/ADC.c **** *
1450:.\Generated_Source\PSoC5/ADC.c **** *******************************************************************************/
1451:.\Generated_Source\PSoC5/ADC.c **** void ADC_SelectConfiguration(uint8 config, uint8 restart) \
1452:.\Generated_Source\PSoC5/ADC.c ****                                               
1453:.\Generated_Source\PSoC5/ADC.c **** {
 2514              		.loc 1 1453 0
 2515              		.cfi_startproc
 2516              		@ args = 0, pretend = 0, frame = 24
 2517              		@ frame_needed = 1, uses_anonymous_args = 0
 2518 0000 80B5     		push	{r7, lr}
 2519              	.LCFI61:
 2520              		.cfi_def_cfa_offset 8
 2521 0002 86B0     		sub	sp, sp, #24
 2522              	.LCFI62:
 2523              		.cfi_def_cfa_offset 32
 2524 0004 00AF     		add	r7, sp, #0
 2525              		.cfi_offset 14, -4
 2526              		.cfi_offset 7, -8
 2527              	.LCFI63:
 2528              		.cfi_def_cfa_register 7
 2529 0006 0246     		mov	r2, r0
 2530 0008 0B46     		mov	r3, r1
 2531 000a FA71     		strb	r2, [r7, #7]
 2532 000c BB71     		strb	r3, [r7, #6]
1454:.\Generated_Source\PSoC5/ADC.c ****     uint8 inputRange = 0, resolution = 16;
ARM GAS  C:\Users\Victor\AppData\Local\Temp\ccOsbm6Y.s 			page 71


 2533              		.loc 1 1454 0
 2534 000e 4FF00003 		mov	r3, #0
 2535 0012 BB73     		strb	r3, [r7, #14]
 2536 0014 4FF01003 		mov	r3, #16
 2537 0018 FB73     		strb	r3, [r7, #15]
1455:.\Generated_Source\PSoC5/ADC.c ****     uint16 idealGain = 0, adcClockDivider = 1;    
 2538              		.loc 1 1455 0
 2539 001a 4FF00003 		mov	r3, #0
 2540 001e 3B82     		strh	r3, [r7, #16]	@ movhi
 2541 0020 4FF00103 		mov	r3, #1
 2542 0024 7B82     		strh	r3, [r7, #18]	@ movhi
1456:.\Generated_Source\PSoC5/ADC.c ****     uint16 cpClockDivider = 1;
 2543              		.loc 1 1456 0
 2544 0026 4FF00103 		mov	r3, #1
 2545 002a BB82     		strh	r3, [r7, #20]	@ movhi
1457:.\Generated_Source\PSoC5/ADC.c ****     uint16 idealOddGain = 0;
 2546              		.loc 1 1457 0
 2547 002c 4FF00003 		mov	r3, #0
 2548 0030 FB82     		strh	r3, [r7, #22]	@ movhi
1458:.\Generated_Source\PSoC5/ADC.c ****     
1459:.\Generated_Source\PSoC5/ADC.c ****     /* Check whether the config is valid or not */
1460:.\Generated_Source\PSoC5/ADC.c ****     if( config <= ADC_DEFAULT_NUM_CONFIGS)
 2549              		.loc 1 1460 0
 2550 0032 FB79     		ldrb	r3, [r7, #7]	@ zero_extendqisi2
 2551 0034 042B     		cmp	r3, #4
 2552 0036 00F2D780 		bhi	.L100
1461:.\Generated_Source\PSoC5/ADC.c ****     {   
1462:.\Generated_Source\PSoC5/ADC.c ****        /* Set the flag to ensure start() API dont override the config
1463:.\Generated_Source\PSoC5/ADC.c ****            selected if ADC is not already started */
1464:.\Generated_Source\PSoC5/ADC.c ****         if(ADC_initVar == 0u)
 2553              		.loc 1 1464 0
 2554 003a 40F20003 		movw	r3, #:lower16:ADC_initVar
 2555 003e C0F20003 		movt	r3, #:upper16:ADC_initVar
 2556 0042 1B78     		ldrb	r3, [r3, #0]	@ zero_extendqisi2
 2557 0044 002B     		cmp	r3, #0
 2558 0046 06D1     		bne	.L95
1465:.\Generated_Source\PSoC5/ADC.c ****         {
1466:.\Generated_Source\PSoC5/ADC.c ****             ADC_started = 1u;
 2559              		.loc 1 1466 0
 2560 0048 40F20003 		movw	r3, #:lower16:ADC_started
 2561 004c C0F20003 		movt	r3, #:upper16:ADC_started
 2562 0050 4FF00102 		mov	r2, #1
 2563 0054 1A70     		strb	r2, [r3, #0]
 2564              	.L95:
1467:.\Generated_Source\PSoC5/ADC.c ****         }
1468:.\Generated_Source\PSoC5/ADC.c **** 		
1469:.\Generated_Source\PSoC5/ADC.c **** 		/* Update the config flag */
1470:.\Generated_Source\PSoC5/ADC.c **** 		ADC_Config = config;
 2565              		.loc 1 1470 0
 2566 0056 40F20003 		movw	r3, #:lower16:ADC_Config
 2567 005a C0F20003 		movt	r3, #:upper16:ADC_Config
 2568 005e FA79     		ldrb	r2, [r7, #7]
 2569 0060 1A70     		strb	r2, [r3, #0]
1471:.\Generated_Source\PSoC5/ADC.c ****        
1472:.\Generated_Source\PSoC5/ADC.c ****         /* Stop the ADC  */
1473:.\Generated_Source\PSoC5/ADC.c ****         ADC_Stop();
 2570              		.loc 1 1473 0
ARM GAS  C:\Users\Victor\AppData\Local\Temp\ccOsbm6Y.s 			page 72


 2571 0062 FFF7FEFF 		bl	ADC_Stop
1474:.\Generated_Source\PSoC5/ADC.c ****         
1475:.\Generated_Source\PSoC5/ADC.c ****         #if (CY_PSOC5A)
1476:.\Generated_Source\PSoC5/ADC.c ****             /* Set the structure field which checks whether or not to
1477:.\Generated_Source\PSoC5/ADC.c ****                restore the power registers */
1478:.\Generated_Source\PSoC5/ADC.c ****             ADC_powerModeBackup.bypassRestore = ADC_BYPASS_ENABLED;
1479:.\Generated_Source\PSoC5/ADC.c ****         #endif /* CY_PSOC5A */
1480:.\Generated_Source\PSoC5/ADC.c ****         
1481:.\Generated_Source\PSoC5/ADC.c ****         /* Set the  ADC registers based on the configuration */
1482:.\Generated_Source\PSoC5/ADC.c ****         ADC_InitConfig(config);
 2572              		.loc 1 1482 0
 2573 0066 FB79     		ldrb	r3, [r7, #7]	@ zero_extendqisi2
 2574 0068 1846     		mov	r0, r3
 2575 006a FFF7FEFF 		bl	ADC_InitConfig
1483:.\Generated_Source\PSoC5/ADC.c ****         
1484:.\Generated_Source\PSoC5/ADC.c ****         /* Trim value calculation */
1485:.\Generated_Source\PSoC5/ADC.c ****         if(config == 1u)
 2576              		.loc 1 1485 0
 2577 006e FB79     		ldrb	r3, [r7, #7]	@ zero_extendqisi2
 2578 0070 012B     		cmp	r3, #1
 2579 0072 23D1     		bne	.L96
1486:.\Generated_Source\PSoC5/ADC.c ****         {
1487:.\Generated_Source\PSoC5/ADC.c ****             inputRange = ADC_CFG1_RANGE;
 2580              		.loc 1 1487 0
 2581 0074 4FF00203 		mov	r3, #2
 2582 0078 BB73     		strb	r3, [r7, #14]
1488:.\Generated_Source\PSoC5/ADC.c ****             resolution = ADC_CFG1_RESOLUTION;
 2583              		.loc 1 1488 0
 2584 007a 4FF01003 		mov	r3, #16
 2585 007e FB73     		strb	r3, [r7, #15]
1489:.\Generated_Source\PSoC5/ADC.c ****             idealGain = ADC_CFG1_IDEAL_DEC_GAIN;
 2586              		.loc 1 1489 0
 2587 0080 48F65863 		movw	r3, #36440
 2588 0084 3B82     		strh	r3, [r7, #16]	@ movhi
1490:.\Generated_Source\PSoC5/ADC.c ****             idealOddGain = ADC_CFG1_IDEAL_ODDDEC_GAIN;
 2589              		.loc 1 1490 0
 2590 0086 4FF40043 		mov	r3, #32768
 2591 008a FB82     		strh	r3, [r7, #22]	@ movhi
1491:.\Generated_Source\PSoC5/ADC.c ****             adcClockDivider = ADC_RoundValue((uint32)BCLK__BUS_CLK__HZ,
 2592              		.loc 1 1491 0
 2593 008c 43F20060 		movw	r0, #:lower16:24000000
 2594 0090 C0F26E10 		movt	r0, #:upper16:24000000
 2595 0094 4CF20041 		movw	r1, #:lower16:640000
 2596 0098 C0F20901 		movt	r1, #:upper16:640000
 2597 009c FFF7FEFF 		bl	ADC_RoundValue
 2598 00a0 0346     		mov	r3, r0
 2599 00a2 7B82     		strh	r3, [r7, #18]	@ movhi
1492:.\Generated_Source\PSoC5/ADC.c ****                                                        (uint32)ADC_CFG1_CLOCK_FREQ);
1493:.\Generated_Source\PSoC5/ADC.c ****             cpClockDivider = ADC_RoundValue((uint32)BCLK__BUS_CLK__HZ,
 2600              		.loc 1 1493 0
 2601 00a4 43F20060 		movw	r0, #:lower16:24000000
 2602 00a8 C0F26E10 		movt	r0, #:upper16:24000000
 2603 00ac 41F20001 		movw	r1, #:lower16:2560000
 2604 00b0 C0F22701 		movt	r1, #:upper16:2560000
 2605 00b4 FFF7FEFF 		bl	ADC_RoundValue
 2606 00b8 0346     		mov	r3, r0
 2607 00ba BB82     		strh	r3, [r7, #20]	@ movhi
ARM GAS  C:\Users\Victor\AppData\Local\Temp\ccOsbm6Y.s 			page 73


 2608              	.L96:
1494:.\Generated_Source\PSoC5/ADC.c ****                                                        (uint32)ADC_CFG1_CP_CLOCK_FREQ);
1495:.\Generated_Source\PSoC5/ADC.c ****         }
1496:.\Generated_Source\PSoC5/ADC.c **** 
1497:.\Generated_Source\PSoC5/ADC.c ****         #if (ADC_DEFAULT_NUM_CONFIGS > 1)
1498:.\Generated_Source\PSoC5/ADC.c ****             if(config == 2u)
 2609              		.loc 1 1498 0
 2610 00bc FB79     		ldrb	r3, [r7, #7]	@ zero_extendqisi2
 2611 00be 022B     		cmp	r3, #2
 2612 00c0 23D1     		bne	.L97
1499:.\Generated_Source\PSoC5/ADC.c ****             {
1500:.\Generated_Source\PSoC5/ADC.c ****                 inputRange = ADC_CFG2_INPUT_RANGE;
 2613              		.loc 1 1500 0
 2614 00c2 4FF00003 		mov	r3, #0
 2615 00c6 BB73     		strb	r3, [r7, #14]
1501:.\Generated_Source\PSoC5/ADC.c ****                 resolution = ADC_CFG2_RESOLUTION;
 2616              		.loc 1 1501 0
 2617 00c8 4FF01003 		mov	r3, #16
 2618 00cc FB73     		strb	r3, [r7, #15]
1502:.\Generated_Source\PSoC5/ADC.c ****                 idealGain = ADC_CFG2_IDEAL_DEC_GAIN;
 2619              		.loc 1 1502 0
 2620 00ce 49F2DB03 		movw	r3, #37083
 2621 00d2 3B82     		strh	r3, [r7, #16]	@ movhi
1503:.\Generated_Source\PSoC5/ADC.c ****                 idealOddGain = ADC_CFG2_IDEAL_ODDDEC_GAIN;
 2622              		.loc 1 1503 0
 2623 00d4 4FF40043 		mov	r3, #32768
 2624 00d8 FB82     		strh	r3, [r7, #22]	@ movhi
1504:.\Generated_Source\PSoC5/ADC.c ****                 adcClockDivider = ADC_RoundValue((uint32)BCLK__BUS_CLK__HZ,
 2625              		.loc 1 1504 0
 2626 00da 43F20060 		movw	r0, #:lower16:24000000
 2627 00de C0F26E10 		movt	r0, #:upper16:24000000
 2628 00e2 4CF20041 		movw	r1, #:lower16:640000
 2629 00e6 C0F20901 		movt	r1, #:upper16:640000
 2630 00ea FFF7FEFF 		bl	ADC_RoundValue
 2631 00ee 0346     		mov	r3, r0
 2632 00f0 7B82     		strh	r3, [r7, #18]	@ movhi
1505:.\Generated_Source\PSoC5/ADC.c ****                                                             (uint32)ADC_CFG2_CLOCK_FREQ);
1506:.\Generated_Source\PSoC5/ADC.c ****                 cpClockDivider = ADC_RoundValue((uint32)BCLK__BUS_CLK__HZ,
 2633              		.loc 1 1506 0
 2634 00f2 43F20060 		movw	r0, #:lower16:24000000
 2635 00f6 C0F26E10 		movt	r0, #:upper16:24000000
 2636 00fa 41F20001 		movw	r1, #:lower16:2560000
 2637 00fe C0F22701 		movt	r1, #:upper16:2560000
 2638 0102 FFF7FEFF 		bl	ADC_RoundValue
 2639 0106 0346     		mov	r3, r0
 2640 0108 BB82     		strh	r3, [r7, #20]	@ movhi
 2641              	.L97:
1507:.\Generated_Source\PSoC5/ADC.c ****                                                        (uint32)ADC_CFG2_CP_CLOCK_FREQ);
1508:.\Generated_Source\PSoC5/ADC.c ****             }
1509:.\Generated_Source\PSoC5/ADC.c ****         #endif /* ADC_DEFAULT_NUM_CONFIGS > 1 */
1510:.\Generated_Source\PSoC5/ADC.c **** 
1511:.\Generated_Source\PSoC5/ADC.c ****         #if(ADC_DEFAULT_NUM_CONFIGS > 2)
1512:.\Generated_Source\PSoC5/ADC.c ****             if(config == 3u)
 2642              		.loc 1 1512 0
 2643 010a FB79     		ldrb	r3, [r7, #7]	@ zero_extendqisi2
 2644 010c 032B     		cmp	r3, #3
 2645 010e 23D1     		bne	.L98
ARM GAS  C:\Users\Victor\AppData\Local\Temp\ccOsbm6Y.s 			page 74


1513:.\Generated_Source\PSoC5/ADC.c ****             {
1514:.\Generated_Source\PSoC5/ADC.c ****                 inputRange = ADC_CFG3_INPUT_RANGE;
 2646              		.loc 1 1514 0
 2647 0110 4FF00003 		mov	r3, #0
 2648 0114 BB73     		strb	r3, [r7, #14]
1515:.\Generated_Source\PSoC5/ADC.c ****                 resolution = ADC_CFG3_RESOLUTION;
 2649              		.loc 1 1515 0
 2650 0116 4FF01003 		mov	r3, #16
 2651 011a FB73     		strb	r3, [r7, #15]
1516:.\Generated_Source\PSoC5/ADC.c ****                 idealGain = ADC_CFG3_IDEAL_DEC_GAIN;
 2652              		.loc 1 1516 0
 2653 011c 49F2DB03 		movw	r3, #37083
 2654 0120 3B82     		strh	r3, [r7, #16]	@ movhi
1517:.\Generated_Source\PSoC5/ADC.c ****                 idealOddGain = ADC_CFG3_IDEAL_ODDDEC_GAIN;
 2655              		.loc 1 1517 0
 2656 0122 4FF40043 		mov	r3, #32768
 2657 0126 FB82     		strh	r3, [r7, #22]	@ movhi
1518:.\Generated_Source\PSoC5/ADC.c ****                 adcClockDivider = ADC_RoundValue((uint32)BCLK__BUS_CLK__HZ,
 2658              		.loc 1 1518 0
 2659 0128 43F20060 		movw	r0, #:lower16:24000000
 2660 012c C0F26E10 		movt	r0, #:upper16:24000000
 2661 0130 4CF20041 		movw	r1, #:lower16:640000
 2662 0134 C0F20901 		movt	r1, #:upper16:640000
 2663 0138 FFF7FEFF 		bl	ADC_RoundValue
 2664 013c 0346     		mov	r3, r0
 2665 013e 7B82     		strh	r3, [r7, #18]	@ movhi
1519:.\Generated_Source\PSoC5/ADC.c ****                                                             (uint32)ADC_CFG3_CLOCK_FREQ);
1520:.\Generated_Source\PSoC5/ADC.c ****                 cpClockDivider = ADC_RoundValue((uint32)BCLK__BUS_CLK__HZ,
 2666              		.loc 1 1520 0
 2667 0140 43F20060 		movw	r0, #:lower16:24000000
 2668 0144 C0F26E10 		movt	r0, #:upper16:24000000
 2669 0148 41F20001 		movw	r1, #:lower16:2560000
 2670 014c C0F22701 		movt	r1, #:upper16:2560000
 2671 0150 FFF7FEFF 		bl	ADC_RoundValue
 2672 0154 0346     		mov	r3, r0
 2673 0156 BB82     		strh	r3, [r7, #20]	@ movhi
 2674              	.L98:
1521:.\Generated_Source\PSoC5/ADC.c ****                                                        (uint32)ADC_CFG3_CP_CLOCK_FREQ);
1522:.\Generated_Source\PSoC5/ADC.c ****             }
1523:.\Generated_Source\PSoC5/ADC.c ****         #endif /* ADC_DEFAULT_NUM_CONFIGS > 2 */
1524:.\Generated_Source\PSoC5/ADC.c **** 
1525:.\Generated_Source\PSoC5/ADC.c ****         #if (ADC_DEFAULT_NUM_CONFIGS > 3)
1526:.\Generated_Source\PSoC5/ADC.c ****             if(config == 4u)
 2675              		.loc 1 1526 0
 2676 0158 FB79     		ldrb	r3, [r7, #7]	@ zero_extendqisi2
 2677 015a 042B     		cmp	r3, #4
 2678 015c 23D1     		bne	.L99
1527:.\Generated_Source\PSoC5/ADC.c ****             {
1528:.\Generated_Source\PSoC5/ADC.c ****                 inputRange = ADC_CFG4_INPUT_RANGE;
 2679              		.loc 1 1528 0
 2680 015e 4FF00003 		mov	r3, #0
 2681 0162 BB73     		strb	r3, [r7, #14]
1529:.\Generated_Source\PSoC5/ADC.c ****                 resolution = ADC_CFG4_RESOLUTION;
 2682              		.loc 1 1529 0
 2683 0164 4FF01003 		mov	r3, #16
 2684 0168 FB73     		strb	r3, [r7, #15]
1530:.\Generated_Source\PSoC5/ADC.c ****                 idealGain = ADC_CFG4_IDEAL_DEC_GAIN;
ARM GAS  C:\Users\Victor\AppData\Local\Temp\ccOsbm6Y.s 			page 75


 2685              		.loc 1 1530 0
 2686 016a 49F2DB03 		movw	r3, #37083
 2687 016e 3B82     		strh	r3, [r7, #16]	@ movhi
1531:.\Generated_Source\PSoC5/ADC.c ****                 idealOddGain = ADC_CFG4_IDEAL_ODDDEC_GAIN;
 2688              		.loc 1 1531 0
 2689 0170 4FF40043 		mov	r3, #32768
 2690 0174 FB82     		strh	r3, [r7, #22]	@ movhi
1532:.\Generated_Source\PSoC5/ADC.c ****                 adcClockDivider = ADC_RoundValue((uint32)BCLK__BUS_CLK__HZ,  
 2691              		.loc 1 1532 0
 2692 0176 43F20060 		movw	r0, #:lower16:24000000
 2693 017a C0F26E10 		movt	r0, #:upper16:24000000
 2694 017e 4CF20041 		movw	r1, #:lower16:640000
 2695 0182 C0F20901 		movt	r1, #:upper16:640000
 2696 0186 FFF7FEFF 		bl	ADC_RoundValue
 2697 018a 0346     		mov	r3, r0
 2698 018c 7B82     		strh	r3, [r7, #18]	@ movhi
1533:.\Generated_Source\PSoC5/ADC.c ****                                                             (uint32)ADC_CFG4_CLOCK_FREQ);
1534:.\Generated_Source\PSoC5/ADC.c ****                 cpClockDivider = ADC_RoundValue((uint32)BCLK__BUS_CLK__HZ,
 2699              		.loc 1 1534 0
 2700 018e 43F20060 		movw	r0, #:lower16:24000000
 2701 0192 C0F26E10 		movt	r0, #:upper16:24000000
 2702 0196 41F20001 		movw	r1, #:lower16:2560000
 2703 019a C0F22701 		movt	r1, #:upper16:2560000
 2704 019e FFF7FEFF 		bl	ADC_RoundValue
 2705 01a2 0346     		mov	r3, r0
 2706 01a4 BB82     		strh	r3, [r7, #20]	@ movhi
 2707              	.L99:
1535:.\Generated_Source\PSoC5/ADC.c ****                                                        (uint32)ADC_CFG4_CP_CLOCK_FREQ);
1536:.\Generated_Source\PSoC5/ADC.c ****             }
1537:.\Generated_Source\PSoC5/ADC.c ****         #endif /* ADC_DEFAULT_NUM_CONFIGS > 3 */
1538:.\Generated_Source\PSoC5/ADC.c ****         
1539:.\Generated_Source\PSoC5/ADC.c ****         adcClockDivider = adcClockDivider - 1;
 2708              		.loc 1 1539 0
 2709 01a6 7B8A     		ldrh	r3, [r7, #18]	@ movhi
 2710 01a8 03F1FF33 		add	r3, r3, #-1
 2711 01ac 7B82     		strh	r3, [r7, #18]	@ movhi
1540:.\Generated_Source\PSoC5/ADC.c ****         /* Set the proper divider for the internal clock */
1541:.\Generated_Source\PSoC5/ADC.c ****         #if(ADC_DEFAULT_INTERNAL_CLK)
1542:.\Generated_Source\PSoC5/ADC.c ****             ADC_theACLK_SetDividerRegister(adcClockDivider, 1);
 2712              		.loc 1 1542 0
 2713 01ae 7B8A     		ldrh	r3, [r7, #18]
 2714 01b0 1846     		mov	r0, r3
 2715 01b2 4FF00101 		mov	r1, #1
 2716 01b6 FFF7FEFF 		bl	ADC_theACLK_SetDividerRegister
1543:.\Generated_Source\PSoC5/ADC.c ****         #endif /* ADC_DEFAULT_INTERNAL_CLK */
1544:.\Generated_Source\PSoC5/ADC.c ****         
1545:.\Generated_Source\PSoC5/ADC.c ****         cpClockDivider = cpClockDivider - 1;
 2717              		.loc 1 1545 0
 2718 01ba BB8A     		ldrh	r3, [r7, #20]	@ movhi
 2719 01bc 03F1FF33 		add	r3, r3, #-1
 2720 01c0 BB82     		strh	r3, [r7, #20]	@ movhi
1546:.\Generated_Source\PSoC5/ADC.c ****         /* Set the proper divider for the Charge pump clock */
1547:.\Generated_Source\PSoC5/ADC.c ****         ADC_Ext_CP_Clk_SetDividerRegister(cpClockDivider, 1);
 2721              		.loc 1 1547 0
 2722 01c2 BB8A     		ldrh	r3, [r7, #20]
 2723 01c4 1846     		mov	r0, r3
 2724 01c6 4FF00101 		mov	r1, #1
ARM GAS  C:\Users\Victor\AppData\Local\Temp\ccOsbm6Y.s 			page 76


 2725 01ca FFF7FEFF 		bl	ADC_Ext_CP_Clk_SetDividerRegister
1548:.\Generated_Source\PSoC5/ADC.c ****         
1549:.\Generated_Source\PSoC5/ADC.c ****         /* Compensate the gain */
1550:.\Generated_Source\PSoC5/ADC.c ****         ADC_GainCompensation(inputRange, idealGain, idealOddGain, resolution);
 2726              		.loc 1 1550 0
 2727 01ce B87B     		ldrb	r0, [r7, #14]	@ zero_extendqisi2
 2728 01d0 398A     		ldrh	r1, [r7, #16]
 2729 01d2 FA8A     		ldrh	r2, [r7, #22]
 2730 01d4 FB7B     		ldrb	r3, [r7, #15]	@ zero_extendqisi2
 2731 01d6 FFF7FEFF 		bl	ADC_GainCompensation
1551:.\Generated_Source\PSoC5/ADC.c ****         
1552:.\Generated_Source\PSoC5/ADC.c ****         if(restart == 1u)
 2732              		.loc 1 1552 0
 2733 01da BB79     		ldrb	r3, [r7, #6]	@ zero_extendqisi2
 2734 01dc 012B     		cmp	r3, #1
 2735 01de 03D1     		bne	.L100
1553:.\Generated_Source\PSoC5/ADC.c ****         {        
1554:.\Generated_Source\PSoC5/ADC.c ****             /* Restart the ADC */
1555:.\Generated_Source\PSoC5/ADC.c ****             ADC_Start();
 2736              		.loc 1 1555 0
 2737 01e0 FFF7FEFF 		bl	ADC_Start
1556:.\Generated_Source\PSoC5/ADC.c ****             
1557:.\Generated_Source\PSoC5/ADC.c ****             /* Code to disable the REFBUF0 if reference chosen is External ref */
1558:.\Generated_Source\PSoC5/ADC.c ****             #if (((ADC_CFG2_REFERENCE == ADC_EXT_REF_ON_P03) || \
1559:.\Generated_Source\PSoC5/ADC.c ****                  (ADC_CFG2_REFERENCE == ADC_EXT_REF_ON_P32)) || \
1560:.\Generated_Source\PSoC5/ADC.c ****                  ((ADC_CFG3_REFERENCE == ADC_EXT_REF_ON_P03) || \
1561:.\Generated_Source\PSoC5/ADC.c ****                  (ADC_CFG3_REFERENCE == ADC_EXT_REF_ON_P32)) || \
1562:.\Generated_Source\PSoC5/ADC.c ****                  ((ADC_CFG4_REFERENCE == ADC_EXT_REF_ON_P03) || \
1563:.\Generated_Source\PSoC5/ADC.c ****                  (ADC_CFG4_REFERENCE == ADC_EXT_REF_ON_P32)))
1564:.\Generated_Source\PSoC5/ADC.c ****                 if (((config == 2) && 
1565:.\Generated_Source\PSoC5/ADC.c ****                     ((ADC_CFG2_REFERENCE == ADC_EXT_REF_ON_P03) ||
1566:.\Generated_Source\PSoC5/ADC.c ****                     (ADC_CFG2_REFERENCE == ADC_EXT_REF_ON_P32))) ||
1567:.\Generated_Source\PSoC5/ADC.c ****                     ((config == 3) && 
1568:.\Generated_Source\PSoC5/ADC.c ****                     ((ADC_CFG3_REFERENCE == ADC_EXT_REF_ON_P03) ||
1569:.\Generated_Source\PSoC5/ADC.c ****                     (ADC_CFG3_REFERENCE == ADC_EXT_REF_ON_P32))) ||
1570:.\Generated_Source\PSoC5/ADC.c ****                     ((config == 4) && 
1571:.\Generated_Source\PSoC5/ADC.c ****                     ((ADC_CFG4_REFERENCE == ADC_EXT_REF_ON_P03) ||
1572:.\Generated_Source\PSoC5/ADC.c ****                     (ADC_CFG4_REFERENCE == ADC_EXT_REF_ON_P32))))
1573:.\Generated_Source\PSoC5/ADC.c ****                 {
1574:.\Generated_Source\PSoC5/ADC.c ****                     /* Disable PRES, Enable power to VCMBUF0, REFBUF0 and 
1575:.\Generated_Source\PSoC5/ADC.c ****                        REFBUF1, enable PRES */
1576:.\Generated_Source\PSoC5/ADC.c ****                     #if (CY_PSOC3 || CY_PSOC5LP)
1577:.\Generated_Source\PSoC5/ADC.c ****                         ADC_RESET_CR4_REG |= ADC_IGNORE_PRESA1;
1578:.\Generated_Source\PSoC5/ADC.c ****                         ADC_RESET_CR5_REG |= ADC_IGNORE_PRESA2;
1579:.\Generated_Source\PSoC5/ADC.c ****                     #elif (CY_PSOC5A)
1580:.\Generated_Source\PSoC5/ADC.c ****                         ADC_RESET_CR1_REG |= ADC_DIS_PRES1;
1581:.\Generated_Source\PSoC5/ADC.c ****                         ADC_RESET_CR3_REG |= ADC_DIS_PRES2;
1582:.\Generated_Source\PSoC5/ADC.c ****                     #endif /* CY_PSOC5A */
1583:.\Generated_Source\PSoC5/ADC.c ****         
1584:.\Generated_Source\PSoC5/ADC.c ****                     /* Disable the REFBUF0 */
1585:.\Generated_Source\PSoC5/ADC.c ****                     ADC_DSM_CR17_REG &= ~ADC_DSM_EN_BUF_VREF;
1586:.\Generated_Source\PSoC5/ADC.c ****                     
1587:.\Generated_Source\PSoC5/ADC.c ****                     /* Wait for 3 microseconds */
1588:.\Generated_Source\PSoC5/ADC.c ****                     CyDelayUs(3);
1589:.\Generated_Source\PSoC5/ADC.c ****                     /* Enable the press circuit */
1590:.\Generated_Source\PSoC5/ADC.c ****                     #if (CY_PSOC3 || CY_PSOC5LP)
1591:.\Generated_Source\PSoC5/ADC.c ****                         ADC_RESET_CR4_REG &= ~ADC_IGNORE_PRESA1;
ARM GAS  C:\Users\Victor\AppData\Local\Temp\ccOsbm6Y.s 			page 77


1592:.\Generated_Source\PSoC5/ADC.c ****                         ADC_RESET_CR5_REG &= ~ADC_IGNORE_PRESA2;
1593:.\Generated_Source\PSoC5/ADC.c ****                     #elif (CY_PSOC5A)
1594:.\Generated_Source\PSoC5/ADC.c ****                         ADC_RESET_CR1_REG &= ~ADC_DIS_PRES1;
1595:.\Generated_Source\PSoC5/ADC.c ****                         ADC_RESET_CR3_REG &= ~ADC_DIS_PRES2;
1596:.\Generated_Source\PSoC5/ADC.c ****                     #endif /* CY_PSOC5A */
1597:.\Generated_Source\PSoC5/ADC.c ****                 }
1598:.\Generated_Source\PSoC5/ADC.c ****             #endif /* */
1599:.\Generated_Source\PSoC5/ADC.c ****             
1600:.\Generated_Source\PSoC5/ADC.c ****             #if ((CY_PSOC3 || CY_PSOC5LP) && \
1601:.\Generated_Source\PSoC5/ADC.c ****                  ((ADC_CFG2_INPUT_RANGE == ADC_IR_VSSA_TO_2VREF) || \
1602:.\Generated_Source\PSoC5/ADC.c ****                   (ADC_CFG3_INPUT_RANGE == ADC_IR_VSSA_TO_2VREF) || \
1603:.\Generated_Source\PSoC5/ADC.c ****                   (ADC_CFG4_INPUT_RANGE == ADC_IR_VSSA_TO_2VREF)))
1604:.\Generated_Source\PSoC5/ADC.c ****                 if(((config == 2) && 
1605:.\Generated_Source\PSoC5/ADC.c ****                     (ADC_CFG2_INPUT_RANGE == ADC_IR_VSSA_TO_2VREF) && 
1606:.\Generated_Source\PSoC5/ADC.c ****                     ((ADC_CFG2_REFERENCE != ADC_EXT_REF_ON_P03) && 
1607:.\Generated_Source\PSoC5/ADC.c ****                      (ADC_CFG2_REFERENCE != ADC_EXT_REF_ON_P32))) ||
1608:.\Generated_Source\PSoC5/ADC.c ****                      ((config == 3) && 
1609:.\Generated_Source\PSoC5/ADC.c ****                       (ADC_CFG3_INPUT_RANGE == ADC_IR_VSSA_TO_2VREF) && 
1610:.\Generated_Source\PSoC5/ADC.c ****                      ((ADC_CFG3_REFERENCE != ADC_EXT_REF_ON_P03) && 
1611:.\Generated_Source\PSoC5/ADC.c ****                      (ADC_CFG3_REFERENCE != ADC_EXT_REF_ON_P32))) ||
1612:.\Generated_Source\PSoC5/ADC.c ****                      ((config == 4) && 
1613:.\Generated_Source\PSoC5/ADC.c ****                       (ADC_CFG4_INPUT_RANGE == ADC_IR_VSSA_TO_2VREF) && 
1614:.\Generated_Source\PSoC5/ADC.c ****                      ((ADC_CFG4_REFERENCE != ADC_EXT_REF_ON_P03) && 
1615:.\Generated_Source\PSoC5/ADC.c ****                      (ADC_CFG4_REFERENCE != ADC_EXT_REF_ON_P32))))
1616:.\Generated_Source\PSoC5/ADC.c ****                 {
1617:.\Generated_Source\PSoC5/ADC.c ****                     /* Disable PRES, Enable power to VCMBUF0, REFBUF0 and 
1618:.\Generated_Source\PSoC5/ADC.c ****                        REFBUF1, enable PRES */
1619:.\Generated_Source\PSoC5/ADC.c ****                     #if (CY_PSOC3 || CY_PSOC5LP)
1620:.\Generated_Source\PSoC5/ADC.c ****                         ADC_RESET_CR4_REG |= ADC_IGNORE_PRESA1;
1621:.\Generated_Source\PSoC5/ADC.c ****                         ADC_RESET_CR5_REG |= ADC_IGNORE_PRESA2;
1622:.\Generated_Source\PSoC5/ADC.c ****                     #elif (CY_PSOC5A)
1623:.\Generated_Source\PSoC5/ADC.c ****                         ADC_RESET_CR1_REG |= ADC_DIS_PRES1;
1624:.\Generated_Source\PSoC5/ADC.c ****                         ADC_RESET_CR3_REG |= ADC_DIS_PRES2;
1625:.\Generated_Source\PSoC5/ADC.c ****                     #endif /* CY_PSOC5A */
1626:.\Generated_Source\PSoC5/ADC.c ****         
1627:.\Generated_Source\PSoC5/ADC.c ****                     /* Enable the REFBUF1 */
1628:.\Generated_Source\PSoC5/ADC.c ****                     ADC_DSM_REF0_REG |= ADC_DSM_EN_BUF_VREF_INN;
1629:.\Generated_Source\PSoC5/ADC.c ****                     
1630:.\Generated_Source\PSoC5/ADC.c ****                     /* Wait for 3 microseconds */
1631:.\Generated_Source\PSoC5/ADC.c ****                     CyDelayUs(3);
1632:.\Generated_Source\PSoC5/ADC.c ****                     /* Enable the press circuit */
1633:.\Generated_Source\PSoC5/ADC.c ****                     #if (CY_PSOC3 || CY_PSOC5LP)
1634:.\Generated_Source\PSoC5/ADC.c ****                         ADC_RESET_CR4_REG &= ~ADC_IGNORE_PRESA1;
1635:.\Generated_Source\PSoC5/ADC.c ****                         ADC_RESET_CR5_REG &= ~ADC_IGNORE_PRESA2;
1636:.\Generated_Source\PSoC5/ADC.c ****                     #elif (CY_PSOC5A)
1637:.\Generated_Source\PSoC5/ADC.c ****                         ADC_RESET_CR1_REG &= ~ADC_DIS_PRES1;
1638:.\Generated_Source\PSoC5/ADC.c ****                         ADC_RESET_CR3_REG &= ~ADC_DIS_PRES2;
1639:.\Generated_Source\PSoC5/ADC.c ****                     #endif /* CY_PSOC5A */
1640:.\Generated_Source\PSoC5/ADC.c ****                 }
1641:.\Generated_Source\PSoC5/ADC.c ****             #endif /* (CY_PSOC3 || CY_PSOC5LP) */
1642:.\Generated_Source\PSoC5/ADC.c ****         
1643:.\Generated_Source\PSoC5/ADC.c ****             /* Restart the ADC conversion */
1644:.\Generated_Source\PSoC5/ADC.c ****             ADC_StartConvert();
 2738              		.loc 1 1644 0
 2739 01e4 FFF7FEFF 		bl	ADC_StartConvert
 2740              	.L100:
1645:.\Generated_Source\PSoC5/ADC.c ****         }
ARM GAS  C:\Users\Victor\AppData\Local\Temp\ccOsbm6Y.s 			page 78


1646:.\Generated_Source\PSoC5/ADC.c ****     }
1647:.\Generated_Source\PSoC5/ADC.c **** }     
 2741              		.loc 1 1647 0
 2742 01e8 07F11807 		add	r7, r7, #24
 2743 01ec BD46     		mov	sp, r7
 2744 01ee 80BD     		pop	{r7, pc}
 2745              		.cfi_endproc
 2746              	.LFE23:
 2747              		.size	ADC_SelectConfiguration, .-ADC_SelectConfiguration
 2748              		.section	.text.ADC_GainCompensation,"ax",%progbits
 2749              		.align	2
 2750              		.global	ADC_GainCompensation
 2751              		.thumb
 2752              		.thumb_func
 2753              		.type	ADC_GainCompensation, %function
 2754              	ADC_GainCompensation:
 2755              	.LFB24:
1648:.\Generated_Source\PSoC5/ADC.c **** 
1649:.\Generated_Source\PSoC5/ADC.c **** 
1650:.\Generated_Source\PSoC5/ADC.c **** /*******************************************************************************
1651:.\Generated_Source\PSoC5/ADC.c **** * Function Name: ADC_GainCompensation(uint8, uint16, uint16, uint8)
1652:.\Generated_Source\PSoC5/ADC.c **** ********************************************************************************
1653:.\Generated_Source\PSoC5/ADC.c **** *
1654:.\Generated_Source\PSoC5/ADC.c **** * Summary:
1655:.\Generated_Source\PSoC5/ADC.c **** *  This API calculates the trim value and then loads this to GCOR register.
1656:.\Generated_Source\PSoC5/ADC.c **** *
1657:.\Generated_Source\PSoC5/ADC.c **** * Parameters:  
1658:.\Generated_Source\PSoC5/ADC.c **** *  inputRange:  input range for which trim value is to be calculated.
1659:.\Generated_Source\PSoC5/ADC.c **** *  IdealDecGain:  Ideal Decimator gain for the selected resolution and 
1660:.\Generated_Source\PSoC5/ADC.c **** *                 conversion  mode.
1661:.\Generated_Source\PSoC5/ADC.c **** *  IdealOddDecGain:  Ideal odd decimation gain for the selected resolution and 
1662:.\Generated_Source\PSoC5/ADC.c ****                      conversion mode.
1663:.\Generated_Source\PSoC5/ADC.c **** *  resolution:  Resolution to select the proper flash location for trim value.
1664:.\Generated_Source\PSoC5/ADC.c **** *
1665:.\Generated_Source\PSoC5/ADC.c **** * Return: 
1666:.\Generated_Source\PSoC5/ADC.c **** *  void
1667:.\Generated_Source\PSoC5/ADC.c **** *
1668:.\Generated_Source\PSoC5/ADC.c **** *******************************************************************************/
1669:.\Generated_Source\PSoC5/ADC.c **** void ADC_GainCompensation(uint8 inputRange, uint16 IdealDecGain, uint16 IdealOddDecGain,  \
1670:.\Generated_Source\PSoC5/ADC.c ****                                        uint8 resolution) 
1671:.\Generated_Source\PSoC5/ADC.c **** {
 2756              		.loc 1 1671 0
 2757              		.cfi_startproc
 2758              		@ args = 0, pretend = 0, frame = 24
 2759              		@ frame_needed = 1, uses_anonymous_args = 0
 2760              		@ link register save eliminated.
 2761 0000 80B4     		push	{r7}
 2762              	.LCFI64:
 2763              		.cfi_def_cfa_offset 4
 2764 0002 87B0     		sub	sp, sp, #28
 2765              	.LCFI65:
 2766              		.cfi_def_cfa_offset 32
 2767 0004 00AF     		add	r7, sp, #0
 2768              		.cfi_offset 7, -4
 2769              	.LCFI66:
 2770              		.cfi_def_cfa_register 7
 2771 0006 F871     		strb	r0, [r7, #7]
ARM GAS  C:\Users\Victor\AppData\Local\Temp\ccOsbm6Y.s 			page 79


 2772 0008 B980     		strh	r1, [r7, #4]	@ movhi
 2773 000a 7A80     		strh	r2, [r7, #2]	@ movhi
 2774 000c 7B70     		strb	r3, [r7, #1]
1672:.\Generated_Source\PSoC5/ADC.c ****     int8 flash;
1673:.\Generated_Source\PSoC5/ADC.c ****     int16 Normalised;
1674:.\Generated_Source\PSoC5/ADC.c ****     uint16 GcorValue;
1675:.\Generated_Source\PSoC5/ADC.c ****     uint32 GcorTmp;
1676:.\Generated_Source\PSoC5/ADC.c ****     
1677:.\Generated_Source\PSoC5/ADC.c ****     switch(inputRange)
 2775              		.loc 1 1677 0
 2776 000e FB79     		ldrb	r3, [r7, #7]	@ zero_extendqisi2
 2777 0010 A3F10403 		sub	r3, r3, #4
 2778 0014 062B     		cmp	r3, #6
 2779 0016 5DD8     		bhi	.L102
 2780 0018 01A2     		adr	r2, .L107
 2781 001a 52F823F0 		ldr	pc, [r2, r3, lsl #2]
 2782 001e 00BF     		.align	2
 2783              	.L107:
 2784 0020 3D000000 		.word	.L103+1
 2785 0024 D5000000 		.word	.L102+1
 2786 0028 D5000000 		.word	.L102+1
 2787 002c 63000000 		.word	.L104+1
 2788 0030 89000000 		.word	.L105+1
 2789 0034 D5000000 		.word	.L102+1
 2790 0038 AF000000 		.word	.L106+1
 2791              	.L103:
1678:.\Generated_Source\PSoC5/ADC.c ****     {         
1679:.\Generated_Source\PSoC5/ADC.c ****         case ADC_IR_VNEG_VREF_DIFF:
1680:.\Generated_Source\PSoC5/ADC.c ****         
1681:.\Generated_Source\PSoC5/ADC.c ****         /* Normalize the flash Value */
1682:.\Generated_Source\PSoC5/ADC.c ****         if(resolution > 15)
 2792              		.loc 1 1682 0
 2793 003c 7B78     		ldrb	r3, [r7, #1]	@ zero_extendqisi2
 2794 003e 0F2B     		cmp	r3, #15
 2795 0040 07D9     		bls	.L108
1683:.\Generated_Source\PSoC5/ADC.c ****         {
1684:.\Generated_Source\PSoC5/ADC.c ****             flash = ADC_DEC_TRIM_VREF_DIFF_16_20; 
 2796              		.loc 1 1684 0
 2797 0042 40F21813 		movw	r3, #:lower16:1224737048
 2798 0046 C4F60013 		movt	r3, #:upper16:1224737048
 2799 004a 1B78     		ldrb	r3, [r3, #0]
 2800 004c DBB2     		uxtb	r3, r3
 2801 004e FB73     		strb	r3, [r7, #15]
1685:.\Generated_Source\PSoC5/ADC.c ****         }    
1686:.\Generated_Source\PSoC5/ADC.c ****         else
1687:.\Generated_Source\PSoC5/ADC.c ****         {
1688:.\Generated_Source\PSoC5/ADC.c ****             flash = ADC_DEC_TRIM_VREF_DIFF_8_15;
1689:.\Generated_Source\PSoC5/ADC.c ****         }        
1690:.\Generated_Source\PSoC5/ADC.c ****         break;
 2802              		.loc 1 1690 0
 2803 0050 43E0     		b	.L110
 2804              	.L108:
 2805              		.loc 1 1688 0
 2806 0052 40F21C13 		movw	r3, #:lower16:1224737052
 2807 0056 C4F60013 		movt	r3, #:upper16:1224737052
 2808 005a 1B78     		ldrb	r3, [r3, #0]
 2809 005c DBB2     		uxtb	r3, r3
ARM GAS  C:\Users\Victor\AppData\Local\Temp\ccOsbm6Y.s 			page 80


 2810 005e FB73     		strb	r3, [r7, #15]
 2811              		.loc 1 1690 0
 2812 0060 3BE0     		b	.L110
 2813              	.L104:
1691:.\Generated_Source\PSoC5/ADC.c ****         
1692:.\Generated_Source\PSoC5/ADC.c ****         case ADC_IR_VNEG_VREF_2_DIFF:
1693:.\Generated_Source\PSoC5/ADC.c ****         
1694:.\Generated_Source\PSoC5/ADC.c ****         /* Normalize the flash Value */
1695:.\Generated_Source\PSoC5/ADC.c ****         if(resolution > 15)
 2814              		.loc 1 1695 0
 2815 0062 7B78     		ldrb	r3, [r7, #1]	@ zero_extendqisi2
 2816 0064 0F2B     		cmp	r3, #15
 2817 0066 07D9     		bls	.L111
1696:.\Generated_Source\PSoC5/ADC.c ****         {
1697:.\Generated_Source\PSoC5/ADC.c ****             flash = ADC_DEC_TRIM_VREF_2_DIFF_16_20;
 2818              		.loc 1 1697 0
 2819 0068 40F21913 		movw	r3, #:lower16:1224737049
 2820 006c C4F60013 		movt	r3, #:upper16:1224737049
 2821 0070 1B78     		ldrb	r3, [r3, #0]
 2822 0072 DBB2     		uxtb	r3, r3
 2823 0074 FB73     		strb	r3, [r7, #15]
1698:.\Generated_Source\PSoC5/ADC.c ****         }    
1699:.\Generated_Source\PSoC5/ADC.c ****         else
1700:.\Generated_Source\PSoC5/ADC.c ****         {
1701:.\Generated_Source\PSoC5/ADC.c ****             flash = ADC_DEC_TRIM_VREF_2_DIFF_8_15;
1702:.\Generated_Source\PSoC5/ADC.c ****         }    
1703:.\Generated_Source\PSoC5/ADC.c ****         break;
 2824              		.loc 1 1703 0
 2825 0076 30E0     		b	.L110
 2826              	.L111:
 2827              		.loc 1 1701 0
 2828 0078 40F21D13 		movw	r3, #:lower16:1224737053
 2829 007c C4F60013 		movt	r3, #:upper16:1224737053
 2830 0080 1B78     		ldrb	r3, [r3, #0]
 2831 0082 DBB2     		uxtb	r3, r3
 2832 0084 FB73     		strb	r3, [r7, #15]
 2833              		.loc 1 1703 0
 2834 0086 28E0     		b	.L110
 2835              	.L105:
1704:.\Generated_Source\PSoC5/ADC.c ****         
1705:.\Generated_Source\PSoC5/ADC.c ****         case ADC_IR_VNEG_VREF_4_DIFF:
1706:.\Generated_Source\PSoC5/ADC.c ****         
1707:.\Generated_Source\PSoC5/ADC.c ****         /* Normalize the flash Value */
1708:.\Generated_Source\PSoC5/ADC.c ****         if(resolution > 15)
 2836              		.loc 1 1708 0
 2837 0088 7B78     		ldrb	r3, [r7, #1]	@ zero_extendqisi2
 2838 008a 0F2B     		cmp	r3, #15
 2839 008c 07D9     		bls	.L113
1709:.\Generated_Source\PSoC5/ADC.c ****         {
1710:.\Generated_Source\PSoC5/ADC.c ****             flash = ADC_DEC_TRIM_VREF_4_DIFF_16_20;
 2840              		.loc 1 1710 0
 2841 008e 40F21A13 		movw	r3, #:lower16:1224737050
 2842 0092 C4F60013 		movt	r3, #:upper16:1224737050
 2843 0096 1B78     		ldrb	r3, [r3, #0]
 2844 0098 DBB2     		uxtb	r3, r3
 2845 009a FB73     		strb	r3, [r7, #15]
1711:.\Generated_Source\PSoC5/ADC.c ****         }    
ARM GAS  C:\Users\Victor\AppData\Local\Temp\ccOsbm6Y.s 			page 81


1712:.\Generated_Source\PSoC5/ADC.c ****         else
1713:.\Generated_Source\PSoC5/ADC.c ****         {
1714:.\Generated_Source\PSoC5/ADC.c ****             flash = ADC_DEC_TRIM_VREF_4_DIFF_8_15;
1715:.\Generated_Source\PSoC5/ADC.c ****         }    
1716:.\Generated_Source\PSoC5/ADC.c ****         break;
 2846              		.loc 1 1716 0
 2847 009c 1DE0     		b	.L110
 2848              	.L113:
 2849              		.loc 1 1714 0
 2850 009e 40F21E13 		movw	r3, #:lower16:1224737054
 2851 00a2 C4F60013 		movt	r3, #:upper16:1224737054
 2852 00a6 1B78     		ldrb	r3, [r3, #0]
 2853 00a8 DBB2     		uxtb	r3, r3
 2854 00aa FB73     		strb	r3, [r7, #15]
 2855              		.loc 1 1716 0
 2856 00ac 15E0     		b	.L110
 2857              	.L106:
1717:.\Generated_Source\PSoC5/ADC.c ****         
1718:.\Generated_Source\PSoC5/ADC.c ****         case ADC_IR_VNEG_VREF_16_DIFF:
1719:.\Generated_Source\PSoC5/ADC.c ****         
1720:.\Generated_Source\PSoC5/ADC.c ****         /* Normalize the flash Value */
1721:.\Generated_Source\PSoC5/ADC.c ****         if(resolution > 15)
 2858              		.loc 1 1721 0
 2859 00ae 7B78     		ldrb	r3, [r7, #1]	@ zero_extendqisi2
 2860 00b0 0F2B     		cmp	r3, #15
 2861 00b2 07D9     		bls	.L115
1722:.\Generated_Source\PSoC5/ADC.c ****         {
1723:.\Generated_Source\PSoC5/ADC.c ****             flash = ADC_DEC_TRIM_VREF_16_DIFF_16_20;
 2862              		.loc 1 1723 0
 2863 00b4 40F21B13 		movw	r3, #:lower16:1224737051
 2864 00b8 C4F60013 		movt	r3, #:upper16:1224737051
 2865 00bc 1B78     		ldrb	r3, [r3, #0]
 2866 00be DBB2     		uxtb	r3, r3
 2867 00c0 FB73     		strb	r3, [r7, #15]
1724:.\Generated_Source\PSoC5/ADC.c ****         }    
1725:.\Generated_Source\PSoC5/ADC.c ****         else
1726:.\Generated_Source\PSoC5/ADC.c ****         {
1727:.\Generated_Source\PSoC5/ADC.c ****             flash = ADC_DEC_TRIM_VREF_16_DIFF_8_15;
1728:.\Generated_Source\PSoC5/ADC.c ****         }    
1729:.\Generated_Source\PSoC5/ADC.c ****         break;
 2868              		.loc 1 1729 0
 2869 00c2 0AE0     		b	.L110
 2870              	.L115:
 2871              		.loc 1 1727 0
 2872 00c4 40F21F13 		movw	r3, #:lower16:1224737055
 2873 00c8 C4F60013 		movt	r3, #:upper16:1224737055
 2874 00cc 1B78     		ldrb	r3, [r3, #0]
 2875 00ce DBB2     		uxtb	r3, r3
 2876 00d0 FB73     		strb	r3, [r7, #15]
 2877              		.loc 1 1729 0
 2878 00d2 02E0     		b	.L110
 2879              	.L102:
1730:.\Generated_Source\PSoC5/ADC.c ****         
1731:.\Generated_Source\PSoC5/ADC.c ****         default:
1732:.\Generated_Source\PSoC5/ADC.c ****             flash = 0;
 2880              		.loc 1 1732 0
 2881 00d4 4FF00003 		mov	r3, #0
ARM GAS  C:\Users\Victor\AppData\Local\Temp\ccOsbm6Y.s 			page 82


 2882 00d8 FB73     		strb	r3, [r7, #15]
 2883              	.L110:
1733:.\Generated_Source\PSoC5/ADC.c ****         break;
1734:.\Generated_Source\PSoC5/ADC.c ****     }    
1735:.\Generated_Source\PSoC5/ADC.c ****     if(inputRange == ADC_IR_VSSA_TO_VREF || inputRange == ADC_IR_VSSA_TO_2VREF || 
 2884              		.loc 1 1735 0
 2885 00da FB79     		ldrb	r3, [r7, #7]	@ zero_extendqisi2
 2886 00dc 002B     		cmp	r3, #0
 2887 00de 11D0     		beq	.L117
 2888 00e0 FB79     		ldrb	r3, [r7, #7]	@ zero_extendqisi2
 2889 00e2 012B     		cmp	r3, #1
 2890 00e4 0ED0     		beq	.L117
 2891 00e6 FB79     		ldrb	r3, [r7, #7]	@ zero_extendqisi2
 2892 00e8 022B     		cmp	r3, #2
 2893 00ea 0BD0     		beq	.L117
 2894 00ec FB79     		ldrb	r3, [r7, #7]	@ zero_extendqisi2
 2895 00ee 032B     		cmp	r3, #3
 2896 00f0 08D0     		beq	.L117
 2897 00f2 FB79     		ldrb	r3, [r7, #7]	@ zero_extendqisi2
 2898 00f4 052B     		cmp	r3, #5
 2899 00f6 05D0     		beq	.L117
 2900 00f8 FB79     		ldrb	r3, [r7, #7]	@ zero_extendqisi2
 2901 00fa 062B     		cmp	r3, #6
 2902 00fc 02D0     		beq	.L117
 2903 00fe FB79     		ldrb	r3, [r7, #7]	@ zero_extendqisi2
 2904 0100 092B     		cmp	r3, #9
 2905 0102 03D1     		bne	.L118
 2906              	.L117:
1736:.\Generated_Source\PSoC5/ADC.c ****        inputRange == ADC_IR_VSSA_TO_VDDA || inputRange == ADC_IR_VSSA_TO_6VREF || 
1737:.\Generated_Source\PSoC5/ADC.c ****        inputRange == ADC_IR_VNEG_2VREF_DIFF || inputRange == ADC_IR_VNEG_6VREF_DIFF ||
1738:.\Generated_Source\PSoC5/ADC.c ****        inputRange == ADC_IR_VNEG_VREF_8_DIFF)
1739:.\Generated_Source\PSoC5/ADC.c ****     {
1740:.\Generated_Source\PSoC5/ADC.c ****         Normalised  = 0;
 2907              		.loc 1 1740 0
 2908 0104 4FF00003 		mov	r3, #0
 2909 0108 3B82     		strh	r3, [r7, #16]	@ movhi
 2910              		.loc 1 1735 0
 2911 010a 06E0     		b	.L119
 2912              	.L118:
1741:.\Generated_Source\PSoC5/ADC.c ****     }
1742:.\Generated_Source\PSoC5/ADC.c ****     else
1743:.\Generated_Source\PSoC5/ADC.c ****     {
1744:.\Generated_Source\PSoC5/ADC.c ****         Normalised  = ((int16)flash) * 32;
 2913              		.loc 1 1744 0
 2914 010c 97F90F30 		ldrsb	r3, [r7, #15]
 2915 0110 9BB2     		uxth	r3, r3
 2916 0112 4FEA4313 		lsl	r3, r3, #5
 2917 0116 9BB2     		uxth	r3, r3
 2918 0118 3B82     		strh	r3, [r7, #16]	@ movhi
 2919              	.L119:
1745:.\Generated_Source\PSoC5/ADC.c ****     }
1746:.\Generated_Source\PSoC5/ADC.c ****                     
1747:.\Generated_Source\PSoC5/ADC.c ****     /* Add two values */
1748:.\Generated_Source\PSoC5/ADC.c ****     GcorValue = IdealDecGain + Normalised;  
 2920              		.loc 1 1748 0
 2921 011a 3A8A     		ldrh	r2, [r7, #16]
 2922 011c BB88     		ldrh	r3, [r7, #4]	@ movhi
ARM GAS  C:\Users\Victor\AppData\Local\Temp\ccOsbm6Y.s 			page 83


 2923 011e 1344     		add	r3, r2, r3
 2924 0120 7B82     		strh	r3, [r7, #18]	@ movhi
1749:.\Generated_Source\PSoC5/ADC.c ****     GcorTmp = (uint32)GcorValue * (uint32)IdealOddDecGain;
 2925              		.loc 1 1749 0
 2926 0122 7B8A     		ldrh	r3, [r7, #18]
 2927 0124 7A88     		ldrh	r2, [r7, #2]
 2928 0126 02FB03F3 		mul	r3, r2, r3
 2929 012a 7B61     		str	r3, [r7, #20]
1750:.\Generated_Source\PSoC5/ADC.c ****     GcorValue = (uint16)(GcorTmp / ADC_IDEAL_GAIN_CONST);
 2930              		.loc 1 1750 0
 2931 012c 7B69     		ldr	r3, [r7, #20]
 2932 012e 4FEAD333 		lsr	r3, r3, #15
 2933 0132 7B82     		strh	r3, [r7, #18]	@ movhi
1751:.\Generated_Source\PSoC5/ADC.c ****         
1752:.\Generated_Source\PSoC5/ADC.c ****     if (resolution < 14)
 2934              		.loc 1 1752 0
 2935 0134 7B78     		ldrb	r3, [r7, #1]	@ zero_extendqisi2
 2936 0136 0D2B     		cmp	r3, #13
 2937 0138 12D8     		bhi	.L120
1753:.\Generated_Source\PSoC5/ADC.c ****     {
1754:.\Generated_Source\PSoC5/ADC.c ****         GcorValue = (GcorValue >> (15 - (resolution + 1)));
 2938              		.loc 1 1754 0
 2939 013a 7A8A     		ldrh	r2, [r7, #18]
 2940 013c 7B78     		ldrb	r3, [r7, #1]	@ zero_extendqisi2
 2941 013e 6FEA0303 		mvn	r3, r3
 2942 0142 03F10F03 		add	r3, r3, #15
 2943 0146 42FA03F3 		asr	r3, r2, r3
 2944 014a 7B82     		strh	r3, [r7, #18]	@ movhi
1755:.\Generated_Source\PSoC5/ADC.c ****         ADC_DEC_GVAL_REG = (resolution + 1);
 2945              		.loc 1 1755 0
 2946 014c 44F60E63 		movw	r3, #:lower16:1073761806
 2947 0150 C4F20003 		movt	r3, #:upper16:1073761806
 2948 0154 7A78     		ldrb	r2, [r7, #1]
 2949 0156 02F10102 		add	r2, r2, #1
 2950 015a D2B2     		uxtb	r2, r2
 2951 015c 1A70     		strb	r2, [r3, #0]
 2952 015e 06E0     		b	.L121
 2953              	.L120:
1756:.\Generated_Source\PSoC5/ADC.c ****     }
1757:.\Generated_Source\PSoC5/ADC.c ****     else
1758:.\Generated_Source\PSoC5/ADC.c ****     {
1759:.\Generated_Source\PSoC5/ADC.c ****         /* Use all 16 bits */
1760:.\Generated_Source\PSoC5/ADC.c ****         ADC_DEC_GVAL_REG = 15u;  
 2954              		.loc 1 1760 0
 2955 0160 44F60E63 		movw	r3, #:lower16:1073761806
 2956 0164 C4F20003 		movt	r3, #:upper16:1073761806
 2957 0168 4FF00F02 		mov	r2, #15
 2958 016c 1A70     		strb	r2, [r3, #0]
 2959              	.L121:
1761:.\Generated_Source\PSoC5/ADC.c ****     }
1762:.\Generated_Source\PSoC5/ADC.c ****       
1763:.\Generated_Source\PSoC5/ADC.c ****     /* Load the gain correction register */    
1764:.\Generated_Source\PSoC5/ADC.c ****     ADC_DEC_GCOR_REG  = (uint8)GcorValue;
 2960              		.loc 1 1764 0
 2961 016e 44F60C63 		movw	r3, #:lower16:1073761804
 2962 0172 C4F20003 		movt	r3, #:upper16:1073761804
 2963 0176 7A8A     		ldrh	r2, [r7, #18]	@ movhi
ARM GAS  C:\Users\Victor\AppData\Local\Temp\ccOsbm6Y.s 			page 84


 2964 0178 D2B2     		uxtb	r2, r2
 2965 017a 1A70     		strb	r2, [r3, #0]
1765:.\Generated_Source\PSoC5/ADC.c ****     ADC_DEC_GCORH_REG = (uint8)(GcorValue >> 8);    
 2966              		.loc 1 1765 0
 2967 017c 44F60D63 		movw	r3, #:lower16:1073761805
 2968 0180 C4F20003 		movt	r3, #:upper16:1073761805
 2969 0184 7A8A     		ldrh	r2, [r7, #18]
 2970 0186 4FEA1222 		lsr	r2, r2, #8
 2971 018a 92B2     		uxth	r2, r2
 2972 018c D2B2     		uxtb	r2, r2
 2973 018e 1A70     		strb	r2, [r3, #0]
1766:.\Generated_Source\PSoC5/ADC.c ****     
1767:.\Generated_Source\PSoC5/ADC.c ****     /* Workaround for 0 to 2*Vref mode with PSoC5A siliocn */
1768:.\Generated_Source\PSoC5/ADC.c ****     #if( CY_PSOC5A) 
1769:.\Generated_Source\PSoC5/ADC.c ****         if( inputRange == ADC_IR_VSSA_TO_2VREF)
1770:.\Generated_Source\PSoC5/ADC.c ****         {
1771:.\Generated_Source\PSoC5/ADC.c ****             ADC_DEC_GCOR_REG = 0x00u;
1772:.\Generated_Source\PSoC5/ADC.c ****             ADC_DEC_GCORH_REG = 0x00u;
1773:.\Generated_Source\PSoC5/ADC.c ****             ADC_DEC_GVAL_REG = 0x00u;
1774:.\Generated_Source\PSoC5/ADC.c ****         }
1775:.\Generated_Source\PSoC5/ADC.c ****     #endif /* CY_PSOC5A */
1776:.\Generated_Source\PSoC5/ADC.c **** }
 2974              		.loc 1 1776 0
 2975 0190 07F11C07 		add	r7, r7, #28
 2976 0194 BD46     		mov	sp, r7
 2977 0196 80BC     		pop	{r7}
 2978 0198 7047     		bx	lr
 2979              		.cfi_endproc
 2980              	.LFE24:
 2981              		.size	ADC_GainCompensation, .-ADC_GainCompensation
 2982              		.section	.text.ADC_SetDSMRef0Reg,"ax",%progbits
 2983              		.align	2
 2984              		.global	ADC_SetDSMRef0Reg
 2985              		.thumb
 2986              		.thumb_func
 2987              		.type	ADC_SetDSMRef0Reg, %function
 2988              	ADC_SetDSMRef0Reg:
 2989              	.LFB25:
1777:.\Generated_Source\PSoC5/ADC.c **** 
1778:.\Generated_Source\PSoC5/ADC.c **** 
1779:.\Generated_Source\PSoC5/ADC.c **** /******************************************************************************
1780:.\Generated_Source\PSoC5/ADC.c **** * Function Name: ADC_SetDSMRef0Reg(uint8)
1781:.\Generated_Source\PSoC5/ADC.c **** ******************************************************************************
1782:.\Generated_Source\PSoC5/ADC.c **** *
1783:.\Generated_Source\PSoC5/ADC.c **** * Summary:
1784:.\Generated_Source\PSoC5/ADC.c **** *  This API sets the DSM_REF0 register. This is written for internal use.
1785:.\Generated_Source\PSoC5/ADC.c **** *
1786:.\Generated_Source\PSoC5/ADC.c **** * Parameters:  
1787:.\Generated_Source\PSoC5/ADC.c **** *  value:  Value to be written to DSM_REF0 register.
1788:.\Generated_Source\PSoC5/ADC.c **** *
1789:.\Generated_Source\PSoC5/ADC.c **** * Return: 
1790:.\Generated_Source\PSoC5/ADC.c **** *  void
1791:.\Generated_Source\PSoC5/ADC.c **** *
1792:.\Generated_Source\PSoC5/ADC.c **** ******************************************************************************/
1793:.\Generated_Source\PSoC5/ADC.c **** void ADC_SetDSMRef0Reg(uint8 value) 
1794:.\Generated_Source\PSoC5/ADC.c **** {
 2990              		.loc 1 1794 0
ARM GAS  C:\Users\Victor\AppData\Local\Temp\ccOsbm6Y.s 			page 85


 2991              		.cfi_startproc
 2992              		@ args = 0, pretend = 0, frame = 8
 2993              		@ frame_needed = 1, uses_anonymous_args = 0
 2994 0000 80B5     		push	{r7, lr}
 2995              	.LCFI67:
 2996              		.cfi_def_cfa_offset 8
 2997 0002 82B0     		sub	sp, sp, #8
 2998              	.LCFI68:
 2999              		.cfi_def_cfa_offset 16
 3000 0004 00AF     		add	r7, sp, #0
 3001              		.cfi_offset 14, -4
 3002              		.cfi_offset 7, -8
 3003              	.LCFI69:
 3004              		.cfi_def_cfa_register 7
 3005 0006 0346     		mov	r3, r0
 3006 0008 FB71     		strb	r3, [r7, #7]
1795:.\Generated_Source\PSoC5/ADC.c ****     /* Disable PRES, Enable power to VCMBUF0, REFBUF0 and REFBUF1, enable 
1796:.\Generated_Source\PSoC5/ADC.c ****        PRES */
1797:.\Generated_Source\PSoC5/ADC.c ****     #if (CY_PSOC3 || CY_PSOC5LP)
1798:.\Generated_Source\PSoC5/ADC.c ****         ADC_RESET_CR4_REG |= (ADC_IGNORE_PRESA1 | ADC_IGNORE_PRESD1);
 3007              		.loc 1 1798 0
 3008 000a 44F2F863 		movw	r3, #:lower16:1073759992
 3009 000e C4F20003 		movt	r3, #:upper16:1073759992
 3010 0012 44F2F862 		movw	r2, #:lower16:1073759992
 3011 0016 C4F20002 		movt	r2, #:upper16:1073759992
 3012 001a 1278     		ldrb	r2, [r2, #0]
 3013 001c D2B2     		uxtb	r2, r2
 3014 001e 42F00302 		orr	r2, r2, #3
 3015 0022 D2B2     		uxtb	r2, r2
 3016 0024 1A70     		strb	r2, [r3, #0]
1799:.\Generated_Source\PSoC5/ADC.c ****         ADC_RESET_CR5_REG |= (ADC_IGNORE_PRESA2 | ADC_IGNORE_PRESD2);
 3017              		.loc 1 1799 0
 3018 0026 44F2F963 		movw	r3, #:lower16:1073759993
 3019 002a C4F20003 		movt	r3, #:upper16:1073759993
 3020 002e 44F2F962 		movw	r2, #:lower16:1073759993
 3021 0032 C4F20002 		movt	r2, #:upper16:1073759993
 3022 0036 1278     		ldrb	r2, [r2, #0]
 3023 0038 D2B2     		uxtb	r2, r2
 3024 003a 42F00302 		orr	r2, r2, #3
 3025 003e D2B2     		uxtb	r2, r2
 3026 0040 1A70     		strb	r2, [r3, #0]
1800:.\Generated_Source\PSoC5/ADC.c ****     #elif (CY_PSOC5A)
1801:.\Generated_Source\PSoC5/ADC.c ****         ADC_RESET_CR1_REG |= ADC_DIS_PRES1;
1802:.\Generated_Source\PSoC5/ADC.c ****         ADC_RESET_CR3_REG |= ADC_DIS_PRES2;
1803:.\Generated_Source\PSoC5/ADC.c ****     #endif /* CY_PSOC5A */
1804:.\Generated_Source\PSoC5/ADC.c ****         ADC_DSM_REF0_REG = value;   
 3027              		.loc 1 1804 0
 3028 0042 45F69203 		movw	r3, #:lower16:1073764498
 3029 0046 C4F20003 		movt	r3, #:upper16:1073764498
 3030 004a FA79     		ldrb	r2, [r7, #7]
 3031 004c 1A70     		strb	r2, [r3, #0]
1805:.\Generated_Source\PSoC5/ADC.c **** 		
1806:.\Generated_Source\PSoC5/ADC.c **** 	/* Wait for 3 microseconds */
1807:.\Generated_Source\PSoC5/ADC.c ****     CyDelayUs(3);
 3032              		.loc 1 1807 0
 3033 004e 4FF00300 		mov	r0, #3
 3034 0052 FFF7FEFF 		bl	CyDelayUs
ARM GAS  C:\Users\Victor\AppData\Local\Temp\ccOsbm6Y.s 			page 86


1808:.\Generated_Source\PSoC5/ADC.c ****     /* Enable the press circuit */
1809:.\Generated_Source\PSoC5/ADC.c ****     #if (CY_PSOC3 || CY_PSOC5LP)
1810:.\Generated_Source\PSoC5/ADC.c ****         ADC_RESET_CR4_REG &= ~(ADC_IGNORE_PRESA1 | ADC_IGNORE_PRESD1);
 3035              		.loc 1 1810 0
 3036 0056 44F2F863 		movw	r3, #:lower16:1073759992
 3037 005a C4F20003 		movt	r3, #:upper16:1073759992
 3038 005e 44F2F862 		movw	r2, #:lower16:1073759992
 3039 0062 C4F20002 		movt	r2, #:upper16:1073759992
 3040 0066 1278     		ldrb	r2, [r2, #0]
 3041 0068 D2B2     		uxtb	r2, r2
 3042 006a 02F0FC02 		and	r2, r2, #252
 3043 006e 1A70     		strb	r2, [r3, #0]
1811:.\Generated_Source\PSoC5/ADC.c ****         ADC_RESET_CR5_REG &= ~(ADC_IGNORE_PRESA2 | ADC_IGNORE_PRESD2);
 3044              		.loc 1 1811 0
 3045 0070 44F2F963 		movw	r3, #:lower16:1073759993
 3046 0074 C4F20003 		movt	r3, #:upper16:1073759993
 3047 0078 44F2F962 		movw	r2, #:lower16:1073759993
 3048 007c C4F20002 		movt	r2, #:upper16:1073759993
 3049 0080 1278     		ldrb	r2, [r2, #0]
 3050 0082 D2B2     		uxtb	r2, r2
 3051 0084 02F0FC02 		and	r2, r2, #252
 3052 0088 1A70     		strb	r2, [r3, #0]
1812:.\Generated_Source\PSoC5/ADC.c ****     #elif (CY_PSOC5A)
1813:.\Generated_Source\PSoC5/ADC.c ****         ADC_RESET_CR1_REG &= ~ADC_DIS_PRES1;
1814:.\Generated_Source\PSoC5/ADC.c ****         ADC_RESET_CR3_REG &= ~ADC_DIS_PRES2;
1815:.\Generated_Source\PSoC5/ADC.c ****     #endif /* CY_PSOC5A */
1816:.\Generated_Source\PSoC5/ADC.c **** }
 3053              		.loc 1 1816 0
 3054 008a 07F10807 		add	r7, r7, #8
 3055 008e BD46     		mov	sp, r7
 3056 0090 80BD     		pop	{r7, pc}
 3057              		.cfi_endproc
 3058              	.LFE25:
 3059              		.size	ADC_SetDSMRef0Reg, .-ADC_SetDSMRef0Reg
 3060 0092 00BF     		.text
 3061              	.Letext0:
 3062              		.section	.debug_loc,"",%progbits
 3063              	.Ldebug_loc0:
 3064              	.LLST0:
 3065 0000 00000000 		.4byte	.LFB0
 3066 0004 02000000 		.4byte	.LCFI0
 3067 0008 0100     		.2byte	0x1
 3068 000a 5D       		.byte	0x5d
 3069 000b 02000000 		.4byte	.LCFI0
 3070 000f 04000000 		.4byte	.LCFI1
 3071 0013 0200     		.2byte	0x2
 3072 0015 7D       		.byte	0x7d
 3073 0016 08       		.sleb128 8
 3074 0017 04000000 		.4byte	.LCFI1
 3075 001b 32000000 		.4byte	.LFE0
 3076 001f 0200     		.2byte	0x2
 3077 0021 77       		.byte	0x77
 3078 0022 08       		.sleb128 8
 3079 0023 00000000 		.4byte	0x0
 3080 0027 00000000 		.4byte	0x0
 3081              	.LLST1:
 3082 002b 00000000 		.4byte	.LFB1
ARM GAS  C:\Users\Victor\AppData\Local\Temp\ccOsbm6Y.s 			page 87


 3083 002f 02000000 		.4byte	.LCFI2
 3084 0033 0100     		.2byte	0x1
 3085 0035 5D       		.byte	0x5d
 3086 0036 02000000 		.4byte	.LCFI2
 3087 003a 04000000 		.4byte	.LCFI3
 3088 003e 0200     		.2byte	0x2
 3089 0040 7D       		.byte	0x7d
 3090 0041 08       		.sleb128 8
 3091 0042 04000000 		.4byte	.LCFI3
 3092 0046 A2010000 		.4byte	.LFE1
 3093 004a 0200     		.2byte	0x2
 3094 004c 77       		.byte	0x77
 3095 004d 08       		.sleb128 8
 3096 004e 00000000 		.4byte	0x0
 3097 0052 00000000 		.4byte	0x0
 3098              	.LLST2:
 3099 0056 00000000 		.4byte	.LFB2
 3100 005a 02000000 		.4byte	.LCFI4
 3101 005e 0100     		.2byte	0x1
 3102 0060 5D       		.byte	0x5d
 3103 0061 02000000 		.4byte	.LCFI4
 3104 0065 04000000 		.4byte	.LCFI5
 3105 0069 0200     		.2byte	0x2
 3106 006b 7D       		.byte	0x7d
 3107 006c 08       		.sleb128 8
 3108 006d 04000000 		.4byte	.LCFI5
 3109 0071 3A000000 		.4byte	.LFE2
 3110 0075 0200     		.2byte	0x2
 3111 0077 77       		.byte	0x77
 3112 0078 08       		.sleb128 8
 3113 0079 00000000 		.4byte	0x0
 3114 007d 00000000 		.4byte	0x0
 3115              	.LLST3:
 3116 0081 00000000 		.4byte	.LFB3
 3117 0085 02000000 		.4byte	.LCFI6
 3118 0089 0100     		.2byte	0x1
 3119 008b 5D       		.byte	0x5d
 3120 008c 02000000 		.4byte	.LCFI6
 3121 0090 04000000 		.4byte	.LCFI7
 3122 0094 0200     		.2byte	0x2
 3123 0096 7D       		.byte	0x7d
 3124 0097 08       		.sleb128 8
 3125 0098 04000000 		.4byte	.LCFI7
 3126 009c CE010000 		.4byte	.LFE3
 3127 00a0 0200     		.2byte	0x2
 3128 00a2 77       		.byte	0x77
 3129 00a3 08       		.sleb128 8
 3130 00a4 00000000 		.4byte	0x0
 3131 00a8 00000000 		.4byte	0x0
 3132              	.LLST4:
 3133 00ac 00000000 		.4byte	.LFB4
 3134 00b0 02000000 		.4byte	.LCFI8
 3135 00b4 0100     		.2byte	0x1
 3136 00b6 5D       		.byte	0x5d
 3137 00b7 02000000 		.4byte	.LCFI8
 3138 00bb 04000000 		.4byte	.LCFI9
 3139 00bf 0200     		.2byte	0x2
ARM GAS  C:\Users\Victor\AppData\Local\Temp\ccOsbm6Y.s 			page 88


 3140 00c1 7D       		.byte	0x7d
 3141 00c2 04       		.sleb128 4
 3142 00c3 04000000 		.4byte	.LCFI9
 3143 00c7 06000000 		.4byte	.LCFI10
 3144 00cb 0200     		.2byte	0x2
 3145 00cd 7D       		.byte	0x7d
 3146 00ce 18       		.sleb128 24
 3147 00cf 06000000 		.4byte	.LCFI10
 3148 00d3 44000000 		.4byte	.LFE4
 3149 00d7 0200     		.2byte	0x2
 3150 00d9 77       		.byte	0x77
 3151 00da 18       		.sleb128 24
 3152 00db 00000000 		.4byte	0x0
 3153 00df 00000000 		.4byte	0x0
 3154              	.LLST5:
 3155 00e3 00000000 		.4byte	.LFB5
 3156 00e7 02000000 		.4byte	.LCFI11
 3157 00eb 0100     		.2byte	0x1
 3158 00ed 5D       		.byte	0x5d
 3159 00ee 02000000 		.4byte	.LCFI11
 3160 00f2 04000000 		.4byte	.LCFI12
 3161 00f6 0200     		.2byte	0x2
 3162 00f8 7D       		.byte	0x7d
 3163 00f9 04       		.sleb128 4
 3164 00fa 04000000 		.4byte	.LCFI12
 3165 00fe 06000000 		.4byte	.LCFI13
 3166 0102 0200     		.2byte	0x2
 3167 0104 7D       		.byte	0x7d
 3168 0105 18       		.sleb128 24
 3169 0106 06000000 		.4byte	.LCFI13
 3170 010a 3C000000 		.4byte	.LFE5
 3171 010e 0200     		.2byte	0x2
 3172 0110 77       		.byte	0x77
 3173 0111 18       		.sleb128 24
 3174 0112 00000000 		.4byte	0x0
 3175 0116 00000000 		.4byte	0x0
 3176              	.LLST6:
 3177 011a 00000000 		.4byte	.LFB6
 3178 011e 02000000 		.4byte	.LCFI14
 3179 0122 0100     		.2byte	0x1
 3180 0124 5D       		.byte	0x5d
 3181 0125 02000000 		.4byte	.LCFI14
 3182 0129 04000000 		.4byte	.LCFI15
 3183 012d 0200     		.2byte	0x2
 3184 012f 7D       		.byte	0x7d
 3185 0130 0C       		.sleb128 12
 3186 0131 04000000 		.4byte	.LCFI15
 3187 0135 06000000 		.4byte	.LCFI16
 3188 0139 0200     		.2byte	0x2
 3189 013b 7D       		.byte	0x7d
 3190 013c 20       		.sleb128 32
 3191 013d 06000000 		.4byte	.LCFI16
 3192 0141 E4000000 		.4byte	.LFE6
 3193 0145 0200     		.2byte	0x2
 3194 0147 77       		.byte	0x77
 3195 0148 20       		.sleb128 32
 3196 0149 00000000 		.4byte	0x0
ARM GAS  C:\Users\Victor\AppData\Local\Temp\ccOsbm6Y.s 			page 89


 3197 014d 00000000 		.4byte	0x0
 3198              	.LLST7:
 3199 0151 00000000 		.4byte	.LFB7
 3200 0155 02000000 		.4byte	.LCFI17
 3201 0159 0100     		.2byte	0x1
 3202 015b 5D       		.byte	0x5d
 3203 015c 02000000 		.4byte	.LCFI17
 3204 0160 04000000 		.4byte	.LCFI18
 3205 0164 0200     		.2byte	0x2
 3206 0166 7D       		.byte	0x7d
 3207 0167 04       		.sleb128 4
 3208 0168 04000000 		.4byte	.LCFI18
 3209 016c 06000000 		.4byte	.LCFI19
 3210 0170 0200     		.2byte	0x2
 3211 0172 7D       		.byte	0x7d
 3212 0173 10       		.sleb128 16
 3213 0174 06000000 		.4byte	.LCFI19
 3214 0178 BA000000 		.4byte	.LFE7
 3215 017c 0200     		.2byte	0x2
 3216 017e 77       		.byte	0x77
 3217 017f 10       		.sleb128 16
 3218 0180 00000000 		.4byte	0x0
 3219 0184 00000000 		.4byte	0x0
 3220              	.LLST8:
 3221 0188 00000000 		.4byte	.LFB8
 3222 018c 02000000 		.4byte	.LCFI20
 3223 0190 0100     		.2byte	0x1
 3224 0192 5D       		.byte	0x5d
 3225 0193 02000000 		.4byte	.LCFI20
 3226 0197 04000000 		.4byte	.LCFI21
 3227 019b 0200     		.2byte	0x2
 3228 019d 7D       		.byte	0x7d
 3229 019e 04       		.sleb128 4
 3230 019f 04000000 		.4byte	.LCFI21
 3231 01a3 06000000 		.4byte	.LCFI22
 3232 01a7 0200     		.2byte	0x2
 3233 01a9 7D       		.byte	0x7d
 3234 01aa 10       		.sleb128 16
 3235 01ab 06000000 		.4byte	.LCFI22
 3236 01af 44000000 		.4byte	.LFE8
 3237 01b3 0200     		.2byte	0x2
 3238 01b5 77       		.byte	0x77
 3239 01b6 10       		.sleb128 16
 3240 01b7 00000000 		.4byte	0x0
 3241 01bb 00000000 		.4byte	0x0
 3242              	.LLST9:
 3243 01bf 00000000 		.4byte	.LFB9
 3244 01c3 02000000 		.4byte	.LCFI23
 3245 01c7 0100     		.2byte	0x1
 3246 01c9 5D       		.byte	0x5d
 3247 01ca 02000000 		.4byte	.LCFI23
 3248 01ce 04000000 		.4byte	.LCFI24
 3249 01d2 0200     		.2byte	0x2
 3250 01d4 7D       		.byte	0x7d
 3251 01d5 04       		.sleb128 4
 3252 01d6 04000000 		.4byte	.LCFI24
 3253 01da 26000000 		.4byte	.LFE9
ARM GAS  C:\Users\Victor\AppData\Local\Temp\ccOsbm6Y.s 			page 90


 3254 01de 0200     		.2byte	0x2
 3255 01e0 77       		.byte	0x77
 3256 01e1 04       		.sleb128 4
 3257 01e2 00000000 		.4byte	0x0
 3258 01e6 00000000 		.4byte	0x0
 3259              	.LLST10:
 3260 01ea 00000000 		.4byte	.LFB10
 3261 01ee 02000000 		.4byte	.LCFI25
 3262 01f2 0100     		.2byte	0x1
 3263 01f4 5D       		.byte	0x5d
 3264 01f5 02000000 		.4byte	.LCFI25
 3265 01f9 04000000 		.4byte	.LCFI26
 3266 01fd 0200     		.2byte	0x2
 3267 01ff 7D       		.byte	0x7d
 3268 0200 04       		.sleb128 4
 3269 0201 04000000 		.4byte	.LCFI26
 3270 0205 32000000 		.4byte	.LFE10
 3271 0209 0200     		.2byte	0x2
 3272 020b 77       		.byte	0x77
 3273 020c 04       		.sleb128 4
 3274 020d 00000000 		.4byte	0x0
 3275 0211 00000000 		.4byte	0x0
 3276              	.LLST11:
 3277 0215 00000000 		.4byte	.LFB11
 3278 0219 02000000 		.4byte	.LCFI27
 3279 021d 0100     		.2byte	0x1
 3280 021f 5D       		.byte	0x5d
 3281 0220 02000000 		.4byte	.LCFI27
 3282 0224 04000000 		.4byte	.LCFI28
 3283 0228 0200     		.2byte	0x2
 3284 022a 7D       		.byte	0x7d
 3285 022b 04       		.sleb128 4
 3286 022c 04000000 		.4byte	.LCFI28
 3287 0230 06000000 		.4byte	.LCFI29
 3288 0234 0200     		.2byte	0x2
 3289 0236 7D       		.byte	0x7d
 3290 0237 18       		.sleb128 24
 3291 0238 06000000 		.4byte	.LCFI29
 3292 023c 60000000 		.4byte	.LFE11
 3293 0240 0200     		.2byte	0x2
 3294 0242 77       		.byte	0x77
 3295 0243 18       		.sleb128 24
 3296 0244 00000000 		.4byte	0x0
 3297 0248 00000000 		.4byte	0x0
 3298              	.LLST12:
 3299 024c 00000000 		.4byte	.LFB12
 3300 0250 02000000 		.4byte	.LCFI30
 3301 0254 0100     		.2byte	0x1
 3302 0256 5D       		.byte	0x5d
 3303 0257 02000000 		.4byte	.LCFI30
 3304 025b 04000000 		.4byte	.LCFI31
 3305 025f 0200     		.2byte	0x2
 3306 0261 7D       		.byte	0x7d
 3307 0262 04       		.sleb128 4
 3308 0263 04000000 		.4byte	.LCFI31
 3309 0267 1A000000 		.4byte	.LFE12
 3310 026b 0200     		.2byte	0x2
ARM GAS  C:\Users\Victor\AppData\Local\Temp\ccOsbm6Y.s 			page 91


 3311 026d 77       		.byte	0x77
 3312 026e 04       		.sleb128 4
 3313 026f 00000000 		.4byte	0x0
 3314 0273 00000000 		.4byte	0x0
 3315              	.LLST13:
 3316 0277 00000000 		.4byte	.LFB13
 3317 027b 02000000 		.4byte	.LCFI32
 3318 027f 0100     		.2byte	0x1
 3319 0281 5D       		.byte	0x5d
 3320 0282 02000000 		.4byte	.LCFI32
 3321 0286 04000000 		.4byte	.LCFI33
 3322 028a 0200     		.2byte	0x2
 3323 028c 7D       		.byte	0x7d
 3324 028d 04       		.sleb128 4
 3325 028e 04000000 		.4byte	.LCFI33
 3326 0292 06000000 		.4byte	.LCFI34
 3327 0296 0200     		.2byte	0x2
 3328 0298 7D       		.byte	0x7d
 3329 0299 10       		.sleb128 16
 3330 029a 06000000 		.4byte	.LCFI34
 3331 029e 22000000 		.4byte	.LFE13
 3332 02a2 0200     		.2byte	0x2
 3333 02a4 77       		.byte	0x77
 3334 02a5 10       		.sleb128 16
 3335 02a6 00000000 		.4byte	0x0
 3336 02aa 00000000 		.4byte	0x0
 3337              	.LLST14:
 3338 02ae 00000000 		.4byte	.LFB14
 3339 02b2 02000000 		.4byte	.LCFI35
 3340 02b6 0100     		.2byte	0x1
 3341 02b8 5D       		.byte	0x5d
 3342 02b9 02000000 		.4byte	.LCFI35
 3343 02bd 04000000 		.4byte	.LCFI36
 3344 02c1 0200     		.2byte	0x2
 3345 02c3 7D       		.byte	0x7d
 3346 02c4 04       		.sleb128 4
 3347 02c5 04000000 		.4byte	.LCFI36
 3348 02c9 06000000 		.4byte	.LCFI37
 3349 02cd 0200     		.2byte	0x2
 3350 02cf 7D       		.byte	0x7d
 3351 02d0 10       		.sleb128 16
 3352 02d1 06000000 		.4byte	.LCFI37
 3353 02d5 3A000000 		.4byte	.LFE14
 3354 02d9 0200     		.2byte	0x2
 3355 02db 77       		.byte	0x77
 3356 02dc 10       		.sleb128 16
 3357 02dd 00000000 		.4byte	0x0
 3358 02e1 00000000 		.4byte	0x0
 3359              	.LLST15:
 3360 02e5 00000000 		.4byte	.LFB15
 3361 02e9 02000000 		.4byte	.LCFI38
 3362 02ed 0100     		.2byte	0x1
 3363 02ef 5D       		.byte	0x5d
 3364 02f0 02000000 		.4byte	.LCFI38
 3365 02f4 04000000 		.4byte	.LCFI39
 3366 02f8 0200     		.2byte	0x2
 3367 02fa 7D       		.byte	0x7d
ARM GAS  C:\Users\Victor\AppData\Local\Temp\ccOsbm6Y.s 			page 92


 3368 02fb 04       		.sleb128 4
 3369 02fc 04000000 		.4byte	.LCFI39
 3370 0300 06000000 		.4byte	.LCFI40
 3371 0304 0200     		.2byte	0x2
 3372 0306 7D       		.byte	0x7d
 3373 0307 10       		.sleb128 16
 3374 0308 06000000 		.4byte	.LCFI40
 3375 030c 1E000000 		.4byte	.LFE15
 3376 0310 0200     		.2byte	0x2
 3377 0312 77       		.byte	0x77
 3378 0313 10       		.sleb128 16
 3379 0314 00000000 		.4byte	0x0
 3380 0318 00000000 		.4byte	0x0
 3381              	.LLST16:
 3382 031c 00000000 		.4byte	.LFB16
 3383 0320 02000000 		.4byte	.LCFI41
 3384 0324 0100     		.2byte	0x1
 3385 0326 5D       		.byte	0x5d
 3386 0327 02000000 		.4byte	.LCFI41
 3387 032b 04000000 		.4byte	.LCFI42
 3388 032f 0200     		.2byte	0x2
 3389 0331 7D       		.byte	0x7d
 3390 0332 04       		.sleb128 4
 3391 0333 04000000 		.4byte	.LCFI42
 3392 0337 06000000 		.4byte	.LCFI43
 3393 033b 0200     		.2byte	0x2
 3394 033d 7D       		.byte	0x7d
 3395 033e 10       		.sleb128 16
 3396 033f 06000000 		.4byte	.LCFI43
 3397 0343 1E000000 		.4byte	.LFE16
 3398 0347 0200     		.2byte	0x2
 3399 0349 77       		.byte	0x77
 3400 034a 10       		.sleb128 16
 3401 034b 00000000 		.4byte	0x0
 3402 034f 00000000 		.4byte	0x0
 3403              	.LLST17:
 3404 0353 00000000 		.4byte	.LFB17
 3405 0357 02000000 		.4byte	.LCFI44
 3406 035b 0100     		.2byte	0x1
 3407 035d 5D       		.byte	0x5d
 3408 035e 02000000 		.4byte	.LCFI44
 3409 0362 04000000 		.4byte	.LCFI45
 3410 0366 0200     		.2byte	0x2
 3411 0368 7D       		.byte	0x7d
 3412 0369 04       		.sleb128 4
 3413 036a 04000000 		.4byte	.LCFI45
 3414 036e 06000000 		.4byte	.LCFI46
 3415 0372 0200     		.2byte	0x2
 3416 0374 7D       		.byte	0x7d
 3417 0375 20       		.sleb128 32
 3418 0376 06000000 		.4byte	.LCFI46
 3419 037a C4000000 		.4byte	.LFE17
 3420 037e 0200     		.2byte	0x2
 3421 0380 77       		.byte	0x77
 3422 0381 20       		.sleb128 32
 3423 0382 00000000 		.4byte	0x0
 3424 0386 00000000 		.4byte	0x0
ARM GAS  C:\Users\Victor\AppData\Local\Temp\ccOsbm6Y.s 			page 93


 3425              	.LLST18:
 3426 038a 00000000 		.4byte	.LFB18
 3427 038e 02000000 		.4byte	.LCFI47
 3428 0392 0100     		.2byte	0x1
 3429 0394 5D       		.byte	0x5d
 3430 0395 02000000 		.4byte	.LCFI47
 3431 0399 04000000 		.4byte	.LCFI48
 3432 039d 0200     		.2byte	0x2
 3433 039f 7D       		.byte	0x7d
 3434 03a0 0C       		.sleb128 12
 3435 03a1 04000000 		.4byte	.LCFI48
 3436 03a5 06000000 		.4byte	.LCFI49
 3437 03a9 0200     		.2byte	0x2
 3438 03ab 7D       		.byte	0x7d
 3439 03ac 20       		.sleb128 32
 3440 03ad 06000000 		.4byte	.LCFI49
 3441 03b1 54000000 		.4byte	.LFE18
 3442 03b5 0200     		.2byte	0x2
 3443 03b7 77       		.byte	0x77
 3444 03b8 20       		.sleb128 32
 3445 03b9 00000000 		.4byte	0x0
 3446 03bd 00000000 		.4byte	0x0
 3447              	.LLST19:
 3448 03c1 00000000 		.4byte	.LFB19
 3449 03c5 02000000 		.4byte	.LCFI50
 3450 03c9 0100     		.2byte	0x1
 3451 03cb 5D       		.byte	0x5d
 3452 03cc 02000000 		.4byte	.LCFI50
 3453 03d0 04000000 		.4byte	.LCFI51
 3454 03d4 0200     		.2byte	0x2
 3455 03d6 7D       		.byte	0x7d
 3456 03d7 04       		.sleb128 4
 3457 03d8 04000000 		.4byte	.LCFI51
 3458 03dc 06000000 		.4byte	.LCFI52
 3459 03e0 0200     		.2byte	0x2
 3460 03e2 7D       		.byte	0x7d
 3461 03e3 20       		.sleb128 32
 3462 03e4 06000000 		.4byte	.LCFI52
 3463 03e8 F0000000 		.4byte	.LFE19
 3464 03ec 0200     		.2byte	0x2
 3465 03ee 77       		.byte	0x77
 3466 03ef 20       		.sleb128 32
 3467 03f0 00000000 		.4byte	0x0
 3468 03f4 00000000 		.4byte	0x0
 3469              	.LLST20:
 3470 03f8 00000000 		.4byte	.LFB20
 3471 03fc 02000000 		.4byte	.LCFI53
 3472 0400 0100     		.2byte	0x1
 3473 0402 5D       		.byte	0x5d
 3474 0403 02000000 		.4byte	.LCFI53
 3475 0407 04000000 		.4byte	.LCFI54
 3476 040b 0200     		.2byte	0x2
 3477 040d 7D       		.byte	0x7d
 3478 040e 08       		.sleb128 8
 3479 040f 04000000 		.4byte	.LCFI54
 3480 0413 3E000000 		.4byte	.LFE20
 3481 0417 0200     		.2byte	0x2
ARM GAS  C:\Users\Victor\AppData\Local\Temp\ccOsbm6Y.s 			page 94


 3482 0419 77       		.byte	0x77
 3483 041a 08       		.sleb128 8
 3484 041b 00000000 		.4byte	0x0
 3485 041f 00000000 		.4byte	0x0
 3486              	.LLST21:
 3487 0423 00000000 		.4byte	.LFB21
 3488 0427 02000000 		.4byte	.LCFI55
 3489 042b 0100     		.2byte	0x1
 3490 042d 5D       		.byte	0x5d
 3491 042e 02000000 		.4byte	.LCFI55
 3492 0432 04000000 		.4byte	.LCFI56
 3493 0436 0200     		.2byte	0x2
 3494 0438 7D       		.byte	0x7d
 3495 0439 08       		.sleb128 8
 3496 043a 04000000 		.4byte	.LCFI56
 3497 043e 06000000 		.4byte	.LCFI57
 3498 0442 0200     		.2byte	0x2
 3499 0444 7D       		.byte	0x7d
 3500 0445 10       		.sleb128 16
 3501 0446 06000000 		.4byte	.LCFI57
 3502 044a 60080000 		.4byte	.LFE21
 3503 044e 0200     		.2byte	0x2
 3504 0450 77       		.byte	0x77
 3505 0451 10       		.sleb128 16
 3506 0452 00000000 		.4byte	0x0
 3507 0456 00000000 		.4byte	0x0
 3508              	.LLST22:
 3509 045a 00000000 		.4byte	.LFB22
 3510 045e 02000000 		.4byte	.LCFI58
 3511 0462 0100     		.2byte	0x1
 3512 0464 5D       		.byte	0x5d
 3513 0465 02000000 		.4byte	.LCFI58
 3514 0469 04000000 		.4byte	.LCFI59
 3515 046d 0200     		.2byte	0x2
 3516 046f 7D       		.byte	0x7d
 3517 0470 04       		.sleb128 4
 3518 0471 04000000 		.4byte	.LCFI59
 3519 0475 06000000 		.4byte	.LCFI60
 3520 0479 0200     		.2byte	0x2
 3521 047b 7D       		.byte	0x7d
 3522 047c 18       		.sleb128 24
 3523 047d 06000000 		.4byte	.LCFI60
 3524 0481 54000000 		.4byte	.LFE22
 3525 0485 0200     		.2byte	0x2
 3526 0487 77       		.byte	0x77
 3527 0488 18       		.sleb128 24
 3528 0489 00000000 		.4byte	0x0
 3529 048d 00000000 		.4byte	0x0
 3530              	.LLST23:
 3531 0491 00000000 		.4byte	.LFB23
 3532 0495 02000000 		.4byte	.LCFI61
 3533 0499 0100     		.2byte	0x1
 3534 049b 5D       		.byte	0x5d
 3535 049c 02000000 		.4byte	.LCFI61
 3536 04a0 04000000 		.4byte	.LCFI62
 3537 04a4 0200     		.2byte	0x2
 3538 04a6 7D       		.byte	0x7d
ARM GAS  C:\Users\Victor\AppData\Local\Temp\ccOsbm6Y.s 			page 95


 3539 04a7 08       		.sleb128 8
 3540 04a8 04000000 		.4byte	.LCFI62
 3541 04ac 06000000 		.4byte	.LCFI63
 3542 04b0 0200     		.2byte	0x2
 3543 04b2 7D       		.byte	0x7d
 3544 04b3 20       		.sleb128 32
 3545 04b4 06000000 		.4byte	.LCFI63
 3546 04b8 F0010000 		.4byte	.LFE23
 3547 04bc 0200     		.2byte	0x2
 3548 04be 77       		.byte	0x77
 3549 04bf 20       		.sleb128 32
 3550 04c0 00000000 		.4byte	0x0
 3551 04c4 00000000 		.4byte	0x0
 3552              	.LLST24:
 3553 04c8 00000000 		.4byte	.LFB24
 3554 04cc 02000000 		.4byte	.LCFI64
 3555 04d0 0100     		.2byte	0x1
 3556 04d2 5D       		.byte	0x5d
 3557 04d3 02000000 		.4byte	.LCFI64
 3558 04d7 04000000 		.4byte	.LCFI65
 3559 04db 0200     		.2byte	0x2
 3560 04dd 7D       		.byte	0x7d
 3561 04de 04       		.sleb128 4
 3562 04df 04000000 		.4byte	.LCFI65
 3563 04e3 06000000 		.4byte	.LCFI66
 3564 04e7 0200     		.2byte	0x2
 3565 04e9 7D       		.byte	0x7d
 3566 04ea 20       		.sleb128 32
 3567 04eb 06000000 		.4byte	.LCFI66
 3568 04ef 9A010000 		.4byte	.LFE24
 3569 04f3 0200     		.2byte	0x2
 3570 04f5 77       		.byte	0x77
 3571 04f6 20       		.sleb128 32
 3572 04f7 00000000 		.4byte	0x0
 3573 04fb 00000000 		.4byte	0x0
 3574              	.LLST25:
 3575 04ff 00000000 		.4byte	.LFB25
 3576 0503 02000000 		.4byte	.LCFI67
 3577 0507 0100     		.2byte	0x1
 3578 0509 5D       		.byte	0x5d
 3579 050a 02000000 		.4byte	.LCFI67
 3580 050e 04000000 		.4byte	.LCFI68
 3581 0512 0200     		.2byte	0x2
 3582 0514 7D       		.byte	0x7d
 3583 0515 08       		.sleb128 8
 3584 0516 04000000 		.4byte	.LCFI68
 3585 051a 06000000 		.4byte	.LCFI69
 3586 051e 0200     		.2byte	0x2
 3587 0520 7D       		.byte	0x7d
 3588 0521 10       		.sleb128 16
 3589 0522 06000000 		.4byte	.LCFI69
 3590 0526 92000000 		.4byte	.LFE25
 3591 052a 0200     		.2byte	0x2
 3592 052c 77       		.byte	0x77
 3593 052d 10       		.sleb128 16
 3594 052e 00000000 		.4byte	0x0
 3595 0532 00000000 		.4byte	0x0
ARM GAS  C:\Users\Victor\AppData\Local\Temp\ccOsbm6Y.s 			page 96


 3596              		.file 2 ".\\Generated_Source\\PSoC5\\/cytypes.h"
 3597              		.section	.debug_info
 3598 0000 1D070000 		.4byte	0x71d
 3599 0004 0200     		.2byte	0x2
 3600 0006 00000000 		.4byte	.Ldebug_abbrev0
 3601 000a 04       		.byte	0x4
 3602 000b 01       		.uleb128 0x1
 3603 000c 76000000 		.4byte	.LASF88
 3604 0010 01       		.byte	0x1
 3605 0011 05010000 		.4byte	.LASF89
 3606 0015 12040000 		.4byte	.LASF90
 3607 0019 00000000 		.4byte	0x0
 3608 001d 00000000 		.4byte	0x0
 3609 0021 00000000 		.4byte	.Ldebug_ranges0+0x0
 3610 0025 00000000 		.4byte	.Ldebug_line0
 3611 0029 02       		.uleb128 0x2
 3612 002a 01       		.byte	0x1
 3613 002b 06       		.byte	0x6
 3614 002c D6000000 		.4byte	.LASF0
 3615 0030 02       		.uleb128 0x2
 3616 0031 01       		.byte	0x1
 3617 0032 08       		.byte	0x8
 3618 0033 0A030000 		.4byte	.LASF1
 3619 0037 02       		.uleb128 0x2
 3620 0038 02       		.byte	0x2
 3621 0039 05       		.byte	0x5
 3622 003a 30030000 		.4byte	.LASF2
 3623 003e 02       		.uleb128 0x2
 3624 003f 02       		.byte	0x2
 3625 0040 07       		.byte	0x7
 3626 0041 F5010000 		.4byte	.LASF3
 3627 0045 02       		.uleb128 0x2
 3628 0046 04       		.byte	0x4
 3629 0047 05       		.byte	0x5
 3630 0048 41010000 		.4byte	.LASF4
 3631 004c 02       		.uleb128 0x2
 3632 004d 04       		.byte	0x4
 3633 004e 07       		.byte	0x7
 3634 004f D0010000 		.4byte	.LASF5
 3635 0053 02       		.uleb128 0x2
 3636 0054 08       		.byte	0x8
 3637 0055 05       		.byte	0x5
 3638 0056 C8000000 		.4byte	.LASF6
 3639 005a 02       		.uleb128 0x2
 3640 005b 08       		.byte	0x8
 3641 005c 07       		.byte	0x7
 3642 005d 5F000000 		.4byte	.LASF7
 3643 0061 03       		.uleb128 0x3
 3644 0062 04       		.byte	0x4
 3645 0063 05       		.byte	0x5
 3646 0064 696E7400 		.ascii	"int\000"
 3647 0068 02       		.uleb128 0x2
 3648 0069 04       		.byte	0x4
 3649 006a 07       		.byte	0x7
 3650 006b BC010000 		.4byte	.LASF8
 3651 006f 04       		.uleb128 0x4
 3652 0070 5E010000 		.4byte	.LASF9
ARM GAS  C:\Users\Victor\AppData\Local\Temp\ccOsbm6Y.s 			page 97


 3653 0074 02       		.byte	0x2
 3654 0075 4C       		.byte	0x4c
 3655 0076 30000000 		.4byte	0x30
 3656 007a 04       		.uleb128 0x4
 3657 007b 00000000 		.4byte	.LASF10
 3658 007f 02       		.byte	0x2
 3659 0080 4D       		.byte	0x4d
 3660 0081 3E000000 		.4byte	0x3e
 3661 0085 04       		.uleb128 0x4
 3662 0086 81010000 		.4byte	.LASF11
 3663 008a 02       		.byte	0x2
 3664 008b 4E       		.byte	0x4e
 3665 008c 4C000000 		.4byte	0x4c
 3666 0090 04       		.uleb128 0x4
 3667 0091 08020000 		.4byte	.LASF12
 3668 0095 02       		.byte	0x2
 3669 0096 4F       		.byte	0x4f
 3670 0097 29000000 		.4byte	0x29
 3671 009b 04       		.uleb128 0x4
 3672 009c FE030000 		.4byte	.LASF13
 3673 00a0 02       		.byte	0x2
 3674 00a1 50       		.byte	0x50
 3675 00a2 37000000 		.4byte	0x37
 3676 00a6 04       		.uleb128 0x4
 3677 00a7 24010000 		.4byte	.LASF14
 3678 00ab 02       		.byte	0x2
 3679 00ac 51       		.byte	0x51
 3680 00ad 45000000 		.4byte	0x45
 3681 00b1 02       		.uleb128 0x2
 3682 00b2 04       		.byte	0x4
 3683 00b3 04       		.byte	0x4
 3684 00b4 DD020000 		.4byte	.LASF15
 3685 00b8 02       		.uleb128 0x2
 3686 00b9 08       		.byte	0x8
 3687 00ba 04       		.byte	0x4
 3688 00bb 64010000 		.4byte	.LASF16
 3689 00bf 02       		.uleb128 0x2
 3690 00c0 01       		.byte	0x1
 3691 00c1 08       		.byte	0x8
 3692 00c2 80030000 		.4byte	.LASF17
 3693 00c6 05       		.uleb128 0x5
 3694 00c7 6F000000 		.4byte	0x6f
 3695 00cb 06       		.uleb128 0x6
 3696 00cc 04       		.byte	0x4
 3697 00cd 07       		.byte	0x7
 3698 00ce 07       		.uleb128 0x7
 3699 00cf 01       		.byte	0x1
 3700 00d0 56000000 		.4byte	.LASF18
 3701 00d4 01       		.byte	0x1
 3702 00d5 5D       		.byte	0x5d
 3703 00d6 01       		.byte	0x1
 3704 00d7 00000000 		.4byte	.LFB0
 3705 00db 32000000 		.4byte	.LFE0
 3706 00df 00000000 		.4byte	.LLST0
 3707 00e3 07       		.uleb128 0x7
 3708 00e4 01       		.byte	0x1
 3709 00e5 DB030000 		.4byte	.LASF19
ARM GAS  C:\Users\Victor\AppData\Local\Temp\ccOsbm6Y.s 			page 98


 3710 00e9 01       		.byte	0x1
 3711 00ea 81       		.byte	0x81
 3712 00eb 01       		.byte	0x1
 3713 00ec 00000000 		.4byte	.LFB1
 3714 00f0 A2010000 		.4byte	.LFE1
 3715 00f4 2B000000 		.4byte	.LLST1
 3716 00f8 08       		.uleb128 0x8
 3717 00f9 01       		.byte	0x1
 3718 00fa 2A010000 		.4byte	.LASF20
 3719 00fe 01       		.byte	0x1
 3720 00ff 5001     		.2byte	0x150
 3721 0101 01       		.byte	0x1
 3722 0102 00000000 		.4byte	.LFB2
 3723 0106 3A000000 		.4byte	.LFE2
 3724 010a 56000000 		.4byte	.LLST2
 3725 010e 08       		.uleb128 0x8
 3726 010f 01       		.byte	0x1
 3727 0110 3A030000 		.4byte	.LASF21
 3728 0114 01       		.byte	0x1
 3729 0115 6E01     		.2byte	0x16e
 3730 0117 01       		.byte	0x1
 3731 0118 00000000 		.4byte	.LFB3
 3732 011c CE010000 		.4byte	.LFE3
 3733 0120 81000000 		.4byte	.LLST3
 3734 0124 09       		.uleb128 0x9
 3735 0125 01       		.byte	0x1
 3736 0126 F3000000 		.4byte	.LASF22
 3737 012a 01       		.byte	0x1
 3738 012b C201     		.2byte	0x1c2
 3739 012d 01       		.byte	0x1
 3740 012e 00000000 		.4byte	.LFB4
 3741 0132 44000000 		.4byte	.LFE4
 3742 0136 AC000000 		.4byte	.LLST4
 3743 013a 5D010000 		.4byte	0x15d
 3744 013e 0A       		.uleb128 0xa
 3745 013f 05030000 		.4byte	.LASF24
 3746 0143 01       		.byte	0x1
 3747 0144 C201     		.2byte	0x1c2
 3748 0146 6F000000 		.4byte	0x6f
 3749 014a 02       		.byte	0x2
 3750 014b 91       		.byte	0x91
 3751 014c 6F       		.sleb128 -17
 3752 014d 0B       		.uleb128 0xb
 3753 014e 8E040000 		.4byte	.LASF26
 3754 0152 01       		.byte	0x1
 3755 0153 C401     		.2byte	0x1c4
 3756 0155 6F000000 		.4byte	0x6f
 3757 0159 02       		.byte	0x2
 3758 015a 91       		.byte	0x91
 3759 015b 77       		.sleb128 -9
 3760 015c 00       		.byte	0x0
 3761 015d 09       		.uleb128 0x9
 3762 015e 01       		.byte	0x1
 3763 015f 43020000 		.4byte	.LASF23
 3764 0163 01       		.byte	0x1
 3765 0164 E101     		.2byte	0x1e1
 3766 0166 01       		.byte	0x1
ARM GAS  C:\Users\Victor\AppData\Local\Temp\ccOsbm6Y.s 			page 99


 3767 0167 00000000 		.4byte	.LFB5
 3768 016b 3C000000 		.4byte	.LFE5
 3769 016f E3000000 		.4byte	.LLST5
 3770 0173 96010000 		.4byte	0x196
 3771 0177 0A       		.uleb128 0xa
 3772 0178 C0020000 		.4byte	.LASF25
 3773 017c 01       		.byte	0x1
 3774 017d E101     		.2byte	0x1e1
 3775 017f 6F000000 		.4byte	0x6f
 3776 0183 02       		.byte	0x2
 3777 0184 91       		.byte	0x91
 3778 0185 6F       		.sleb128 -17
 3779 0186 0B       		.uleb128 0xb
 3780 0187 8E040000 		.4byte	.LASF26
 3781 018b 01       		.byte	0x1
 3782 018c E301     		.2byte	0x1e3
 3783 018e 6F000000 		.4byte	0x6f
 3784 0192 02       		.byte	0x2
 3785 0193 91       		.byte	0x91
 3786 0194 77       		.sleb128 -9
 3787 0195 00       		.byte	0x0
 3788 0196 0C       		.uleb128 0xc
 3789 0197 01       		.byte	0x1
 3790 0198 73020000 		.4byte	.LASF30
 3791 019c 01       		.byte	0x1
 3792 019d FF01     		.2byte	0x1ff
 3793 019f 01       		.byte	0x1
 3794 01a0 6F000000 		.4byte	0x6f
 3795 01a4 00000000 		.4byte	.LFB6
 3796 01a8 E4000000 		.4byte	.LFE6
 3797 01ac 1A010000 		.4byte	.LLST6
 3798 01b0 F1010000 		.4byte	0x1f1
 3799 01b4 0A       		.uleb128 0xa
 3800 01b5 F3030000 		.4byte	.LASF27
 3801 01b9 01       		.byte	0x1
 3802 01ba FF01     		.2byte	0x1ff
 3803 01bc B1000000 		.4byte	0xb1
 3804 01c0 02       		.byte	0x2
 3805 01c1 91       		.byte	0x91
 3806 01c2 64       		.sleb128 -28
 3807 01c3 0B       		.uleb128 0xb
 3808 01c4 8E040000 		.4byte	.LASF26
 3809 01c8 01       		.byte	0x1
 3810 01c9 0102     		.2byte	0x201
 3811 01cb 7A000000 		.4byte	0x7a
 3812 01cf 02       		.byte	0x2
 3813 01d0 91       		.byte	0x91
 3814 01d1 68       		.sleb128 -24
 3815 01d2 0B       		.uleb128 0xb
 3816 01d3 E2000000 		.4byte	.LASF28
 3817 01d7 01       		.byte	0x1
 3818 01d8 0202     		.2byte	0x202
 3819 01da 6F000000 		.4byte	0x6f
 3820 01de 02       		.byte	0x2
 3821 01df 91       		.byte	0x91
 3822 01e0 6B       		.sleb128 -21
 3823 01e1 0B       		.uleb128 0xb
ARM GAS  C:\Users\Victor\AppData\Local\Temp\ccOsbm6Y.s 			page 100


 3824 01e2 B4030000 		.4byte	.LASF29
 3825 01e6 01       		.byte	0x1
 3826 01e7 0302     		.2byte	0x203
 3827 01e9 B1000000 		.4byte	0xb1
 3828 01ed 02       		.byte	0x2
 3829 01ee 91       		.byte	0x91
 3830 01ef 6C       		.sleb128 -20
 3831 01f0 00       		.byte	0x0
 3832 01f1 0C       		.uleb128 0xc
 3833 01f2 01       		.byte	0x1
 3834 01f3 E6030000 		.4byte	.LASF31
 3835 01f7 01       		.byte	0x1
 3836 01f8 2C02     		.2byte	0x22c
 3837 01fa 01       		.byte	0x1
 3838 01fb 7A000000 		.4byte	0x7a
 3839 01ff 00000000 		.4byte	.LFB7
 3840 0203 BA000000 		.4byte	.LFE7
 3841 0207 51010000 		.4byte	.LLST7
 3842 020b 3D020000 		.4byte	0x23d
 3843 020f 0B       		.uleb128 0xb
 3844 0210 85030000 		.4byte	.LASF32
 3845 0214 01       		.byte	0x1
 3846 0215 2E02     		.2byte	0x22e
 3847 0217 6F000000 		.4byte	0x6f
 3848 021b 02       		.byte	0x2
 3849 021c 91       		.byte	0x91
 3850 021d 73       		.sleb128 -13
 3851 021e 0B       		.uleb128 0xb
 3852 021f 1D020000 		.4byte	.LASF33
 3853 0223 01       		.byte	0x1
 3854 0224 2F02     		.2byte	0x22f
 3855 0226 7A000000 		.4byte	0x7a
 3856 022a 02       		.byte	0x2
 3857 022b 91       		.byte	0x91
 3858 022c 74       		.sleb128 -12
 3859 022d 0B       		.uleb128 0xb
 3860 022e E8010000 		.4byte	.LASF34
 3861 0232 01       		.byte	0x1
 3862 0233 2F02     		.2byte	0x22f
 3863 0235 7A000000 		.4byte	0x7a
 3864 0239 02       		.byte	0x2
 3865 023a 91       		.byte	0x91
 3866 023b 76       		.sleb128 -10
 3867 023c 00       		.byte	0x0
 3868 023d 09       		.uleb128 0x9
 3869 023e 01       		.byte	0x1
 3870 023f A9000000 		.4byte	.LASF35
 3871 0243 01       		.byte	0x1
 3872 0244 6602     		.2byte	0x266
 3873 0246 01       		.byte	0x1
 3874 0247 00000000 		.4byte	.LFB8
 3875 024b 44000000 		.4byte	.LFE8
 3876 024f 88010000 		.4byte	.LLST8
 3877 0253 76020000 		.4byte	0x276
 3878 0257 0A       		.uleb128 0xa
 3879 0258 CA020000 		.4byte	.LASF36
 3880 025c 01       		.byte	0x1
ARM GAS  C:\Users\Victor\AppData\Local\Temp\ccOsbm6Y.s 			page 101


 3881 025d 6602     		.2byte	0x266
 3882 025f 6F000000 		.4byte	0x6f
 3883 0263 02       		.byte	0x2
 3884 0264 91       		.byte	0x91
 3885 0265 77       		.sleb128 -9
 3886 0266 0A       		.uleb128 0xa
 3887 0267 A3030000 		.4byte	.LASF37
 3888 026b 01       		.byte	0x1
 3889 026c 6602     		.2byte	0x266
 3890 026e 6F000000 		.4byte	0x6f
 3891 0272 02       		.byte	0x2
 3892 0273 91       		.byte	0x91
 3893 0274 76       		.sleb128 -10
 3894 0275 00       		.byte	0x0
 3895 0276 08       		.uleb128 0x8
 3896 0277 01       		.byte	0x1
 3897 0278 98000000 		.4byte	.LASF38
 3898 027c 01       		.byte	0x1
 3899 027d 8202     		.2byte	0x282
 3900 027f 01       		.byte	0x1
 3901 0280 00000000 		.4byte	.LFB9
 3902 0284 26000000 		.4byte	.LFE9
 3903 0288 BF010000 		.4byte	.LLST9
 3904 028c 08       		.uleb128 0x8
 3905 028d 01       		.byte	0x1
 3906 028e 0D020000 		.4byte	.LASF39
 3907 0292 01       		.byte	0x1
 3908 0293 9B02     		.2byte	0x29b
 3909 0295 01       		.byte	0x1
 3910 0296 00000000 		.4byte	.LFB10
 3911 029a 32000000 		.4byte	.LFE10
 3912 029e EA010000 		.4byte	.LLST10
 3913 02a2 0C       		.uleb128 0xc
 3914 02a3 01       		.byte	0x1
 3915 02a4 7F020000 		.4byte	.LASF40
 3916 02a8 01       		.byte	0x1
 3917 02a9 BA02     		.2byte	0x2ba
 3918 02ab 01       		.byte	0x1
 3919 02ac 6F000000 		.4byte	0x6f
 3920 02b0 00000000 		.4byte	.LFB11
 3921 02b4 60000000 		.4byte	.LFE11
 3922 02b8 15020000 		.4byte	.LLST11
 3923 02bc DF020000 		.4byte	0x2df
 3924 02c0 0A       		.uleb128 0xa
 3925 02c1 E2010000 		.4byte	.LASF41
 3926 02c5 01       		.byte	0x1
 3927 02c6 BA02     		.2byte	0x2ba
 3928 02c8 6F000000 		.4byte	0x6f
 3929 02cc 02       		.byte	0x2
 3930 02cd 91       		.byte	0x91
 3931 02ce 6F       		.sleb128 -17
 3932 02cf 0B       		.uleb128 0xb
 3933 02d0 E2000000 		.4byte	.LASF28
 3934 02d4 01       		.byte	0x1
 3935 02d5 BC02     		.2byte	0x2bc
 3936 02d7 6F000000 		.4byte	0x6f
 3937 02db 02       		.byte	0x2
ARM GAS  C:\Users\Victor\AppData\Local\Temp\ccOsbm6Y.s 			page 102


 3938 02dc 91       		.byte	0x91
 3939 02dd 77       		.sleb128 -9
 3940 02de 00       		.byte	0x0
 3941 02df 0D       		.uleb128 0xd
 3942 02e0 01       		.byte	0x1
 3943 02e1 A2020000 		.4byte	.LASF91
 3944 02e5 01       		.byte	0x1
 3945 02e6 E002     		.2byte	0x2e0
 3946 02e8 01       		.byte	0x1
 3947 02e9 90000000 		.4byte	0x90
 3948 02ed 00000000 		.4byte	.LFB12
 3949 02f1 1A000000 		.4byte	.LFE12
 3950 02f5 4C020000 		.4byte	.LLST12
 3951 02f9 0C       		.uleb128 0xc
 3952 02fa 01       		.byte	0x1
 3953 02fb 9C040000 		.4byte	.LASF42
 3954 02ff 01       		.byte	0x1
 3955 0300 F402     		.2byte	0x2f4
 3956 0302 01       		.byte	0x1
 3957 0303 9B000000 		.4byte	0x9b
 3958 0307 00000000 		.4byte	.LFB13
 3959 030b 22000000 		.4byte	.LFE13
 3960 030f 77020000 		.4byte	.LLST13
 3961 0313 27030000 		.4byte	0x327
 3962 0317 0B       		.uleb128 0xb
 3963 0318 95040000 		.4byte	.LASF43
 3964 031c 01       		.byte	0x1
 3965 031d F602     		.2byte	0x2f6
 3966 031f 7A000000 		.4byte	0x7a
 3967 0323 02       		.byte	0x2
 3968 0324 91       		.byte	0x91
 3969 0325 76       		.sleb128 -10
 3970 0326 00       		.byte	0x0
 3971 0327 0C       		.uleb128 0xc
 3972 0328 01       		.byte	0x1
 3973 0329 6B010000 		.4byte	.LASF44
 3974 032d 01       		.byte	0x1
 3975 032e 1103     		.2byte	0x311
 3976 0330 01       		.byte	0x1
 3977 0331 A6000000 		.4byte	0xa6
 3978 0335 00000000 		.4byte	.LFB14
 3979 0339 3A000000 		.4byte	.LFE14
 3980 033d AE020000 		.4byte	.LLST14
 3981 0341 55030000 		.4byte	0x355
 3982 0345 0B       		.uleb128 0xb
 3983 0346 95040000 		.4byte	.LASF43
 3984 034a 01       		.byte	0x1
 3985 034b 1303     		.2byte	0x313
 3986 034d 85000000 		.4byte	0x85
 3987 0351 02       		.byte	0x2
 3988 0352 91       		.byte	0x91
 3989 0353 74       		.sleb128 -12
 3990 0354 00       		.byte	0x0
 3991 0355 09       		.uleb128 0x9
 3992 0356 01       		.byte	0x1
 3993 0357 04040000 		.4byte	.LASF45
 3994 035b 01       		.byte	0x1
ARM GAS  C:\Users\Victor\AppData\Local\Temp\ccOsbm6Y.s 			page 103


 3995 035c 3803     		.2byte	0x338
 3996 035e 01       		.byte	0x1
 3997 035f 00000000 		.4byte	.LFB15
 3998 0363 1E000000 		.4byte	.LFE15
 3999 0367 E5020000 		.4byte	.LLST15
 4000 036b 7F030000 		.4byte	0x37f
 4001 036f 0A       		.uleb128 0xa
 4002 0370 CA030000 		.4byte	.LASF46
 4003 0374 01       		.byte	0x1
 4004 0375 3803     		.2byte	0x338
 4005 0377 A6000000 		.4byte	0xa6
 4006 037b 02       		.byte	0x2
 4007 037c 91       		.byte	0x91
 4008 037d 74       		.sleb128 -12
 4009 037e 00       		.byte	0x0
 4010 037f 09       		.uleb128 0x9
 4011 0380 01       		.byte	0x1
 4012 0381 D1020000 		.4byte	.LASF47
 4013 0385 01       		.byte	0x1
 4014 0386 5103     		.2byte	0x351
 4015 0388 01       		.byte	0x1
 4016 0389 00000000 		.4byte	.LFB16
 4017 038d 1E000000 		.4byte	.LFE16
 4018 0391 1C030000 		.4byte	.LLST16
 4019 0395 A9030000 		.4byte	0x3a9
 4020 0399 0A       		.uleb128 0xa
 4021 039a 07000000 		.4byte	.LASF48
 4022 039e 01       		.byte	0x1
 4023 039f 5103     		.2byte	0x351
 4024 03a1 A6000000 		.4byte	0xa6
 4025 03a5 02       		.byte	0x2
 4026 03a6 91       		.byte	0x91
 4027 03a7 74       		.sleb128 -12
 4028 03a8 00       		.byte	0x0
 4029 03a9 0C       		.uleb128 0xc
 4030 03aa 01       		.byte	0x1
 4031 03ab F1020000 		.4byte	.LASF49
 4032 03af 01       		.byte	0x1
 4033 03b0 6B03     		.2byte	0x36b
 4034 03b2 01       		.byte	0x1
 4035 03b3 9B000000 		.4byte	0x9b
 4036 03b7 00000000 		.4byte	.LFB17
 4037 03bb C4000000 		.4byte	.LFE17
 4038 03bf 53030000 		.4byte	.LLST17
 4039 03c3 0F040000 		.4byte	0x40f
 4040 03c7 0A       		.uleb128 0xa
 4041 03c8 D1030000 		.4byte	.LASF50
 4042 03cc 01       		.byte	0x1
 4043 03cd 6B03     		.2byte	0x36b
 4044 03cf A6000000 		.4byte	0xa6
 4045 03d3 02       		.byte	0x2
 4046 03d4 91       		.byte	0x91
 4047 03d5 64       		.sleb128 -28
 4048 03d6 0B       		.uleb128 0xb
 4049 03d7 36020000 		.4byte	.LASF51
 4050 03db 01       		.byte	0x1
 4051 03dc 6E03     		.2byte	0x36e
ARM GAS  C:\Users\Victor\AppData\Local\Temp\ccOsbm6Y.s 			page 104


 4052 03de A6000000 		.4byte	0xa6
 4053 03e2 02       		.byte	0x2
 4054 03e3 91       		.byte	0x91
 4055 03e4 68       		.sleb128 -24
 4056 03e5 0E       		.uleb128 0xe
 4057 03e6 4100     		.ascii	"A\000"
 4058 03e8 01       		.byte	0x1
 4059 03e9 6F03     		.2byte	0x36f
 4060 03eb A6000000 		.4byte	0xa6
 4061 03ef 02       		.byte	0x2
 4062 03f0 91       		.byte	0x91
 4063 03f1 6C       		.sleb128 -20
 4064 03f2 0E       		.uleb128 0xe
 4065 03f3 4200     		.ascii	"B\000"
 4066 03f5 01       		.byte	0x1
 4067 03f6 6F03     		.2byte	0x36f
 4068 03f8 A6000000 		.4byte	0xa6
 4069 03fc 02       		.byte	0x2
 4070 03fd 91       		.byte	0x91
 4071 03fe 70       		.sleb128 -16
 4072 03ff 0B       		.uleb128 0xb
 4073 0400 55030000 		.4byte	.LASF52
 4074 0404 01       		.byte	0x1
 4075 0405 7003     		.2byte	0x370
 4076 0407 6F000000 		.4byte	0x6f
 4077 040b 02       		.byte	0x2
 4078 040c 91       		.byte	0x91
 4079 040d 77       		.sleb128 -9
 4080 040e 00       		.byte	0x0
 4081 040f 0C       		.uleb128 0xc
 4082 0410 01       		.byte	0x1
 4083 0411 1A000000 		.4byte	.LASF53
 4084 0415 01       		.byte	0x1
 4085 0416 AB03     		.2byte	0x3ab
 4086 0418 01       		.byte	0x1
 4087 0419 B1000000 		.4byte	0xb1
 4088 041d 00000000 		.4byte	.LFB18
 4089 0421 54000000 		.4byte	.LFE18
 4090 0425 8A030000 		.4byte	.LLST18
 4091 0429 4C040000 		.4byte	0x44c
 4092 042d 0A       		.uleb128 0xa
 4093 042e D1030000 		.4byte	.LASF50
 4094 0432 01       		.byte	0x1
 4095 0433 AB03     		.2byte	0x3ab
 4096 0435 A6000000 		.4byte	0xa6
 4097 0439 02       		.byte	0x2
 4098 043a 91       		.byte	0x91
 4099 043b 64       		.sleb128 -28
 4100 043c 0B       		.uleb128 0xb
 4101 043d 7B010000 		.4byte	.LASF54
 4102 0441 01       		.byte	0x1
 4103 0442 AE03     		.2byte	0x3ae
 4104 0444 B1000000 		.4byte	0xb1
 4105 0448 02       		.byte	0x2
 4106 0449 91       		.byte	0x91
 4107 044a 6C       		.sleb128 -20
 4108 044b 00       		.byte	0x0
ARM GAS  C:\Users\Victor\AppData\Local\Temp\ccOsbm6Y.s 			page 105


 4109 044c 0C       		.uleb128 0xc
 4110 044d 01       		.byte	0x1
 4111 044e 4A010000 		.4byte	.LASF55
 4112 0452 01       		.byte	0x1
 4113 0453 D903     		.2byte	0x3d9
 4114 0455 01       		.byte	0x1
 4115 0456 A6000000 		.4byte	0xa6
 4116 045a 00000000 		.4byte	.LFB19
 4117 045e F0000000 		.4byte	.LFE19
 4118 0462 C1030000 		.4byte	.LLST19
 4119 0466 B2040000 		.4byte	0x4b2
 4120 046a 0A       		.uleb128 0xa
 4121 046b D1030000 		.4byte	.LASF50
 4122 046f 01       		.byte	0x1
 4123 0470 D903     		.2byte	0x3d9
 4124 0472 A6000000 		.4byte	0xa6
 4125 0476 02       		.byte	0x2
 4126 0477 91       		.byte	0x91
 4127 0478 64       		.sleb128 -28
 4128 0479 0B       		.uleb128 0xb
 4129 047a C9010000 		.4byte	.LASF56
 4130 047e 01       		.byte	0x1
 4131 047f DC03     		.2byte	0x3dc
 4132 0481 A6000000 		.4byte	0xa6
 4133 0485 02       		.byte	0x2
 4134 0486 91       		.byte	0x91
 4135 0487 68       		.sleb128 -24
 4136 0488 0E       		.uleb128 0xe
 4137 0489 4100     		.ascii	"A\000"
 4138 048b 01       		.byte	0x1
 4139 048c DD03     		.2byte	0x3dd
 4140 048e A6000000 		.4byte	0xa6
 4141 0492 02       		.byte	0x2
 4142 0493 91       		.byte	0x91
 4143 0494 6C       		.sleb128 -20
 4144 0495 0E       		.uleb128 0xe
 4145 0496 4200     		.ascii	"B\000"
 4146 0498 01       		.byte	0x1
 4147 0499 DD03     		.2byte	0x3dd
 4148 049b A6000000 		.4byte	0xa6
 4149 049f 02       		.byte	0x2
 4150 04a0 91       		.byte	0x91
 4151 04a1 70       		.sleb128 -16
 4152 04a2 0B       		.uleb128 0xb
 4153 04a3 55030000 		.4byte	.LASF52
 4154 04a7 01       		.byte	0x1
 4155 04a8 DE03     		.2byte	0x3de
 4156 04aa 6F000000 		.4byte	0x6f
 4157 04ae 02       		.byte	0x2
 4158 04af 91       		.byte	0x91
 4159 04b0 77       		.sleb128 -9
 4160 04b1 00       		.byte	0x0
 4161 04b2 08       		.uleb128 0x8
 4162 04b3 01       		.byte	0x1
 4163 04b4 E3020000 		.4byte	.LASF57
 4164 04b8 01       		.byte	0x1
 4165 04b9 2004     		.2byte	0x420
ARM GAS  C:\Users\Victor\AppData\Local\Temp\ccOsbm6Y.s 			page 106


 4166 04bb 01       		.byte	0x1
 4167 04bc 00000000 		.4byte	.LFB20
 4168 04c0 3E000000 		.4byte	.LFE20
 4169 04c4 F8030000 		.4byte	.LLST20
 4170 04c8 09       		.uleb128 0x9
 4171 04c9 01       		.byte	0x1
 4172 04ca 93020000 		.4byte	.LASF58
 4173 04ce 01       		.byte	0x1
 4174 04cf 4204     		.2byte	0x442
 4175 04d1 01       		.byte	0x1
 4176 04d2 00000000 		.4byte	.LFB21
 4177 04d6 60080000 		.4byte	.LFE21
 4178 04da 23040000 		.4byte	.LLST21
 4179 04de F2040000 		.4byte	0x4f2
 4180 04e2 0A       		.uleb128 0xa
 4181 04e3 8C030000 		.4byte	.LASF59
 4182 04e7 01       		.byte	0x1
 4183 04e8 4204     		.2byte	0x442
 4184 04ea 6F000000 		.4byte	0x6f
 4185 04ee 02       		.byte	0x2
 4186 04ef 91       		.byte	0x91
 4187 04f0 77       		.sleb128 -9
 4188 04f1 00       		.byte	0x0
 4189 04f2 0C       		.uleb128 0xc
 4190 04f3 01       		.byte	0x1
 4191 04f4 B1020000 		.4byte	.LASF60
 4192 04f8 01       		.byte	0x1
 4193 04f9 8A05     		.2byte	0x58a
 4194 04fb 01       		.byte	0x1
 4195 04fc 7A000000 		.4byte	0x7a
 4196 0500 00000000 		.4byte	.LFB22
 4197 0504 54000000 		.4byte	.LFE22
 4198 0508 5A040000 		.4byte	.LLST22
 4199 050c 4D050000 		.4byte	0x54d
 4200 0510 0A       		.uleb128 0xa
 4201 0511 BB000000 		.4byte	.LASF61
 4202 0515 01       		.byte	0x1
 4203 0516 8A05     		.2byte	0x58a
 4204 0518 85000000 		.4byte	0x85
 4205 051c 02       		.byte	0x2
 4206 051d 91       		.byte	0x91
 4207 051e 6C       		.sleb128 -20
 4208 051f 0A       		.uleb128 0xa
 4209 0520 4C000000 		.4byte	.LASF62
 4210 0524 01       		.byte	0x1
 4211 0525 8A05     		.2byte	0x58a
 4212 0527 85000000 		.4byte	0x85
 4213 052b 02       		.byte	0x2
 4214 052c 91       		.byte	0x91
 4215 052d 68       		.sleb128 -24
 4216 052e 0B       		.uleb128 0xb
 4217 052f 43030000 		.4byte	.LASF63
 4218 0533 01       		.byte	0x1
 4219 0534 8D05     		.2byte	0x58d
 4220 0536 7A000000 		.4byte	0x7a
 4221 053a 02       		.byte	0x2
 4222 053b 91       		.byte	0x91
ARM GAS  C:\Users\Victor\AppData\Local\Temp\ccOsbm6Y.s 			page 107


 4223 053c 74       		.sleb128 -12
 4224 053d 0B       		.uleb128 0xb
 4225 053e 4C030000 		.4byte	.LASF64
 4226 0542 01       		.byte	0x1
 4227 0543 8D05     		.2byte	0x58d
 4228 0545 7A000000 		.4byte	0x7a
 4229 0549 02       		.byte	0x2
 4230 054a 91       		.byte	0x91
 4231 054b 76       		.sleb128 -10
 4232 054c 00       		.byte	0x0
 4233 054d 09       		.uleb128 0x9
 4234 054e 01       		.byte	0x1
 4235 054f 18030000 		.4byte	.LASF65
 4236 0553 01       		.byte	0x1
 4237 0554 AB05     		.2byte	0x5ab
 4238 0556 01       		.byte	0x1
 4239 0557 00000000 		.4byte	.LFB23
 4240 055b F0010000 		.4byte	.LFE23
 4241 055f 91040000 		.4byte	.LLST23
 4242 0563 E0050000 		.4byte	0x5e0
 4243 0567 0A       		.uleb128 0xa
 4244 0568 8C030000 		.4byte	.LASF59
 4245 056c 01       		.byte	0x1
 4246 056d AB05     		.2byte	0x5ab
 4247 056f 6F000000 		.4byte	0x6f
 4248 0573 02       		.byte	0x2
 4249 0574 91       		.byte	0x91
 4250 0575 67       		.sleb128 -25
 4251 0576 0A       		.uleb128 0xa
 4252 0577 AC030000 		.4byte	.LASF66
 4253 057b 01       		.byte	0x1
 4254 057c AB05     		.2byte	0x5ab
 4255 057e 6F000000 		.4byte	0x6f
 4256 0582 02       		.byte	0x2
 4257 0583 91       		.byte	0x91
 4258 0584 66       		.sleb128 -26
 4259 0585 0B       		.uleb128 0xb
 4260 0586 0F000000 		.4byte	.LASF67
 4261 058a 01       		.byte	0x1
 4262 058b AE05     		.2byte	0x5ae
 4263 058d 6F000000 		.4byte	0x6f
 4264 0591 02       		.byte	0x2
 4265 0592 91       		.byte	0x91
 4266 0593 6E       		.sleb128 -18
 4267 0594 0B       		.uleb128 0xb
 4268 0595 55030000 		.4byte	.LASF52
 4269 0599 01       		.byte	0x1
 4270 059a AE05     		.2byte	0x5ae
 4271 059c 6F000000 		.4byte	0x6f
 4272 05a0 02       		.byte	0x2
 4273 05a1 91       		.byte	0x91
 4274 05a2 6F       		.sleb128 -17
 4275 05a3 0B       		.uleb128 0xb
 4276 05a4 69020000 		.4byte	.LASF68
 4277 05a8 01       		.byte	0x1
 4278 05a9 AF05     		.2byte	0x5af
 4279 05ab 7A000000 		.4byte	0x7a
ARM GAS  C:\Users\Victor\AppData\Local\Temp\ccOsbm6Y.s 			page 108


 4280 05af 02       		.byte	0x2
 4281 05b0 91       		.byte	0x91
 4282 05b1 70       		.sleb128 -16
 4283 05b2 0B       		.uleb128 0xb
 4284 05b3 93030000 		.4byte	.LASF69
 4285 05b7 01       		.byte	0x1
 4286 05b8 AF05     		.2byte	0x5af
 4287 05ba 7A000000 		.4byte	0x7a
 4288 05be 02       		.byte	0x2
 4289 05bf 91       		.byte	0x91
 4290 05c0 72       		.sleb128 -14
 4291 05c1 0B       		.uleb128 0xb
 4292 05c2 27020000 		.4byte	.LASF70
 4293 05c6 01       		.byte	0x1
 4294 05c7 B005     		.2byte	0x5b0
 4295 05c9 7A000000 		.4byte	0x7a
 4296 05cd 02       		.byte	0x2
 4297 05ce 91       		.byte	0x91
 4298 05cf 74       		.sleb128 -12
 4299 05d0 0B       		.uleb128 0xb
 4300 05d1 BD030000 		.4byte	.LASF71
 4301 05d5 01       		.byte	0x1
 4302 05d6 B105     		.2byte	0x5b1
 4303 05d8 7A000000 		.4byte	0x7a
 4304 05dc 02       		.byte	0x2
 4305 05dd 91       		.byte	0x91
 4306 05de 76       		.sleb128 -10
 4307 05df 00       		.byte	0x0
 4308 05e0 09       		.uleb128 0x9
 4309 05e1 01       		.byte	0x1
 4310 05e2 54020000 		.4byte	.LASF72
 4311 05e6 01       		.byte	0x1
 4312 05e7 8506     		.2byte	0x685
 4313 05e9 01       		.byte	0x1
 4314 05ea 00000000 		.4byte	.LFB24
 4315 05ee 9A010000 		.4byte	.LFE24
 4316 05f2 C8040000 		.4byte	.LLST24
 4317 05f6 73060000 		.4byte	0x673
 4318 05fa 0A       		.uleb128 0xa
 4319 05fb 0F000000 		.4byte	.LASF67
 4320 05ff 01       		.byte	0x1
 4321 0600 8506     		.2byte	0x685
 4322 0602 6F000000 		.4byte	0x6f
 4323 0606 02       		.byte	0x2
 4324 0607 91       		.byte	0x91
 4325 0608 67       		.sleb128 -25
 4326 0609 0A       		.uleb128 0xa
 4327 060a 73030000 		.4byte	.LASF73
 4328 060e 01       		.byte	0x1
 4329 060f 8506     		.2byte	0x685
 4330 0611 7A000000 		.4byte	0x7a
 4331 0615 02       		.byte	0x2
 4332 0616 91       		.byte	0x91
 4333 0617 64       		.sleb128 -28
 4334 0618 0A       		.uleb128 0xa
 4335 0619 88010000 		.4byte	.LASF74
 4336 061d 01       		.byte	0x1
ARM GAS  C:\Users\Victor\AppData\Local\Temp\ccOsbm6Y.s 			page 109


 4337 061e 8506     		.2byte	0x685
 4338 0620 7A000000 		.4byte	0x7a
 4339 0624 02       		.byte	0x2
 4340 0625 91       		.byte	0x91
 4341 0626 62       		.sleb128 -30
 4342 0627 0A       		.uleb128 0xa
 4343 0628 55030000 		.4byte	.LASF52
 4344 062c 01       		.byte	0x1
 4345 062d 8606     		.2byte	0x686
 4346 062f 6F000000 		.4byte	0x6f
 4347 0633 02       		.byte	0x2
 4348 0634 91       		.byte	0x91
 4349 0635 61       		.sleb128 -31
 4350 0636 0B       		.uleb128 0xb
 4351 0637 3D020000 		.4byte	.LASF75
 4352 063b 01       		.byte	0x1
 4353 063c 8806     		.2byte	0x688
 4354 063e 90000000 		.4byte	0x90
 4355 0642 02       		.byte	0x2
 4356 0643 91       		.byte	0x91
 4357 0644 6F       		.sleb128 -17
 4358 0645 0B       		.uleb128 0xb
 4359 0646 8D000000 		.4byte	.LASF76
 4360 064a 01       		.byte	0x1
 4361 064b 8906     		.2byte	0x689
 4362 064d 9B000000 		.4byte	0x9b
 4363 0651 02       		.byte	0x2
 4364 0652 91       		.byte	0x91
 4365 0653 70       		.sleb128 -16
 4366 0654 0B       		.uleb128 0xb
 4367 0655 E9000000 		.4byte	.LASF77
 4368 0659 01       		.byte	0x1
 4369 065a 8A06     		.2byte	0x68a
 4370 065c 7A000000 		.4byte	0x7a
 4371 0660 02       		.byte	0x2
 4372 0661 91       		.byte	0x91
 4373 0662 72       		.sleb128 -14
 4374 0663 0B       		.uleb128 0xb
 4375 0664 6B030000 		.4byte	.LASF78
 4376 0668 01       		.byte	0x1
 4377 0669 8B06     		.2byte	0x68b
 4378 066b 85000000 		.4byte	0x85
 4379 066f 02       		.byte	0x2
 4380 0670 91       		.byte	0x91
 4381 0671 74       		.sleb128 -12
 4382 0672 00       		.byte	0x0
 4383 0673 09       		.uleb128 0x9
 4384 0674 01       		.byte	0x1
 4385 0675 A4010000 		.4byte	.LASF79
 4386 0679 01       		.byte	0x1
 4387 067a 0107     		.2byte	0x701
 4388 067c 01       		.byte	0x1
 4389 067d 00000000 		.4byte	.LFB25
 4390 0681 92000000 		.4byte	.LFE25
 4391 0685 FF040000 		.4byte	.LLST25
 4392 0689 9D060000 		.4byte	0x69d
 4393 068d 0A       		.uleb128 0xa
ARM GAS  C:\Users\Victor\AppData\Local\Temp\ccOsbm6Y.s 			page 110


 4394 068e B6010000 		.4byte	.LASF80
 4395 0692 01       		.byte	0x1
 4396 0693 0107     		.2byte	0x701
 4397 0695 6F000000 		.4byte	0x6f
 4398 0699 02       		.byte	0x2
 4399 069a 91       		.byte	0x91
 4400 069b 77       		.sleb128 -9
 4401 069c 00       		.byte	0x0
 4402 069d 0F       		.uleb128 0xf
 4403 069e 34010000 		.4byte	.LASF81
 4404 06a2 01       		.byte	0x1
 4405 06a3 1F       		.byte	0x1f
 4406 06a4 C6000000 		.4byte	0xc6
 4407 06a8 01       		.byte	0x1
 4408 06a9 05       		.byte	0x5
 4409 06aa 03       		.byte	0x3
 4410 06ab 00000000 		.4byte	ADC_convDone
 4411 06af 0F       		.uleb128 0xf
 4412 06b0 2D000000 		.4byte	.LASF82
 4413 06b4 01       		.byte	0x1
 4414 06b5 23       		.byte	0x23
 4415 06b6 C6000000 		.4byte	0xc6
 4416 06ba 01       		.byte	0x1
 4417 06bb 05       		.byte	0x5
 4418 06bc 03       		.byte	0x3
 4419 06bd 00000000 		.4byte	ADC_stopConversion
 4420 06c1 0F       		.uleb128 0xf
 4421 06c2 98010000 		.4byte	.LASF83
 4422 06c6 01       		.byte	0x1
 4423 06c7 26       		.byte	0x26
 4424 06c8 6F000000 		.4byte	0x6f
 4425 06cc 01       		.byte	0x1
 4426 06cd 05       		.byte	0x5
 4427 06ce 03       		.byte	0x3
 4428 06cf 00000000 		.4byte	ADC_initVar
 4429 06d3 0F       		.uleb128 0xf
 4430 06d4 40000000 		.4byte	.LASF84
 4431 06d8 01       		.byte	0x1
 4432 06d9 29       		.byte	0x29
 4433 06da C6000000 		.4byte	0xc6
 4434 06de 01       		.byte	0x1
 4435 06df 05       		.byte	0x5
 4436 06e0 03       		.byte	0x3
 4437 06e1 00000000 		.4byte	ADC_started
 4438 06e5 0F       		.uleb128 0xf
 4439 06e6 82000000 		.4byte	.LASF85
 4440 06ea 01       		.byte	0x1
 4441 06eb 2C       		.byte	0x2c
 4442 06ec C6000000 		.4byte	0xc6
 4443 06f0 01       		.byte	0x1
 4444 06f1 05       		.byte	0x5
 4445 06f2 03       		.byte	0x3
 4446 06f3 00000000 		.4byte	ADC_Config
 4447 06f7 0F       		.uleb128 0xf
 4448 06f8 60030000 		.4byte	.LASF86
 4449 06fc 01       		.byte	0x1
 4450 06fd 2E       		.byte	0x2e
ARM GAS  C:\Users\Victor\AppData\Local\Temp\ccOsbm6Y.s 			page 111


 4451 06fe 09070000 		.4byte	0x709
 4452 0702 01       		.byte	0x1
 4453 0703 05       		.byte	0x5
 4454 0704 03       		.byte	0x3
 4455 0705 00000000 		.4byte	ADC_Offset
 4456 0709 05       		.uleb128 0x5
 4457 070a A6000000 		.4byte	0xa6
 4458 070e 0F       		.uleb128 0xf
 4459 070f 7C040000 		.4byte	.LASF87
 4460 0713 01       		.byte	0x1
 4461 0714 2F       		.byte	0x2f
 4462 0715 09070000 		.4byte	0x709
 4463 0719 01       		.byte	0x1
 4464 071a 05       		.byte	0x5
 4465 071b 03       		.byte	0x3
 4466 071c 00000000 		.4byte	ADC_CountsPerVolt
 4467 0720 00       		.byte	0x0
 4468              		.section	.debug_abbrev
 4469 0000 01       		.uleb128 0x1
 4470 0001 11       		.uleb128 0x11
 4471 0002 01       		.byte	0x1
 4472 0003 25       		.uleb128 0x25
 4473 0004 0E       		.uleb128 0xe
 4474 0005 13       		.uleb128 0x13
 4475 0006 0B       		.uleb128 0xb
 4476 0007 03       		.uleb128 0x3
 4477 0008 0E       		.uleb128 0xe
 4478 0009 1B       		.uleb128 0x1b
 4479 000a 0E       		.uleb128 0xe
 4480 000b 11       		.uleb128 0x11
 4481 000c 01       		.uleb128 0x1
 4482 000d 52       		.uleb128 0x52
 4483 000e 01       		.uleb128 0x1
 4484 000f 55       		.uleb128 0x55
 4485 0010 06       		.uleb128 0x6
 4486 0011 10       		.uleb128 0x10
 4487 0012 06       		.uleb128 0x6
 4488 0013 00       		.byte	0x0
 4489 0014 00       		.byte	0x0
 4490 0015 02       		.uleb128 0x2
 4491 0016 24       		.uleb128 0x24
 4492 0017 00       		.byte	0x0
 4493 0018 0B       		.uleb128 0xb
 4494 0019 0B       		.uleb128 0xb
 4495 001a 3E       		.uleb128 0x3e
 4496 001b 0B       		.uleb128 0xb
 4497 001c 03       		.uleb128 0x3
 4498 001d 0E       		.uleb128 0xe
 4499 001e 00       		.byte	0x0
 4500 001f 00       		.byte	0x0
 4501 0020 03       		.uleb128 0x3
 4502 0021 24       		.uleb128 0x24
 4503 0022 00       		.byte	0x0
 4504 0023 0B       		.uleb128 0xb
 4505 0024 0B       		.uleb128 0xb
 4506 0025 3E       		.uleb128 0x3e
 4507 0026 0B       		.uleb128 0xb
ARM GAS  C:\Users\Victor\AppData\Local\Temp\ccOsbm6Y.s 			page 112


 4508 0027 03       		.uleb128 0x3
 4509 0028 08       		.uleb128 0x8
 4510 0029 00       		.byte	0x0
 4511 002a 00       		.byte	0x0
 4512 002b 04       		.uleb128 0x4
 4513 002c 16       		.uleb128 0x16
 4514 002d 00       		.byte	0x0
 4515 002e 03       		.uleb128 0x3
 4516 002f 0E       		.uleb128 0xe
 4517 0030 3A       		.uleb128 0x3a
 4518 0031 0B       		.uleb128 0xb
 4519 0032 3B       		.uleb128 0x3b
 4520 0033 0B       		.uleb128 0xb
 4521 0034 49       		.uleb128 0x49
 4522 0035 13       		.uleb128 0x13
 4523 0036 00       		.byte	0x0
 4524 0037 00       		.byte	0x0
 4525 0038 05       		.uleb128 0x5
 4526 0039 35       		.uleb128 0x35
 4527 003a 00       		.byte	0x0
 4528 003b 49       		.uleb128 0x49
 4529 003c 13       		.uleb128 0x13
 4530 003d 00       		.byte	0x0
 4531 003e 00       		.byte	0x0
 4532 003f 06       		.uleb128 0x6
 4533 0040 24       		.uleb128 0x24
 4534 0041 00       		.byte	0x0
 4535 0042 0B       		.uleb128 0xb
 4536 0043 0B       		.uleb128 0xb
 4537 0044 3E       		.uleb128 0x3e
 4538 0045 0B       		.uleb128 0xb
 4539 0046 00       		.byte	0x0
 4540 0047 00       		.byte	0x0
 4541 0048 07       		.uleb128 0x7
 4542 0049 2E       		.uleb128 0x2e
 4543 004a 00       		.byte	0x0
 4544 004b 3F       		.uleb128 0x3f
 4545 004c 0C       		.uleb128 0xc
 4546 004d 03       		.uleb128 0x3
 4547 004e 0E       		.uleb128 0xe
 4548 004f 3A       		.uleb128 0x3a
 4549 0050 0B       		.uleb128 0xb
 4550 0051 3B       		.uleb128 0x3b
 4551 0052 0B       		.uleb128 0xb
 4552 0053 27       		.uleb128 0x27
 4553 0054 0C       		.uleb128 0xc
 4554 0055 11       		.uleb128 0x11
 4555 0056 01       		.uleb128 0x1
 4556 0057 12       		.uleb128 0x12
 4557 0058 01       		.uleb128 0x1
 4558 0059 40       		.uleb128 0x40
 4559 005a 06       		.uleb128 0x6
 4560 005b 00       		.byte	0x0
 4561 005c 00       		.byte	0x0
 4562 005d 08       		.uleb128 0x8
 4563 005e 2E       		.uleb128 0x2e
 4564 005f 00       		.byte	0x0
ARM GAS  C:\Users\Victor\AppData\Local\Temp\ccOsbm6Y.s 			page 113


 4565 0060 3F       		.uleb128 0x3f
 4566 0061 0C       		.uleb128 0xc
 4567 0062 03       		.uleb128 0x3
 4568 0063 0E       		.uleb128 0xe
 4569 0064 3A       		.uleb128 0x3a
 4570 0065 0B       		.uleb128 0xb
 4571 0066 3B       		.uleb128 0x3b
 4572 0067 05       		.uleb128 0x5
 4573 0068 27       		.uleb128 0x27
 4574 0069 0C       		.uleb128 0xc
 4575 006a 11       		.uleb128 0x11
 4576 006b 01       		.uleb128 0x1
 4577 006c 12       		.uleb128 0x12
 4578 006d 01       		.uleb128 0x1
 4579 006e 40       		.uleb128 0x40
 4580 006f 06       		.uleb128 0x6
 4581 0070 00       		.byte	0x0
 4582 0071 00       		.byte	0x0
 4583 0072 09       		.uleb128 0x9
 4584 0073 2E       		.uleb128 0x2e
 4585 0074 01       		.byte	0x1
 4586 0075 3F       		.uleb128 0x3f
 4587 0076 0C       		.uleb128 0xc
 4588 0077 03       		.uleb128 0x3
 4589 0078 0E       		.uleb128 0xe
 4590 0079 3A       		.uleb128 0x3a
 4591 007a 0B       		.uleb128 0xb
 4592 007b 3B       		.uleb128 0x3b
 4593 007c 05       		.uleb128 0x5
 4594 007d 27       		.uleb128 0x27
 4595 007e 0C       		.uleb128 0xc
 4596 007f 11       		.uleb128 0x11
 4597 0080 01       		.uleb128 0x1
 4598 0081 12       		.uleb128 0x12
 4599 0082 01       		.uleb128 0x1
 4600 0083 40       		.uleb128 0x40
 4601 0084 06       		.uleb128 0x6
 4602 0085 01       		.uleb128 0x1
 4603 0086 13       		.uleb128 0x13
 4604 0087 00       		.byte	0x0
 4605 0088 00       		.byte	0x0
 4606 0089 0A       		.uleb128 0xa
 4607 008a 05       		.uleb128 0x5
 4608 008b 00       		.byte	0x0
 4609 008c 03       		.uleb128 0x3
 4610 008d 0E       		.uleb128 0xe
 4611 008e 3A       		.uleb128 0x3a
 4612 008f 0B       		.uleb128 0xb
 4613 0090 3B       		.uleb128 0x3b
 4614 0091 05       		.uleb128 0x5
 4615 0092 49       		.uleb128 0x49
 4616 0093 13       		.uleb128 0x13
 4617 0094 02       		.uleb128 0x2
 4618 0095 0A       		.uleb128 0xa
 4619 0096 00       		.byte	0x0
 4620 0097 00       		.byte	0x0
 4621 0098 0B       		.uleb128 0xb
ARM GAS  C:\Users\Victor\AppData\Local\Temp\ccOsbm6Y.s 			page 114


 4622 0099 34       		.uleb128 0x34
 4623 009a 00       		.byte	0x0
 4624 009b 03       		.uleb128 0x3
 4625 009c 0E       		.uleb128 0xe
 4626 009d 3A       		.uleb128 0x3a
 4627 009e 0B       		.uleb128 0xb
 4628 009f 3B       		.uleb128 0x3b
 4629 00a0 05       		.uleb128 0x5
 4630 00a1 49       		.uleb128 0x49
 4631 00a2 13       		.uleb128 0x13
 4632 00a3 02       		.uleb128 0x2
 4633 00a4 0A       		.uleb128 0xa
 4634 00a5 00       		.byte	0x0
 4635 00a6 00       		.byte	0x0
 4636 00a7 0C       		.uleb128 0xc
 4637 00a8 2E       		.uleb128 0x2e
 4638 00a9 01       		.byte	0x1
 4639 00aa 3F       		.uleb128 0x3f
 4640 00ab 0C       		.uleb128 0xc
 4641 00ac 03       		.uleb128 0x3
 4642 00ad 0E       		.uleb128 0xe
 4643 00ae 3A       		.uleb128 0x3a
 4644 00af 0B       		.uleb128 0xb
 4645 00b0 3B       		.uleb128 0x3b
 4646 00b1 05       		.uleb128 0x5
 4647 00b2 27       		.uleb128 0x27
 4648 00b3 0C       		.uleb128 0xc
 4649 00b4 49       		.uleb128 0x49
 4650 00b5 13       		.uleb128 0x13
 4651 00b6 11       		.uleb128 0x11
 4652 00b7 01       		.uleb128 0x1
 4653 00b8 12       		.uleb128 0x12
 4654 00b9 01       		.uleb128 0x1
 4655 00ba 40       		.uleb128 0x40
 4656 00bb 06       		.uleb128 0x6
 4657 00bc 01       		.uleb128 0x1
 4658 00bd 13       		.uleb128 0x13
 4659 00be 00       		.byte	0x0
 4660 00bf 00       		.byte	0x0
 4661 00c0 0D       		.uleb128 0xd
 4662 00c1 2E       		.uleb128 0x2e
 4663 00c2 00       		.byte	0x0
 4664 00c3 3F       		.uleb128 0x3f
 4665 00c4 0C       		.uleb128 0xc
 4666 00c5 03       		.uleb128 0x3
 4667 00c6 0E       		.uleb128 0xe
 4668 00c7 3A       		.uleb128 0x3a
 4669 00c8 0B       		.uleb128 0xb
 4670 00c9 3B       		.uleb128 0x3b
 4671 00ca 05       		.uleb128 0x5
 4672 00cb 27       		.uleb128 0x27
 4673 00cc 0C       		.uleb128 0xc
 4674 00cd 49       		.uleb128 0x49
 4675 00ce 13       		.uleb128 0x13
 4676 00cf 11       		.uleb128 0x11
 4677 00d0 01       		.uleb128 0x1
 4678 00d1 12       		.uleb128 0x12
ARM GAS  C:\Users\Victor\AppData\Local\Temp\ccOsbm6Y.s 			page 115


 4679 00d2 01       		.uleb128 0x1
 4680 00d3 40       		.uleb128 0x40
 4681 00d4 06       		.uleb128 0x6
 4682 00d5 00       		.byte	0x0
 4683 00d6 00       		.byte	0x0
 4684 00d7 0E       		.uleb128 0xe
 4685 00d8 34       		.uleb128 0x34
 4686 00d9 00       		.byte	0x0
 4687 00da 03       		.uleb128 0x3
 4688 00db 08       		.uleb128 0x8
 4689 00dc 3A       		.uleb128 0x3a
 4690 00dd 0B       		.uleb128 0xb
 4691 00de 3B       		.uleb128 0x3b
 4692 00df 05       		.uleb128 0x5
 4693 00e0 49       		.uleb128 0x49
 4694 00e1 13       		.uleb128 0x13
 4695 00e2 02       		.uleb128 0x2
 4696 00e3 0A       		.uleb128 0xa
 4697 00e4 00       		.byte	0x0
 4698 00e5 00       		.byte	0x0
 4699 00e6 0F       		.uleb128 0xf
 4700 00e7 34       		.uleb128 0x34
 4701 00e8 00       		.byte	0x0
 4702 00e9 03       		.uleb128 0x3
 4703 00ea 0E       		.uleb128 0xe
 4704 00eb 3A       		.uleb128 0x3a
 4705 00ec 0B       		.uleb128 0xb
 4706 00ed 3B       		.uleb128 0x3b
 4707 00ee 0B       		.uleb128 0xb
 4708 00ef 49       		.uleb128 0x49
 4709 00f0 13       		.uleb128 0x13
 4710 00f1 3F       		.uleb128 0x3f
 4711 00f2 0C       		.uleb128 0xc
 4712 00f3 02       		.uleb128 0x2
 4713 00f4 0A       		.uleb128 0xa
 4714 00f5 00       		.byte	0x0
 4715 00f6 00       		.byte	0x0
 4716 00f7 00       		.byte	0x0
 4717              		.section	.debug_pubnames,"",%progbits
 4718 0000 8B020000 		.4byte	0x28b
 4719 0004 0200     		.2byte	0x2
 4720 0006 00000000 		.4byte	.Ldebug_info0
 4721 000a 21070000 		.4byte	0x721
 4722 000e CE000000 		.4byte	0xce
 4723 0012 4144435F 		.ascii	"ADC_Init\000"
 4723      496E6974 
 4723      00
 4724 001b E3000000 		.4byte	0xe3
 4725 001f 4144435F 		.ascii	"ADC_Enable\000"
 4725      456E6162 
 4725      6C6500
 4726 002a F8000000 		.4byte	0xf8
 4727 002e 4144435F 		.ascii	"ADC_Start\000"
 4727      53746172 
 4727      7400
 4728 0038 0E010000 		.4byte	0x10e
 4729 003c 4144435F 		.ascii	"ADC_Stop\000"
ARM GAS  C:\Users\Victor\AppData\Local\Temp\ccOsbm6Y.s 			page 116


 4729      53746F70 
 4729      00
 4730 0045 24010000 		.4byte	0x124
 4731 0049 4144435F 		.ascii	"ADC_SetBufferGain\000"
 4731      53657442 
 4731      75666665 
 4731      72476169 
 4731      6E00
 4732 005b 5D010000 		.4byte	0x15d
 4733 005f 4144435F 		.ascii	"ADC_SetCoherency\000"
 4733      53657443 
 4733      6F686572 
 4733      656E6379 
 4733      00
 4734 0070 96010000 		.4byte	0x196
 4735 0074 4144435F 		.ascii	"ADC_SetGCOR\000"
 4735      53657447 
 4735      434F5200 
 4736 0080 F1010000 		.4byte	0x1f1
 4737 0084 4144435F 		.ascii	"ADC_ReadGCOR\000"
 4737      52656164 
 4737      47434F52 
 4737      00
 4738 0091 3D020000 		.4byte	0x23d
 4739 0095 4144435F 		.ascii	"ADC_SetBufferChop\000"
 4739      53657442 
 4739      75666665 
 4739      7243686F 
 4739      7000
 4740 00a7 76020000 		.4byte	0x276
 4741 00ab 4144435F 		.ascii	"ADC_StartConvert\000"
 4741      53746172 
 4741      74436F6E 
 4741      76657274 
 4741      00
 4742 00bc 8C020000 		.4byte	0x28c
 4743 00c0 4144435F 		.ascii	"ADC_StopConvert\000"
 4743      53746F70 
 4743      436F6E76 
 4743      65727400 
 4744 00d0 A2020000 		.4byte	0x2a2
 4745 00d4 4144435F 		.ascii	"ADC_IsEndConversion\000"
 4745      4973456E 
 4745      64436F6E 
 4745      76657273 
 4745      696F6E00 
 4746 00e8 DF020000 		.4byte	0x2df
 4747 00ec 4144435F 		.ascii	"ADC_GetResult8\000"
 4747      47657452 
 4747      6573756C 
 4747      743800
 4748 00fb F9020000 		.4byte	0x2f9
 4749 00ff 4144435F 		.ascii	"ADC_GetResult16\000"
 4749      47657452 
 4749      6573756C 
 4749      74313600 
 4750 010f 27030000 		.4byte	0x327
ARM GAS  C:\Users\Victor\AppData\Local\Temp\ccOsbm6Y.s 			page 117


 4751 0113 4144435F 		.ascii	"ADC_GetResult32\000"
 4751      47657452 
 4751      6573756C 
 4751      74333200 
 4752 0123 55030000 		.4byte	0x355
 4753 0127 4144435F 		.ascii	"ADC_SetOffset\000"
 4753      5365744F 
 4753      66667365 
 4753      7400
 4754 0135 7F030000 		.4byte	0x37f
 4755 0139 4144435F 		.ascii	"ADC_SetGain\000"
 4755      53657447 
 4755      61696E00 
 4756 0145 A9030000 		.4byte	0x3a9
 4757 0149 4144435F 		.ascii	"ADC_CountsTo_mVolts\000"
 4757      436F756E 
 4757      7473546F 
 4757      5F6D566F 
 4757      6C747300 
 4758 015d 0F040000 		.4byte	0x40f
 4759 0161 4144435F 		.ascii	"ADC_CountsTo_Volts\000"
 4759      436F756E 
 4759      7473546F 
 4759      5F566F6C 
 4759      747300
 4760 0174 4C040000 		.4byte	0x44c
 4761 0178 4144435F 		.ascii	"ADC_CountsTo_uVolts\000"
 4761      436F756E 
 4761      7473546F 
 4761      5F75566F 
 4761      6C747300 
 4762 018c B2040000 		.4byte	0x4b2
 4763 0190 4144435F 		.ascii	"ADC_IRQ_Start\000"
 4763      4952515F 
 4763      53746172 
 4763      7400
 4764 019e C8040000 		.4byte	0x4c8
 4765 01a2 4144435F 		.ascii	"ADC_InitConfig\000"
 4765      496E6974 
 4765      436F6E66 
 4765      696700
 4766 01b1 F2040000 		.4byte	0x4f2
 4767 01b5 4144435F 		.ascii	"ADC_RoundValue\000"
 4767      526F756E 
 4767      6456616C 
 4767      756500
 4768 01c4 4D050000 		.4byte	0x54d
 4769 01c8 4144435F 		.ascii	"ADC_SelectConfiguration\000"
 4769      53656C65 
 4769      6374436F 
 4769      6E666967 
 4769      75726174 
 4770 01e0 E0050000 		.4byte	0x5e0
 4771 01e4 4144435F 		.ascii	"ADC_GainCompensation\000"
 4771      4761696E 
 4771      436F6D70 
 4771      656E7361 
ARM GAS  C:\Users\Victor\AppData\Local\Temp\ccOsbm6Y.s 			page 118


 4771      74696F6E 
 4772 01f9 73060000 		.4byte	0x673
 4773 01fd 4144435F 		.ascii	"ADC_SetDSMRef0Reg\000"
 4773      53657444 
 4773      534D5265 
 4773      66305265 
 4773      6700
 4774 020f 9D060000 		.4byte	0x69d
 4775 0213 4144435F 		.ascii	"ADC_convDone\000"
 4775      636F6E76 
 4775      446F6E65 
 4775      00
 4776 0220 AF060000 		.4byte	0x6af
 4777 0224 4144435F 		.ascii	"ADC_stopConversion\000"
 4777      73746F70 
 4777      436F6E76 
 4777      65727369 
 4777      6F6E00
 4778 0237 C1060000 		.4byte	0x6c1
 4779 023b 4144435F 		.ascii	"ADC_initVar\000"
 4779      696E6974 
 4779      56617200 
 4780 0247 D3060000 		.4byte	0x6d3
 4781 024b 4144435F 		.ascii	"ADC_started\000"
 4781      73746172 
 4781      74656400 
 4782 0257 E5060000 		.4byte	0x6e5
 4783 025b 4144435F 		.ascii	"ADC_Config\000"
 4783      436F6E66 
 4783      696700
 4784 0266 F7060000 		.4byte	0x6f7
 4785 026a 4144435F 		.ascii	"ADC_Offset\000"
 4785      4F666673 
 4785      657400
 4786 0275 0E070000 		.4byte	0x70e
 4787 0279 4144435F 		.ascii	"ADC_CountsPerVolt\000"
 4787      436F756E 
 4787      74735065 
 4787      72566F6C 
 4787      7400
 4788 028b 00000000 		.4byte	0x0
 4789              		.section	.debug_aranges,"",%progbits
 4790 0000 E4000000 		.4byte	0xe4
 4791 0004 0200     		.2byte	0x2
 4792 0006 00000000 		.4byte	.Ldebug_info0
 4793 000a 04       		.byte	0x4
 4794 000b 00       		.byte	0x0
 4795 000c 0000     		.2byte	0x0
 4796 000e 0000     		.2byte	0x0
 4797 0010 00000000 		.4byte	.LFB0
 4798 0014 32000000 		.4byte	.LFE0-.LFB0
 4799 0018 00000000 		.4byte	.LFB1
 4800 001c A2010000 		.4byte	.LFE1-.LFB1
 4801 0020 00000000 		.4byte	.LFB2
 4802 0024 3A000000 		.4byte	.LFE2-.LFB2
 4803 0028 00000000 		.4byte	.LFB3
 4804 002c CE010000 		.4byte	.LFE3-.LFB3
ARM GAS  C:\Users\Victor\AppData\Local\Temp\ccOsbm6Y.s 			page 119


 4805 0030 00000000 		.4byte	.LFB4
 4806 0034 44000000 		.4byte	.LFE4-.LFB4
 4807 0038 00000000 		.4byte	.LFB5
 4808 003c 3C000000 		.4byte	.LFE5-.LFB5
 4809 0040 00000000 		.4byte	.LFB6
 4810 0044 E4000000 		.4byte	.LFE6-.LFB6
 4811 0048 00000000 		.4byte	.LFB7
 4812 004c BA000000 		.4byte	.LFE7-.LFB7
 4813 0050 00000000 		.4byte	.LFB8
 4814 0054 44000000 		.4byte	.LFE8-.LFB8
 4815 0058 00000000 		.4byte	.LFB9
 4816 005c 26000000 		.4byte	.LFE9-.LFB9
 4817 0060 00000000 		.4byte	.LFB10
 4818 0064 32000000 		.4byte	.LFE10-.LFB10
 4819 0068 00000000 		.4byte	.LFB11
 4820 006c 60000000 		.4byte	.LFE11-.LFB11
 4821 0070 00000000 		.4byte	.LFB12
 4822 0074 1A000000 		.4byte	.LFE12-.LFB12
 4823 0078 00000000 		.4byte	.LFB13
 4824 007c 22000000 		.4byte	.LFE13-.LFB13
 4825 0080 00000000 		.4byte	.LFB14
 4826 0084 3A000000 		.4byte	.LFE14-.LFB14
 4827 0088 00000000 		.4byte	.LFB15
 4828 008c 1E000000 		.4byte	.LFE15-.LFB15
 4829 0090 00000000 		.4byte	.LFB16
 4830 0094 1E000000 		.4byte	.LFE16-.LFB16
 4831 0098 00000000 		.4byte	.LFB17
 4832 009c C4000000 		.4byte	.LFE17-.LFB17
 4833 00a0 00000000 		.4byte	.LFB18
 4834 00a4 54000000 		.4byte	.LFE18-.LFB18
 4835 00a8 00000000 		.4byte	.LFB19
 4836 00ac F0000000 		.4byte	.LFE19-.LFB19
 4837 00b0 00000000 		.4byte	.LFB20
 4838 00b4 3E000000 		.4byte	.LFE20-.LFB20
 4839 00b8 00000000 		.4byte	.LFB21
 4840 00bc 60080000 		.4byte	.LFE21-.LFB21
 4841 00c0 00000000 		.4byte	.LFB22
 4842 00c4 54000000 		.4byte	.LFE22-.LFB22
 4843 00c8 00000000 		.4byte	.LFB23
 4844 00cc F0010000 		.4byte	.LFE23-.LFB23
 4845 00d0 00000000 		.4byte	.LFB24
 4846 00d4 9A010000 		.4byte	.LFE24-.LFB24
 4847 00d8 00000000 		.4byte	.LFB25
 4848 00dc 92000000 		.4byte	.LFE25-.LFB25
 4849 00e0 00000000 		.4byte	0x0
 4850 00e4 00000000 		.4byte	0x0
 4851              		.section	.debug_ranges,"",%progbits
 4852              	.Ldebug_ranges0:
 4853 0000 00000000 		.4byte	.Ltext0
 4854 0004 00000000 		.4byte	.Letext0
 4855 0008 00000000 		.4byte	.LFB0
 4856 000c 32000000 		.4byte	.LFE0
 4857 0010 00000000 		.4byte	.LFB1
 4858 0014 A2010000 		.4byte	.LFE1
 4859 0018 00000000 		.4byte	.LFB2
 4860 001c 3A000000 		.4byte	.LFE2
 4861 0020 00000000 		.4byte	.LFB3
ARM GAS  C:\Users\Victor\AppData\Local\Temp\ccOsbm6Y.s 			page 120


 4862 0024 CE010000 		.4byte	.LFE3
 4863 0028 00000000 		.4byte	.LFB4
 4864 002c 44000000 		.4byte	.LFE4
 4865 0030 00000000 		.4byte	.LFB5
 4866 0034 3C000000 		.4byte	.LFE5
 4867 0038 00000000 		.4byte	.LFB6
 4868 003c E4000000 		.4byte	.LFE6
 4869 0040 00000000 		.4byte	.LFB7
 4870 0044 BA000000 		.4byte	.LFE7
 4871 0048 00000000 		.4byte	.LFB8
 4872 004c 44000000 		.4byte	.LFE8
 4873 0050 00000000 		.4byte	.LFB9
 4874 0054 26000000 		.4byte	.LFE9
 4875 0058 00000000 		.4byte	.LFB10
 4876 005c 32000000 		.4byte	.LFE10
 4877 0060 00000000 		.4byte	.LFB11
 4878 0064 60000000 		.4byte	.LFE11
 4879 0068 00000000 		.4byte	.LFB12
 4880 006c 1A000000 		.4byte	.LFE12
 4881 0070 00000000 		.4byte	.LFB13
 4882 0074 22000000 		.4byte	.LFE13
 4883 0078 00000000 		.4byte	.LFB14
 4884 007c 3A000000 		.4byte	.LFE14
 4885 0080 00000000 		.4byte	.LFB15
 4886 0084 1E000000 		.4byte	.LFE15
 4887 0088 00000000 		.4byte	.LFB16
 4888 008c 1E000000 		.4byte	.LFE16
 4889 0090 00000000 		.4byte	.LFB17
 4890 0094 C4000000 		.4byte	.LFE17
 4891 0098 00000000 		.4byte	.LFB18
 4892 009c 54000000 		.4byte	.LFE18
 4893 00a0 00000000 		.4byte	.LFB19
 4894 00a4 F0000000 		.4byte	.LFE19
 4895 00a8 00000000 		.4byte	.LFB20
 4896 00ac 3E000000 		.4byte	.LFE20
 4897 00b0 00000000 		.4byte	.LFB21
 4898 00b4 60080000 		.4byte	.LFE21
 4899 00b8 00000000 		.4byte	.LFB22
 4900 00bc 54000000 		.4byte	.LFE22
 4901 00c0 00000000 		.4byte	.LFB23
 4902 00c4 F0010000 		.4byte	.LFE23
 4903 00c8 00000000 		.4byte	.LFB24
 4904 00cc 9A010000 		.4byte	.LFE24
 4905 00d0 00000000 		.4byte	.LFB25
 4906 00d4 92000000 		.4byte	.LFE25
 4907 00d8 00000000 		.4byte	0x0
 4908 00dc 00000000 		.4byte	0x0
 4909              		.section	.debug_str,"MS",%progbits,1
 4910              	.LASF10:
 4911 0000 75696E74 		.ascii	"uint16\000"
 4911      313600
 4912              	.LASF48:
 4913 0007 61646347 		.ascii	"adcGain\000"
 4913      61696E00 
 4914              	.LASF67:
 4915 000f 696E7075 		.ascii	"inputRange\000"
 4915      7452616E 
ARM GAS  C:\Users\Victor\AppData\Local\Temp\ccOsbm6Y.s 			page 121


 4915      676500
 4916              	.LASF53:
 4917 001a 4144435F 		.ascii	"ADC_CountsTo_Volts\000"
 4917      436F756E 
 4917      7473546F 
 4917      5F566F6C 
 4917      747300
 4918              	.LASF82:
 4919 002d 4144435F 		.ascii	"ADC_stopConversion\000"
 4919      73746F70 
 4919      436F6E76 
 4919      65727369 
 4919      6F6E00
 4920              	.LASF84:
 4921 0040 4144435F 		.ascii	"ADC_started\000"
 4921      73746172 
 4921      74656400 
 4922              	.LASF62:
 4923 004c 636C6F63 		.ascii	"clockFreq\000"
 4923      6B467265 
 4923      7100
 4924              	.LASF18:
 4925 0056 4144435F 		.ascii	"ADC_Init\000"
 4925      496E6974 
 4925      00
 4926              	.LASF7:
 4927 005f 6C6F6E67 		.ascii	"long long unsigned int\000"
 4927      206C6F6E 
 4927      6720756E 
 4927      7369676E 
 4927      65642069 
 4928              	.LASF88:
 4929 0076 474E5520 		.ascii	"GNU C 4.4.1\000"
 4929      4320342E 
 4929      342E3100 
 4930              	.LASF85:
 4931 0082 4144435F 		.ascii	"ADC_Config\000"
 4931      436F6E66 
 4931      696700
 4932              	.LASF76:
 4933 008d 4E6F726D 		.ascii	"Normalised\000"
 4933      616C6973 
 4933      656400
 4934              	.LASF38:
 4935 0098 4144435F 		.ascii	"ADC_StartConvert\000"
 4935      53746172 
 4935      74436F6E 
 4935      76657274 
 4935      00
 4936              	.LASF35:
 4937 00a9 4144435F 		.ascii	"ADC_SetBufferChop\000"
 4937      53657442 
 4937      75666665 
 4937      7243686F 
 4937      7000
 4938              	.LASF61:
 4939 00bb 62757343 		.ascii	"busClockFreq\000"
ARM GAS  C:\Users\Victor\AppData\Local\Temp\ccOsbm6Y.s 			page 122


 4939      6C6F636B 
 4939      46726571 
 4939      00
 4940              	.LASF6:
 4941 00c8 6C6F6E67 		.ascii	"long long int\000"
 4941      206C6F6E 
 4941      6720696E 
 4941      7400
 4942              	.LASF0:
 4943 00d6 7369676E 		.ascii	"signed char\000"
 4943      65642063 
 4943      68617200 
 4944              	.LASF28:
 4945 00e2 73746174 		.ascii	"status\000"
 4945      757300
 4946              	.LASF77:
 4947 00e9 47636F72 		.ascii	"GcorValue\000"
 4947      56616C75 
 4947      6500
 4948              	.LASF22:
 4949 00f3 4144435F 		.ascii	"ADC_SetBufferGain\000"
 4949      53657442 
 4949      75666665 
 4949      72476169 
 4949      6E00
 4950              	.LASF89:
 4951 0105 2E5C4765 		.ascii	".\\Generated_Source\\PSoC5\\ADC.c\000"
 4951      6E657261 
 4951      7465645F 
 4951      536F7572 
 4951      63655C50 
 4952              	.LASF14:
 4953 0124 696E7433 		.ascii	"int32\000"
 4953      3200
 4954              	.LASF20:
 4955 012a 4144435F 		.ascii	"ADC_Start\000"
 4955      53746172 
 4955      7400
 4956              	.LASF81:
 4957 0134 4144435F 		.ascii	"ADC_convDone\000"
 4957      636F6E76 
 4957      446F6E65 
 4957      00
 4958              	.LASF4:
 4959 0141 6C6F6E67 		.ascii	"long int\000"
 4959      20696E74 
 4959      00
 4960              	.LASF55:
 4961 014a 4144435F 		.ascii	"ADC_CountsTo_uVolts\000"
 4961      436F756E 
 4961      7473546F 
 4961      5F75566F 
 4961      6C747300 
 4962              	.LASF9:
 4963 015e 75696E74 		.ascii	"uint8\000"
 4963      3800
 4964              	.LASF16:
ARM GAS  C:\Users\Victor\AppData\Local\Temp\ccOsbm6Y.s 			page 123


 4965 0164 646F7562 		.ascii	"double\000"
 4965      6C6500
 4966              	.LASF44:
 4967 016b 4144435F 		.ascii	"ADC_GetResult32\000"
 4967      47657452 
 4967      6573756C 
 4967      74333200 
 4968              	.LASF54:
 4969 017b 566F6C74 		.ascii	"Volts\000"
 4969      7300
 4970              	.LASF11:
 4971 0181 75696E74 		.ascii	"uint32\000"
 4971      333200
 4972              	.LASF74:
 4973 0188 49646561 		.ascii	"IdealOddDecGain\000"
 4973      6C4F6464 
 4973      44656347 
 4973      61696E00 
 4974              	.LASF83:
 4975 0198 4144435F 		.ascii	"ADC_initVar\000"
 4975      696E6974 
 4975      56617200 
 4976              	.LASF79:
 4977 01a4 4144435F 		.ascii	"ADC_SetDSMRef0Reg\000"
 4977      53657444 
 4977      534D5265 
 4977      66305265 
 4977      6700
 4978              	.LASF80:
 4979 01b6 76616C75 		.ascii	"value\000"
 4979      6500
 4980              	.LASF8:
 4981 01bc 756E7369 		.ascii	"unsigned int\000"
 4981      676E6564 
 4981      20696E74 
 4981      00
 4982              	.LASF56:
 4983 01c9 75566F6C 		.ascii	"uVolts\000"
 4983      747300
 4984              	.LASF5:
 4985 01d0 6C6F6E67 		.ascii	"long unsigned int\000"
 4985      20756E73 
 4985      69676E65 
 4985      6420696E 
 4985      7400
 4986              	.LASF41:
 4987 01e2 774D6F64 		.ascii	"wMode\000"
 4987      6500
 4988              	.LASF34:
 4989 01e8 67636F72 		.ascii	"gcorRegValue\000"
 4989      52656756 
 4989      616C7565 
 4989      00
 4990              	.LASF3:
 4991 01f5 73686F72 		.ascii	"short unsigned int\000"
 4991      7420756E 
 4991      7369676E 
ARM GAS  C:\Users\Victor\AppData\Local\Temp\ccOsbm6Y.s 			page 124


 4991      65642069 
 4991      6E7400
 4992              	.LASF12:
 4993 0208 696E7438 		.ascii	"int8\000"
 4993      00
 4994              	.LASF39:
 4995 020d 4144435F 		.ascii	"ADC_StopConvert\000"
 4995      53746F70 
 4995      436F6E76 
 4995      65727400 
 4996              	.LASF33:
 4997 021d 67636F72 		.ascii	"gcorValue\000"
 4997      56616C75 
 4997      6500
 4998              	.LASF70:
 4999 0227 6370436C 		.ascii	"cpClockDivider\000"
 4999      6F636B44 
 4999      69766964 
 4999      657200
 5000              	.LASF51:
 5001 0236 6D566F6C 		.ascii	"mVolts\000"
 5001      747300
 5002              	.LASF75:
 5003 023d 666C6173 		.ascii	"flash\000"
 5003      6800
 5004              	.LASF23:
 5005 0243 4144435F 		.ascii	"ADC_SetCoherency\000"
 5005      53657443 
 5005      6F686572 
 5005      656E6379 
 5005      00
 5006              	.LASF72:
 5007 0254 4144435F 		.ascii	"ADC_GainCompensation\000"
 5007      4761696E 
 5007      436F6D70 
 5007      656E7361 
 5007      74696F6E 
 5008              	.LASF68:
 5009 0269 69646561 		.ascii	"idealGain\000"
 5009      6C476169 
 5009      6E00
 5010              	.LASF30:
 5011 0273 4144435F 		.ascii	"ADC_SetGCOR\000"
 5011      53657447 
 5011      434F5200 
 5012              	.LASF40:
 5013 027f 4144435F 		.ascii	"ADC_IsEndConversion\000"
 5013      4973456E 
 5013      64436F6E 
 5013      76657273 
 5013      696F6E00 
 5014              	.LASF58:
 5015 0293 4144435F 		.ascii	"ADC_InitConfig\000"
 5015      496E6974 
 5015      436F6E66 
 5015      696700
 5016              	.LASF91:
ARM GAS  C:\Users\Victor\AppData\Local\Temp\ccOsbm6Y.s 			page 125


 5017 02a2 4144435F 		.ascii	"ADC_GetResult8\000"
 5017      47657452 
 5017      6573756C 
 5017      743800
 5018              	.LASF60:
 5019 02b1 4144435F 		.ascii	"ADC_RoundValue\000"
 5019      526F756E 
 5019      6456616C 
 5019      756500
 5020              	.LASF25:
 5021 02c0 636F6865 		.ascii	"coherency\000"
 5021      72656E63 
 5021      7900
 5022              	.LASF36:
 5023 02ca 63686F70 		.ascii	"chopen\000"
 5023      656E00
 5024              	.LASF47:
 5025 02d1 4144435F 		.ascii	"ADC_SetGain\000"
 5025      53657447 
 5025      61696E00 
 5026              	.LASF15:
 5027 02dd 666C6F61 		.ascii	"float\000"
 5027      7400
 5028              	.LASF57:
 5029 02e3 4144435F 		.ascii	"ADC_IRQ_Start\000"
 5029      4952515F 
 5029      53746172 
 5029      7400
 5030              	.LASF49:
 5031 02f1 4144435F 		.ascii	"ADC_CountsTo_mVolts\000"
 5031      436F756E 
 5031      7473546F 
 5031      5F6D566F 
 5031      6C747300 
 5032              	.LASF24:
 5033 0305 6761696E 		.ascii	"gain\000"
 5033      00
 5034              	.LASF1:
 5035 030a 756E7369 		.ascii	"unsigned char\000"
 5035      676E6564 
 5035      20636861 
 5035      7200
 5036              	.LASF65:
 5037 0318 4144435F 		.ascii	"ADC_SelectConfiguration\000"
 5037      53656C65 
 5037      6374436F 
 5037      6E666967 
 5037      75726174 
 5038              	.LASF2:
 5039 0330 73686F72 		.ascii	"short int\000"
 5039      7420696E 
 5039      7400
 5040              	.LASF21:
 5041 033a 4144435F 		.ascii	"ADC_Stop\000"
 5041      53746F70 
 5041      00
 5042              	.LASF63:
ARM GAS  C:\Users\Victor\AppData\Local\Temp\ccOsbm6Y.s 			page 126


 5043 0343 64697669 		.ascii	"divider1\000"
 5043      64657231 
 5043      00
 5044              	.LASF64:
 5045 034c 64697669 		.ascii	"divider2\000"
 5045      64657232 
 5045      00
 5046              	.LASF52:
 5047 0355 7265736F 		.ascii	"resolution\000"
 5047      6C757469 
 5047      6F6E00
 5048              	.LASF86:
 5049 0360 4144435F 		.ascii	"ADC_Offset\000"
 5049      4F666673 
 5049      657400
 5050              	.LASF78:
 5051 036b 47636F72 		.ascii	"GcorTmp\000"
 5051      546D7000 
 5052              	.LASF73:
 5053 0373 49646561 		.ascii	"IdealDecGain\000"
 5053      6C446563 
 5053      4761696E 
 5053      00
 5054              	.LASF17:
 5055 0380 63686172 		.ascii	"char\000"
 5055      00
 5056              	.LASF32:
 5057 0385 6756616C 		.ascii	"gValue\000"
 5057      756500
 5058              	.LASF59:
 5059 038c 636F6E66 		.ascii	"config\000"
 5059      696700
 5060              	.LASF69:
 5061 0393 61646343 		.ascii	"adcClockDivider\000"
 5061      6C6F636B 
 5061      44697669 
 5061      64657200 
 5062              	.LASF37:
 5063 03a3 63686F70 		.ascii	"chopFreq\000"
 5063      46726571 
 5063      00
 5064              	.LASF66:
 5065 03ac 72657374 		.ascii	"restart\000"
 5065      61727400 
 5066              	.LASF29:
 5067 03b4 746D7056 		.ascii	"tmpValue\000"
 5067      616C7565 
 5067      00
 5068              	.LASF71:
 5069 03bd 69646561 		.ascii	"idealOddGain\000"
 5069      6C4F6464 
 5069      4761696E 
 5069      00
 5070              	.LASF46:
 5071 03ca 6F666673 		.ascii	"offset\000"
 5071      657400
 5072              	.LASF50:
ARM GAS  C:\Users\Victor\AppData\Local\Temp\ccOsbm6Y.s 			page 127


 5073 03d1 61646343 		.ascii	"adcCounts\000"
 5073      6F756E74 
 5073      7300
 5074              	.LASF19:
 5075 03db 4144435F 		.ascii	"ADC_Enable\000"
 5075      456E6162 
 5075      6C6500
 5076              	.LASF31:
 5077 03e6 4144435F 		.ascii	"ADC_ReadGCOR\000"
 5077      52656164 
 5077      47434F52 
 5077      00
 5078              	.LASF27:
 5079 03f3 6761696E 		.ascii	"gainAdjust\000"
 5079      41646A75 
 5079      737400
 5080              	.LASF13:
 5081 03fe 696E7431 		.ascii	"int16\000"
 5081      3600
 5082              	.LASF45:
 5083 0404 4144435F 		.ascii	"ADC_SetOffset\000"
 5083      5365744F 
 5083      66667365 
 5083      7400
 5084              	.LASF90:
 5085 0412 433A5C55 		.ascii	"C:\\Users\\Victor\\Desktop\\CE121Lab Projects\\Lab_"
 5085      73657273 
 5085      5C566963 
 5085      746F725C 
 5085      4465736B 
 5086 0440 50726F6A 		.ascii	"Project_HomeRow_with_Dropping\\Lab_Project\\Lab_Pro"
 5086      6563745F 
 5086      486F6D65 
 5086      526F775F 
 5086      77697468 
 5087 0471 6A656374 		.ascii	"ject.cydsn\000"
 5087      2E637964 
 5087      736E00
 5088              	.LASF87:
 5089 047c 4144435F 		.ascii	"ADC_CountsPerVolt\000"
 5089      436F756E 
 5089      74735065 
 5089      72566F6C 
 5089      7400
 5090              	.LASF26:
 5091 048e 746D7052 		.ascii	"tmpReg\000"
 5091      656700
 5092              	.LASF43:
 5093 0495 72657375 		.ascii	"result\000"
 5093      6C7400
 5094              	.LASF42:
 5095 049c 4144435F 		.ascii	"ADC_GetResult16\000"
 5095      47657452 
 5095      6573756C 
 5095      74313600 
 5096              		.ident	"GCC: (Sourcery G++ Lite 2010q1-188) 4.4.1"
