ARM GAS  C:\Users\yguan5\AppData\Local\Temp\ccDbifVx.s 			page 1


   1              		.syntax unified
   2              		.cpu cortex-m3
   3              		.fpu softvfp
   4              		.eabi_attribute 20, 1
   5              		.eabi_attribute 21, 1
   6              		.eabi_attribute 23, 3
   7              		.eabi_attribute 24, 1
   8              		.eabi_attribute 25, 1
   9              		.eabi_attribute 26, 1
  10              		.eabi_attribute 30, 6
  11              		.eabi_attribute 18, 4
  12              		.thumb
  13              		.file	"CapSense_CSD.c"
  20 0000 42020000 		.text
  20      02006500 
  20      00000201 
  20      FB0E0D00 
  20      01010101 
  21              	.Ltext0:
  22              		.cfi_sections	.debug_frame
  23              		.global	CapSense_CSD_initVar
  24              		.bss
  25              		.type	CapSense_CSD_initVar, %object
  26              		.size	CapSense_CSD_initVar, 1
  27              	CapSense_CSD_initVar:
  28 0000 00       		.space	1
  29              		.global	CapSense_CSD_csv
  30              		.type	CapSense_CSD_csv, %object
  31              		.size	CapSense_CSD_csv, 1
  32              	CapSense_CSD_csv:
  33 0001 00       		.space	1
  34              		.global	CapSense_CSD_sensorIndex
  35              		.type	CapSense_CSD_sensorIndex, %object
  36              		.size	CapSense_CSD_sensorIndex, 1
  37              	CapSense_CSD_sensorIndex:
  38 0002 00       		.space	1
  39              		.global	CapSense_CSD_SensorRaw
  40 0003 00       		.align	2
  41              		.type	CapSense_CSD_SensorRaw, %object
  42              		.size	CapSense_CSD_SensorRaw, 14
  43              	CapSense_CSD_SensorRaw:
  44 0004 00000000 		.space	14
  44      00000000 
  44      00000000 
  44      0000
  45              		.global	CapSense_CSD_SensorEnableMask
  46 0012 0000     		.data
  47              		.align	2
  48              		.type	CapSense_CSD_SensorEnableMask, %object
  49              		.size	CapSense_CSD_SensorEnableMask, 1
  50              	CapSense_CSD_SensorEnableMask:
ARM GAS  C:\Users\yguan5\AppData\Local\Temp\ccDbifVx.s 			page 2


  51 0000 7F       		.byte	127
  52              		.global	CapSense_CSD_pcTable
  53              		.section	.rodata
  54              		.align	2
  55              		.type	CapSense_CSD_pcTable, %object
  56              		.size	CapSense_CSD_pcTable, 28
  57              	CapSense_CSD_pcTable:
  58 0000 2E500040 		.word	1073762350
  59 0004 2D500040 		.word	1073762349
  60 0008 28500040 		.word	1073762344
  61 000c 29500040 		.word	1073762345
  62 0010 2A500040 		.word	1073762346
  63 0014 2B500040 		.word	1073762347
  64 0018 2C500040 		.word	1073762348
  65              		.global	CapSense_CSD_portTable
  66              		.align	2
  67              		.type	CapSense_CSD_portTable, %object
  68              		.size	CapSense_CSD_portTable, 7
  69              	CapSense_CSD_portTable:
  70 001c 05       		.byte	5
  71 001d 05       		.byte	5
  72 001e 05       		.byte	5
  73 001f 05       		.byte	5
  74 0020 05       		.byte	5
  75 0021 05       		.byte	5
  76 0022 05       		.byte	5
  77              		.global	CapSense_CSD_maskTable
  78 0023 00       		.align	2
  79              		.type	CapSense_CSD_maskTable, %object
  80              		.size	CapSense_CSD_maskTable, 7
  81              	CapSense_CSD_maskTable:
  82 0024 40       		.byte	64
  83 0025 20       		.byte	32
  84 0026 01       		.byte	1
  85 0027 02       		.byte	2
  86 0028 04       		.byte	4
  87 0029 08       		.byte	8
  88 002a 10       		.byte	16
  89              		.global	CapSense_CSD_csTable
  90 002b 00       		.align	2
  91              		.type	CapSense_CSD_csTable, %object
  92              		.size	CapSense_CSD_csTable, 32
  93              	CapSense_CSD_csTable:
  94 002c 06520040 		.word	1073762822
  95 0030 0E520040 		.word	1073762830
  96 0034 16520040 		.word	1073762838
  97 0038 1E520040 		.word	1073762846
  98 003c 26520040 		.word	1073762854
  99 0040 2E520040 		.word	1073762862
 100 0044 36520040 		.word	1073762870
 101 0048 7E520040 		.word	1073762942
 102              		.global	CapSense_CSD_idacSettings
 103              		.align	2
 104              		.type	CapSense_CSD_idacSettings, %object
 105              		.size	CapSense_CSD_idacSettings, 7
 106              	CapSense_CSD_idacSettings:
 107 004c 64       		.byte	100
ARM GAS  C:\Users\yguan5\AppData\Local\Temp\ccDbifVx.s 			page 3


 108 004d 64       		.byte	100
 109 004e 96       		.byte	-106
 110 004f 96       		.byte	-106
 111 0050 96       		.byte	-106
 112 0051 96       		.byte	-106
 113 0052 96       		.byte	-106
 114              		.global	CapSense_CSD_widgetResolution
 115 0053 00       		.align	2
 116              		.type	CapSense_CSD_widgetResolution, %object
 117              		.size	CapSense_CSD_widgetResolution, 3
 118              	CapSense_CSD_widgetResolution:
 119 0054 03       		.byte	3
 120 0055 03       		.byte	3
 121 0056 03       		.byte	3
 122              		.global	CapSense_CSD_AnalogSwitchDivider
 123              		.data
 124              		.type	CapSense_CSD_AnalogSwitchDivider, %object
 125              		.size	CapSense_CSD_AnalogSwitchDivider, 1
 126              	CapSense_CSD_AnalogSwitchDivider:
 127 0001 07       		.byte	7
 128              		.global	CapSense_CSD_widgetNumber
 129 0002 0000     		.section	.rodata
 130 0057 00       		.align	2
 131              		.type	CapSense_CSD_widgetNumber, %object
 132              		.size	CapSense_CSD_widgetNumber, 7
 133              	CapSense_CSD_widgetNumber:
 134 0058 01       		.byte	1
 135 0059 02       		.byte	2
 136 005a 00       		.byte	0
 137 005b 00       		.byte	0
 138 005c 00       		.byte	0
 139 005d 00       		.byte	0
 140 005e 00       		.byte	0
 141 005f 00       		.section	.text.CapSense_CSD_Init,"ax",%progbits
 142              		.align	2
 143              		.global	CapSense_CSD_Init
 144              		.thumb
 145              		.thumb_func
 146              		.type	CapSense_CSD_Init, %function
 147              	CapSense_CSD_Init:
 148              	.LFB0:
 149              		.file 1 ".\\Generated_Source\\PSoC5\\CapSense_CSD.c"
   1:.\Generated_Source\PSoC5/CapSense_CSD.c **** /*******************************************************************************
   2:.\Generated_Source\PSoC5/CapSense_CSD.c **** * File Name: CapSense_CSD.c
   3:.\Generated_Source\PSoC5/CapSense_CSD.c **** * Version 3.30
   4:.\Generated_Source\PSoC5/CapSense_CSD.c **** *
   5:.\Generated_Source\PSoC5/CapSense_CSD.c **** * Description:
   6:.\Generated_Source\PSoC5/CapSense_CSD.c **** *  This file provides the source code of scanning APIs for the CapSense CSD 
   7:.\Generated_Source\PSoC5/CapSense_CSD.c **** *  component.
   8:.\Generated_Source\PSoC5/CapSense_CSD.c **** *
   9:.\Generated_Source\PSoC5/CapSense_CSD.c **** * Note:
  10:.\Generated_Source\PSoC5/CapSense_CSD.c **** *
  11:.\Generated_Source\PSoC5/CapSense_CSD.c **** ********************************************************************************
  12:.\Generated_Source\PSoC5/CapSense_CSD.c **** * Copyright 2008-2012, Cypress Semiconductor Corporation.  All rights reserved.
  13:.\Generated_Source\PSoC5/CapSense_CSD.c **** * You may use this file only in accordance with the license, terms, conditions,
  14:.\Generated_Source\PSoC5/CapSense_CSD.c **** * disclaimers, and limitations in the end user license agreement accompanying
  15:.\Generated_Source\PSoC5/CapSense_CSD.c **** * the software package with which this file was provided.
ARM GAS  C:\Users\yguan5\AppData\Local\Temp\ccDbifVx.s 			page 4


  16:.\Generated_Source\PSoC5/CapSense_CSD.c **** *******************************************************************************/
  17:.\Generated_Source\PSoC5/CapSense_CSD.c **** 
  18:.\Generated_Source\PSoC5/CapSense_CSD.c **** #include "CapSense_CSD.h"
  19:.\Generated_Source\PSoC5/CapSense_CSD.c **** 
  20:.\Generated_Source\PSoC5/CapSense_CSD.c **** /* Rb init function */
  21:.\Generated_Source\PSoC5/CapSense_CSD.c **** #if (CapSense_CSD_CURRENT_SOURCE == CapSense_CSD_EXTERNAL_RB)
  22:.\Generated_Source\PSoC5/CapSense_CSD.c ****     void CapSense_CSD_InitRb(void);
  23:.\Generated_Source\PSoC5/CapSense_CSD.c **** #endif /* End CapSense_CSD_CURRENT_SOURCE */ 
  24:.\Generated_Source\PSoC5/CapSense_CSD.c **** 
  25:.\Generated_Source\PSoC5/CapSense_CSD.c **** #if (CapSense_CSD_IS_COMPLEX_SCANSLOTS)
  26:.\Generated_Source\PSoC5/CapSense_CSD.c ****     void CapSense_CSD_EnableScanSlot(uint8 slot) CYREENTRANT;
  27:.\Generated_Source\PSoC5/CapSense_CSD.c ****     void CapSense_CSD_DisableScanSlot(uint8 slot) CYREENTRANT;
  28:.\Generated_Source\PSoC5/CapSense_CSD.c ****     
  29:.\Generated_Source\PSoC5/CapSense_CSD.c **** #else
  30:.\Generated_Source\PSoC5/CapSense_CSD.c ****     #define CapSense_CSD_EnableScanSlot(slot)   CapSense_CSD_EnableSensor(slot)
  31:.\Generated_Source\PSoC5/CapSense_CSD.c ****     #define CapSense_CSD_DisableScanSlot(slot)  CapSense_CSD_DisableSensor(slot)
  32:.\Generated_Source\PSoC5/CapSense_CSD.c **** 
  33:.\Generated_Source\PSoC5/CapSense_CSD.c **** #endif  /* End CapSense_CSD_IS_COMPLEX_SCANSLOTS */
  34:.\Generated_Source\PSoC5/CapSense_CSD.c **** 
  35:.\Generated_Source\PSoC5/CapSense_CSD.c **** /* Helper functions - do nto part of public interface*/
  36:.\Generated_Source\PSoC5/CapSense_CSD.c **** 
  37:.\Generated_Source\PSoC5/CapSense_CSD.c **** /* Find next sensor for One Channel design */
  38:.\Generated_Source\PSoC5/CapSense_CSD.c **** #if (CapSense_CSD_DESIGN_TYPE == CapSense_CSD_ONE_CHANNEL_DESIGN)
  39:.\Generated_Source\PSoC5/CapSense_CSD.c ****     uint8 CapSense_CSD_FindNextSensor(uint8 snsIndex) CYREENTRANT;
  40:.\Generated_Source\PSoC5/CapSense_CSD.c **** #endif  /* End CapSense_CSD_DESIGN_TYPE */
  41:.\Generated_Source\PSoC5/CapSense_CSD.c **** 
  42:.\Generated_Source\PSoC5/CapSense_CSD.c **** /* Find next pair for Two Channels design */
  43:.\Generated_Source\PSoC5/CapSense_CSD.c ****  #if (CapSense_CSD_DESIGN_TYPE == CapSense_CSD_TWO_CHANNELS_DESIGN)
  44:.\Generated_Source\PSoC5/CapSense_CSD.c ****     uint8 CapSense_CSD_FindNextPair(uint8 snsIndex) CYREENTRANT;
  45:.\Generated_Source\PSoC5/CapSense_CSD.c **** #endif  /* End CapSense_CSD_DESIGN_TYPE */
  46:.\Generated_Source\PSoC5/CapSense_CSD.c **** 
  47:.\Generated_Source\PSoC5/CapSense_CSD.c **** /* Start and Compete the scan */
  48:.\Generated_Source\PSoC5/CapSense_CSD.c **** void CapSense_CSD_PreScan(uint8 sensor) CYREENTRANT;
  49:.\Generated_Source\PSoC5/CapSense_CSD.c **** #if (CapSense_CSD_DESIGN_TYPE == CapSense_CSD_ONE_CHANNEL_DESIGN)
  50:.\Generated_Source\PSoC5/CapSense_CSD.c ****     void CapSense_CSD_PostScan(uint8 sensor) CYREENTRANT;
  51:.\Generated_Source\PSoC5/CapSense_CSD.c **** #else
  52:.\Generated_Source\PSoC5/CapSense_CSD.c ****     void CapSense_CSD_PostScanCh0(uint8 sensor) CYREENTRANT;
  53:.\Generated_Source\PSoC5/CapSense_CSD.c ****     void CapSense_CSD_PostScanCh1(uint8 sensor) CYREENTRANT;
  54:.\Generated_Source\PSoC5/CapSense_CSD.c **** #endif  /* End CapSense_CSD_DESIGN_TYPE */
  55:.\Generated_Source\PSoC5/CapSense_CSD.c **** 
  56:.\Generated_Source\PSoC5/CapSense_CSD.c **** #if (CapSense_CSD_PRESCALER_OPTIONS)
  57:.\Generated_Source\PSoC5/CapSense_CSD.c ****     void CapSense_CSD_SetPrescaler(uint8 prescaler) CYREENTRANT;
  58:.\Generated_Source\PSoC5/CapSense_CSD.c **** #endif  /* End CapSense_CSD_PRESCALER_OPTIONS */
  59:.\Generated_Source\PSoC5/CapSense_CSD.c **** 
  60:.\Generated_Source\PSoC5/CapSense_CSD.c **** void CapSense_CSD_SetScanSpeed(uint8 scanspeed) ;
  61:.\Generated_Source\PSoC5/CapSense_CSD.c **** 
  62:.\Generated_Source\PSoC5/CapSense_CSD.c **** /* SmartSense functions */
  63:.\Generated_Source\PSoC5/CapSense_CSD.c **** #if (CapSense_CSD_TUNING_METHOD == CapSense_CSD_AUTO_TUNING)
  64:.\Generated_Source\PSoC5/CapSense_CSD.c ****     uint8 CapSense_CSD_lowLevelTuningDone = 0u;
  65:.\Generated_Source\PSoC5/CapSense_CSD.c ****     extern void CapSense_CSD_AutoTune(void) ;
  66:.\Generated_Source\PSoC5/CapSense_CSD.c **** #endif /* End (CapSense_CSD_TUNING_METHOD == CapSense_CSD_AUTO_TUNING) */
  67:.\Generated_Source\PSoC5/CapSense_CSD.c **** 
  68:.\Generated_Source\PSoC5/CapSense_CSD.c **** uint8 CapSense_CSD_initVar = 0u;
  69:.\Generated_Source\PSoC5/CapSense_CSD.c ****             
  70:.\Generated_Source\PSoC5/CapSense_CSD.c **** /* Global software variables */
  71:.\Generated_Source\PSoC5/CapSense_CSD.c **** volatile uint8 CapSense_CSD_csv = 0u;            /* CapSense CSD status, control variable */
  72:.\Generated_Source\PSoC5/CapSense_CSD.c **** volatile uint8 CapSense_CSD_sensorIndex = 0u;    /* Index of scannig sensor */
ARM GAS  C:\Users\yguan5\AppData\Local\Temp\ccDbifVx.s 			page 5


  73:.\Generated_Source\PSoC5/CapSense_CSD.c **** 
  74:.\Generated_Source\PSoC5/CapSense_CSD.c **** #if (CapSense_CSD_CURRENT_SOURCE == CapSense_CSD_EXTERNAL_RB)
  75:.\Generated_Source\PSoC5/CapSense_CSD.c ****     uint8  CapSense_CSD_RbCh0_cur = CapSense_CSD_RBLEED1;
  76:.\Generated_Source\PSoC5/CapSense_CSD.c ****     #if (CapSense_CSD_DESIGN_TYPE == CapSense_CSD_TWO_CHANNELS_DESIGN)
  77:.\Generated_Source\PSoC5/CapSense_CSD.c ****         uint8  CapSense_CSD_RbCh1_cur = (CapSense_CSD_RBLEED1 + CapSense_CSD_TOTAL_RB_NUMBER__CH0);
  78:.\Generated_Source\PSoC5/CapSense_CSD.c ****     #endif /* (CapSense_CSD_DESIGN_TYPE == CapSense_CSD_TWO_CHANNELS_DESIGN)*/ 
  79:.\Generated_Source\PSoC5/CapSense_CSD.c **** #else
  80:.\Generated_Source\PSoC5/CapSense_CSD.c ****     #if (CY_PSOC5A)
  81:.\Generated_Source\PSoC5/CapSense_CSD.c ****         uint8 CapSense_CSD_idac_cfg_restore = 0u;
  82:.\Generated_Source\PSoC5/CapSense_CSD.c ****         uint8 CapSense_CSD_idac_ch0_cr0reg = 0u;
  83:.\Generated_Source\PSoC5/CapSense_CSD.c ****         #if (CapSense_CSD_DESIGN_TYPE == CapSense_CSD_TWO_CHANNELS_DESIGN)
  84:.\Generated_Source\PSoC5/CapSense_CSD.c ****             uint8 CapSense_CSD_idac_ch1_cr0reg = 0u;
  85:.\Generated_Source\PSoC5/CapSense_CSD.c ****         #endif /* (CapSense_CSD_DESIGN_TYPE == CapSense_CSD_TWO_CHANNELS_DESIGN) */ 
  86:.\Generated_Source\PSoC5/CapSense_CSD.c ****     #endif /* (CY_PSOC5A) */
  87:.\Generated_Source\PSoC5/CapSense_CSD.c **** #endif /* (CapSense_CSD_CURRENT_SOURCE == CapSense_CSD_EXTERNAL_RB) */ 
  88:.\Generated_Source\PSoC5/CapSense_CSD.c ****         
  89:.\Generated_Source\PSoC5/CapSense_CSD.c **** /* Global array of Raw Counts */
  90:.\Generated_Source\PSoC5/CapSense_CSD.c **** uint16 CapSense_CSD_SensorRaw[CapSense_CSD_TOTAL_SENSOR_COUNT] = {0u};
  91:.\Generated_Source\PSoC5/CapSense_CSD.c **** 
  92:.\Generated_Source\PSoC5/CapSense_CSD.c **** uint8 CapSense_CSD_SensorEnableMask[(((CapSense_CSD_TOTAL_SENSOR_COUNT - 1u) / 8u) + 1u)] = {
  93:.\Generated_Source\PSoC5/CapSense_CSD.c **** 0x7Fu, };
  94:.\Generated_Source\PSoC5/CapSense_CSD.c **** 
  95:.\Generated_Source\PSoC5/CapSense_CSD.c **** uint8 CYXDATA * const CYCODE CapSense_CSD_pcTable[] = {
  96:.\Generated_Source\PSoC5/CapSense_CSD.c ****     (uint8 CYXDATA *)CapSense_CSD_PortCH0__Button0__BTN__PC, 
  97:.\Generated_Source\PSoC5/CapSense_CSD.c ****     (uint8 CYXDATA *)CapSense_CSD_PortCH0__Button1__BTN__PC, 
  98:.\Generated_Source\PSoC5/CapSense_CSD.c ****     (uint8 CYXDATA *)CapSense_CSD_PortCH0__LinearSlider0_e0__LS__PC, 
  99:.\Generated_Source\PSoC5/CapSense_CSD.c ****     (uint8 CYXDATA *)CapSense_CSD_PortCH0__LinearSlider0_e1__LS__PC, 
 100:.\Generated_Source\PSoC5/CapSense_CSD.c ****     (uint8 CYXDATA *)CapSense_CSD_PortCH0__LinearSlider0_e2__LS__PC, 
 101:.\Generated_Source\PSoC5/CapSense_CSD.c ****     (uint8 CYXDATA *)CapSense_CSD_PortCH0__LinearSlider0_e3__LS__PC, 
 102:.\Generated_Source\PSoC5/CapSense_CSD.c ****     (uint8 CYXDATA *)CapSense_CSD_PortCH0__LinearSlider0_e4__LS__PC, 
 103:.\Generated_Source\PSoC5/CapSense_CSD.c **** };
 104:.\Generated_Source\PSoC5/CapSense_CSD.c **** 
 105:.\Generated_Source\PSoC5/CapSense_CSD.c **** const uint8 CYCODE CapSense_CSD_portTable[] = {
 106:.\Generated_Source\PSoC5/CapSense_CSD.c ****     CapSense_CSD_PortCH0__Button0__BTN__PORT, 
 107:.\Generated_Source\PSoC5/CapSense_CSD.c ****     CapSense_CSD_PortCH0__Button1__BTN__PORT, 
 108:.\Generated_Source\PSoC5/CapSense_CSD.c ****     CapSense_CSD_PortCH0__LinearSlider0_e0__LS__PORT, 
 109:.\Generated_Source\PSoC5/CapSense_CSD.c ****     CapSense_CSD_PortCH0__LinearSlider0_e1__LS__PORT, 
 110:.\Generated_Source\PSoC5/CapSense_CSD.c ****     CapSense_CSD_PortCH0__LinearSlider0_e2__LS__PORT, 
 111:.\Generated_Source\PSoC5/CapSense_CSD.c ****     CapSense_CSD_PortCH0__LinearSlider0_e3__LS__PORT, 
 112:.\Generated_Source\PSoC5/CapSense_CSD.c ****     CapSense_CSD_PortCH0__LinearSlider0_e4__LS__PORT, 
 113:.\Generated_Source\PSoC5/CapSense_CSD.c **** };
 114:.\Generated_Source\PSoC5/CapSense_CSD.c **** 
 115:.\Generated_Source\PSoC5/CapSense_CSD.c **** const uint8 CYCODE CapSense_CSD_maskTable[] = {
 116:.\Generated_Source\PSoC5/CapSense_CSD.c ****     CapSense_CSD_PortCH0__Button0__BTN__MASK,
 117:.\Generated_Source\PSoC5/CapSense_CSD.c ****     CapSense_CSD_PortCH0__Button1__BTN__MASK,
 118:.\Generated_Source\PSoC5/CapSense_CSD.c ****     CapSense_CSD_PortCH0__LinearSlider0_e0__LS__MASK,
 119:.\Generated_Source\PSoC5/CapSense_CSD.c ****     CapSense_CSD_PortCH0__LinearSlider0_e1__LS__MASK,
 120:.\Generated_Source\PSoC5/CapSense_CSD.c ****     CapSense_CSD_PortCH0__LinearSlider0_e2__LS__MASK,
 121:.\Generated_Source\PSoC5/CapSense_CSD.c ****     CapSense_CSD_PortCH0__LinearSlider0_e3__LS__MASK,
 122:.\Generated_Source\PSoC5/CapSense_CSD.c ****     CapSense_CSD_PortCH0__LinearSlider0_e4__LS__MASK,
 123:.\Generated_Source\PSoC5/CapSense_CSD.c **** };
 124:.\Generated_Source\PSoC5/CapSense_CSD.c **** 
 125:.\Generated_Source\PSoC5/CapSense_CSD.c **** uint8 CYXDATA * const CYCODE CapSense_CSD_csTable[] = {
 126:.\Generated_Source\PSoC5/CapSense_CSD.c ****     (uint8 CYXDATA *)CYREG_PRT0_CAPS_SEL, (uint8 CYXDATA *)CYREG_PRT1_CAPS_SEL, (uint8 CYXDATA *)CY
 127:.\Generated_Source\PSoC5/CapSense_CSD.c ****     (uint8 CYXDATA *)CYREG_PRT3_CAPS_SEL, (uint8 CYXDATA *)CYREG_PRT4_CAPS_SEL, (uint8 CYXDATA *)CY
 128:.\Generated_Source\PSoC5/CapSense_CSD.c ****     (uint8 CYXDATA *)CYREG_PRT6_CAPS_SEL, (uint8 CYXDATA *)CYREG_PRT15_CAPS_SEL,
 129:.\Generated_Source\PSoC5/CapSense_CSD.c **** };
ARM GAS  C:\Users\yguan5\AppData\Local\Temp\ccDbifVx.s 			page 6


 130:.\Generated_Source\PSoC5/CapSense_CSD.c **** 
 131:.\Generated_Source\PSoC5/CapSense_CSD.c **** const uint8 CYCODE CapSense_CSD_idacSettings[] = {
 132:.\Generated_Source\PSoC5/CapSense_CSD.c ****     100u,100u,150u,150u,150u,150u,150u,
 133:.\Generated_Source\PSoC5/CapSense_CSD.c **** };
 134:.\Generated_Source\PSoC5/CapSense_CSD.c **** 
 135:.\Generated_Source\PSoC5/CapSense_CSD.c **** const uint8 CYCODE CapSense_CSD_widgetResolution[] = {
 136:.\Generated_Source\PSoC5/CapSense_CSD.c ****     CapSense_CSD_PWM_RESOLUTION_10_BITS,
 137:.\Generated_Source\PSoC5/CapSense_CSD.c ****     CapSense_CSD_PWM_RESOLUTION_10_BITS,
 138:.\Generated_Source\PSoC5/CapSense_CSD.c ****     CapSense_CSD_PWM_RESOLUTION_10_BITS,
 139:.\Generated_Source\PSoC5/CapSense_CSD.c **** };
 140:.\Generated_Source\PSoC5/CapSense_CSD.c **** 
 141:.\Generated_Source\PSoC5/CapSense_CSD.c **** uint8 CapSense_CSD_AnalogSwitchDivider = 7u;
 142:.\Generated_Source\PSoC5/CapSense_CSD.c **** 
 143:.\Generated_Source\PSoC5/CapSense_CSD.c **** const uint8 CYCODE CapSense_CSD_widgetNumber[] = {
 144:.\Generated_Source\PSoC5/CapSense_CSD.c ****     1u, /* Button0__BTN */
 145:.\Generated_Source\PSoC5/CapSense_CSD.c ****     2u, /* Button1__BTN */
 146:.\Generated_Source\PSoC5/CapSense_CSD.c ****     0u, 0u, 0u, 0u, 0u, /* LinearSlider0__LS */
 147:.\Generated_Source\PSoC5/CapSense_CSD.c ****     
 148:.\Generated_Source\PSoC5/CapSense_CSD.c **** };
 149:.\Generated_Source\PSoC5/CapSense_CSD.c **** 
 150:.\Generated_Source\PSoC5/CapSense_CSD.c **** 
 151:.\Generated_Source\PSoC5/CapSense_CSD.c **** 
 152:.\Generated_Source\PSoC5/CapSense_CSD.c **** 
 153:.\Generated_Source\PSoC5/CapSense_CSD.c **** /*******************************************************************************
 154:.\Generated_Source\PSoC5/CapSense_CSD.c **** * Function Name: CapSense_CSD_Init
 155:.\Generated_Source\PSoC5/CapSense_CSD.c **** ********************************************************************************
 156:.\Generated_Source\PSoC5/CapSense_CSD.c **** *
 157:.\Generated_Source\PSoC5/CapSense_CSD.c **** * Summary:
 158:.\Generated_Source\PSoC5/CapSense_CSD.c **** *  Inits default CapSense configuration provided with customizer that defines 
 159:.\Generated_Source\PSoC5/CapSense_CSD.c **** *  mode of component operations and resets all sensors to an inactive state.
 160:.\Generated_Source\PSoC5/CapSense_CSD.c **** *
 161:.\Generated_Source\PSoC5/CapSense_CSD.c **** * Parameters:
 162:.\Generated_Source\PSoC5/CapSense_CSD.c **** *  None
 163:.\Generated_Source\PSoC5/CapSense_CSD.c **** *
 164:.\Generated_Source\PSoC5/CapSense_CSD.c **** * Return:
 165:.\Generated_Source\PSoC5/CapSense_CSD.c **** *  None
 166:.\Generated_Source\PSoC5/CapSense_CSD.c **** *
 167:.\Generated_Source\PSoC5/CapSense_CSD.c **** *******************************************************************************/
 168:.\Generated_Source\PSoC5/CapSense_CSD.c **** void CapSense_CSD_Init(void) 
 169:.\Generated_Source\PSoC5/CapSense_CSD.c **** {
 150              		.loc 1 169 0
 151              		.cfi_startproc
 152              		@ args = 0, pretend = 0, frame = 8
 153              		@ frame_needed = 1, uses_anonymous_args = 0
 154 0000 80B5     		push	{r7, lr}
 155              	.LCFI0:
 156              		.cfi_def_cfa_offset 8
 157 0002 82B0     		sub	sp, sp, #8
 158              	.LCFI1:
 159              		.cfi_def_cfa_offset 16
 160 0004 00AF     		add	r7, sp, #0
 161              		.cfi_offset 14, -4
 162              		.cfi_offset 7, -8
 163              	.LCFI2:
 164              		.cfi_def_cfa_register 7
 170:.\Generated_Source\PSoC5/CapSense_CSD.c ****     #if ( (CapSense_CSD_PRS_OPTIONS) || \
 171:.\Generated_Source\PSoC5/CapSense_CSD.c ****           (CapSense_CSD_IMPLEMENTATION_CH0 == CapSense_CSD_MEASURE_IMPLEMENTATION_UDB) || \
ARM GAS  C:\Users\yguan5\AppData\Local\Temp\ccDbifVx.s 			page 7


 172:.\Generated_Source\PSoC5/CapSense_CSD.c ****           ( (CapSense_CSD_DESIGN_TYPE == CapSense_CSD_TWO_CHANNELS_DESIGN) && \
 173:.\Generated_Source\PSoC5/CapSense_CSD.c ****             (CapSense_CSD_IMPLEMENTATION_CH1 == CapSense_CSD_MEASURE_IMPLEMENTATION_UDB)) )
 174:.\Generated_Source\PSoC5/CapSense_CSD.c ****         
 175:.\Generated_Source\PSoC5/CapSense_CSD.c ****         uint8 enableInterrupts;
 176:.\Generated_Source\PSoC5/CapSense_CSD.c ****     #endif /* ( (CapSense_CSD_PRS_OPTIONS) || \
 177:.\Generated_Source\PSoC5/CapSense_CSD.c ****            * (CapSense_CSD_IMPLEMENTATION_CH0 == CapSense_CSD_MEASURE_IMPLEMENTATION_UDB) || \
 178:.\Generated_Source\PSoC5/CapSense_CSD.c ****            * ( (CapSense_CSD_DESIGN_TYPE == CapSense_CSD_TWO_CHANNELS_DESIGN) && \
 179:.\Generated_Source\PSoC5/CapSense_CSD.c ****            * (CapSense_CSD_IMPLEMENTATION_CH1 == CapSense_CSD_MEASURE_IMPLEMENTATION_UDB)) ) 
 180:.\Generated_Source\PSoC5/CapSense_CSD.c ****            */
 181:.\Generated_Source\PSoC5/CapSense_CSD.c ****     
 182:.\Generated_Source\PSoC5/CapSense_CSD.c ****     /* Clear all sensors */
 183:.\Generated_Source\PSoC5/CapSense_CSD.c ****     CapSense_CSD_ClearSensors();
 165              		.loc 1 183 0
 166 0006 FFF7FEFF 		bl	CapSense_CSD_ClearSensors
 184:.\Generated_Source\PSoC5/CapSense_CSD.c **** 
 185:.\Generated_Source\PSoC5/CapSense_CSD.c ****     /* Set Prescaler */
 186:.\Generated_Source\PSoC5/CapSense_CSD.c ****     #if (CapSense_CSD_PRESCALER_OPTIONS == CapSense_CSD_PRESCALER_UDB)
 187:.\Generated_Source\PSoC5/CapSense_CSD.c ****         /* Do nothing = config without prescaler */
 188:.\Generated_Source\PSoC5/CapSense_CSD.c ****     #elif (CapSense_CSD_PRESCALER_OPTIONS == CapSense_CSD_PRESCALER_FF)
 189:.\Generated_Source\PSoC5/CapSense_CSD.c ****         CapSense_CSD_PRESCALER_CONTROL_REG   = (CapSense_CSD_PRESCALER_CTRL_ENABLE |
 190:.\Generated_Source\PSoC5/CapSense_CSD.c ****                                                     CapSense_CSD_PRESCALER_CTRL_MODE_CMP);
 191:.\Generated_Source\PSoC5/CapSense_CSD.c ****                                                
 192:.\Generated_Source\PSoC5/CapSense_CSD.c ****         CapSense_CSD_PRESCALER_CONTROL2_REG |= CapSense_CSD_PRESCALER_CTRL_CMP_LESS_EQ;
 193:.\Generated_Source\PSoC5/CapSense_CSD.c ****     #else
 194:.\Generated_Source\PSoC5/CapSense_CSD.c ****         /* Do nothing = config without prescaler */
 195:.\Generated_Source\PSoC5/CapSense_CSD.c ****     #endif  /* (CapSense_CSD_PRESCALER_OPTIONS == CapSense_CSD_PRESCALER_UDB) */
 196:.\Generated_Source\PSoC5/CapSense_CSD.c **** 
 197:.\Generated_Source\PSoC5/CapSense_CSD.c ****     /* Set PRS */
 198:.\Generated_Source\PSoC5/CapSense_CSD.c ****     #if (CapSense_CSD_PRS_OPTIONS)
 199:.\Generated_Source\PSoC5/CapSense_CSD.c ****         CapSense_CSD_SetAnalogSwitchesSource(CapSense_CSD_ANALOG_SWITCHES_SRC_PRS);
 200:.\Generated_Source\PSoC5/CapSense_CSD.c ****     #endif /* (CapSense_CSD_PRS_OPTIONS) */
 201:.\Generated_Source\PSoC5/CapSense_CSD.c **** 
 202:.\Generated_Source\PSoC5/CapSense_CSD.c ****     #if (CapSense_CSD_PRS_OPTIONS == CapSense_CSD_PRS_8BITS)
 203:.\Generated_Source\PSoC5/CapSense_CSD.c ****         /* Aux control set FIFO as REG */
 204:.\Generated_Source\PSoC5/CapSense_CSD.c ****         enableInterrupts = CyEnterCriticalSection();
 205:.\Generated_Source\PSoC5/CapSense_CSD.c ****         CapSense_CSD_AUX_CONTROL_A_REG |= CapSense_CSD_AUXCTRL_FIFO_SINGLE_REG;
 206:.\Generated_Source\PSoC5/CapSense_CSD.c ****         CyExitCriticalSection(enableInterrupts);
 207:.\Generated_Source\PSoC5/CapSense_CSD.c ****         
 208:.\Generated_Source\PSoC5/CapSense_CSD.c ****         /* Write polynomial */
 209:.\Generated_Source\PSoC5/CapSense_CSD.c ****         CapSense_CSD_POLYNOM_REG   = CapSense_CSD_PRS8_DEFAULT_POLYNOM;
 210:.\Generated_Source\PSoC5/CapSense_CSD.c ****         /* Write FIFO with seed */
 211:.\Generated_Source\PSoC5/CapSense_CSD.c ****         CapSense_CSD_SEED_COPY_REG = CapSense_CSD_MEASURE_FULL_RANGE_LOW;
 212:.\Generated_Source\PSoC5/CapSense_CSD.c ****         
 213:.\Generated_Source\PSoC5/CapSense_CSD.c ****     #elif (CapSense_CSD_PRS_OPTIONS == CapSense_CSD_PRS_16BITS)
 214:.\Generated_Source\PSoC5/CapSense_CSD.c ****         /* Aux control set FIFO as REG */ 
 215:.\Generated_Source\PSoC5/CapSense_CSD.c ****         enableInterrupts = CyEnterCriticalSection();  
 216:.\Generated_Source\PSoC5/CapSense_CSD.c ****         CapSense_CSD_AUX_CONTROL_A_REG |= CapSense_CSD_AUXCTRL_FIFO_SINGLE_REG;
 217:.\Generated_Source\PSoC5/CapSense_CSD.c ****         CapSense_CSD_AUX_CONTROL_B_REG |= CapSense_CSD_AUXCTRL_FIFO_SINGLE_REG;
 218:.\Generated_Source\PSoC5/CapSense_CSD.c ****         CyExitCriticalSection(enableInterrupts);
 219:.\Generated_Source\PSoC5/CapSense_CSD.c ****         
 220:.\Generated_Source\PSoC5/CapSense_CSD.c ****         /* Write polynomial */
 221:.\Generated_Source\PSoC5/CapSense_CSD.c ****         CY_SET_REG16(CapSense_CSD_POLYNOM_PTR, CapSense_CSD_PRS16_DEFAULT_POLYNOM);
 222:.\Generated_Source\PSoC5/CapSense_CSD.c ****         /* Write FIFO with seed */
 223:.\Generated_Source\PSoC5/CapSense_CSD.c ****         CY_SET_REG16(CapSense_CSD_SEED_COPY_PTR, CapSense_CSD_MEASURE_FULL_RANGE);
 224:.\Generated_Source\PSoC5/CapSense_CSD.c ****                 
 225:.\Generated_Source\PSoC5/CapSense_CSD.c ****     #elif (CapSense_CSD_PRS_OPTIONS == CapSense_CSD_PRS_16BITS_4X)
 226:.\Generated_Source\PSoC5/CapSense_CSD.c ****         /* Aux control set FIFO as REG */
ARM GAS  C:\Users\yguan5\AppData\Local\Temp\ccDbifVx.s 			page 8


 227:.\Generated_Source\PSoC5/CapSense_CSD.c ****         enableInterrupts = CyEnterCriticalSection();
 228:.\Generated_Source\PSoC5/CapSense_CSD.c ****         CapSense_CSD_AUX_CONTROL_A_REG  |= CapSense_CSD_AUXCTRL_FIFO_SINGLE_REG;
 229:.\Generated_Source\PSoC5/CapSense_CSD.c ****         CyExitCriticalSection(enableInterrupts);
 230:.\Generated_Source\PSoC5/CapSense_CSD.c ****         
 231:.\Generated_Source\PSoC5/CapSense_CSD.c ****         /* Write polynomial */
 232:.\Generated_Source\PSoC5/CapSense_CSD.c ****         CapSense_CSD_POLYNOM_A__D1_REG   = HI8(CapSense_CSD_PRS16_DEFAULT_POLYNOM);
 233:.\Generated_Source\PSoC5/CapSense_CSD.c ****         CapSense_CSD_POLYNOM_A__D0_REG   = LO8(CapSense_CSD_PRS16_DEFAULT_POLYNOM);
 234:.\Generated_Source\PSoC5/CapSense_CSD.c ****         /* Write FIFO with seed */
 235:.\Generated_Source\PSoC5/CapSense_CSD.c ****         CapSense_CSD_SEED_COPY_A__F1_REG = CapSense_CSD_MEASURE_FULL_RANGE_LOW;
 236:.\Generated_Source\PSoC5/CapSense_CSD.c ****         CapSense_CSD_SEED_COPY_A__F0_REG = CapSense_CSD_MEASURE_FULL_RANGE_LOW; 
 237:.\Generated_Source\PSoC5/CapSense_CSD.c ****         
 238:.\Generated_Source\PSoC5/CapSense_CSD.c ****     #else
 239:.\Generated_Source\PSoC5/CapSense_CSD.c ****         /* Do nothing = config without PRS */
 240:.\Generated_Source\PSoC5/CapSense_CSD.c ****     #endif  /* (CapSense_CSD_PRS_OPTIONS == CapSense_CSD_PRS_8BITS) */ 
 241:.\Generated_Source\PSoC5/CapSense_CSD.c ****     
 242:.\Generated_Source\PSoC5/CapSense_CSD.c ****     /* Set ScanSpeed */
 243:.\Generated_Source\PSoC5/CapSense_CSD.c ****     CapSense_CSD_SCANSPEED_PERIOD_REG = CapSense_CSD_SCANSPEED_VALUE;
 167              		.loc 1 243 0
 168 000a 46F28653 		movw	r3, #:lower16:1073767814
 169 000e C4F20003 		movt	r3, #:upper16:1073767814
 170 0012 4FF00702 		mov	r2, #7
 171 0016 1A70     		strb	r2, [r3, #0]
 244:.\Generated_Source\PSoC5/CapSense_CSD.c ****     
 245:.\Generated_Source\PSoC5/CapSense_CSD.c ****     /* Set the Measure */
 246:.\Generated_Source\PSoC5/CapSense_CSD.c ****     #if (CapSense_CSD_IMPLEMENTATION_CH0 == CapSense_CSD_MEASURE_IMPLEMENTATION_FF)
 247:.\Generated_Source\PSoC5/CapSense_CSD.c ****         /* Window PWM */
 248:.\Generated_Source\PSoC5/CapSense_CSD.c ****         CapSense_CSD_PWM_CH0_CONTROL_REG      = CapSense_CSD_MEASURE_CTRL_ENABLE;
 249:.\Generated_Source\PSoC5/CapSense_CSD.c ****         CapSense_CSD_PWM_CH0_CONTROL2_REG    |= CapSense_CSD_MEASURE_CTRL_PULSEWIDTH;
 250:.\Generated_Source\PSoC5/CapSense_CSD.c ****         CY_SET_REG16(CapSense_CSD_PWM_CH0_COUNTER_PTR, CapSense_CSD_MEASURE_FULL_RANGE);
 251:.\Generated_Source\PSoC5/CapSense_CSD.c ****         
 252:.\Generated_Source\PSoC5/CapSense_CSD.c ****         /* Raw Counter */
 253:.\Generated_Source\PSoC5/CapSense_CSD.c ****         CapSense_CSD_RAW_CH0_CONTROL_REG      = CapSense_CSD_MEASURE_CTRL_ENABLE;
 254:.\Generated_Source\PSoC5/CapSense_CSD.c ****         CapSense_CSD_RAW_CH0_CONTROL2_REG    |= CapSense_CSD_MEASURE_CTRL_PULSEWIDTH;
 255:.\Generated_Source\PSoC5/CapSense_CSD.c ****         CY_SET_REG16(CapSense_CSD_RAW_CH0_PERIOD_PTR, CapSense_CSD_MEASURE_FULL_RANGE);
 256:.\Generated_Source\PSoC5/CapSense_CSD.c ****     
 257:.\Generated_Source\PSoC5/CapSense_CSD.c ****     #else
 258:.\Generated_Source\PSoC5/CapSense_CSD.c ****         /*Window PWM and Raw Counter AUX set */
 259:.\Generated_Source\PSoC5/CapSense_CSD.c ****         enableInterrupts = CyEnterCriticalSection();
 172              		.loc 1 259 0
 173 0018 FFF7FEFF 		bl	CyEnterCriticalSection
 174 001c 0346     		mov	r3, r0
 175 001e FB71     		strb	r3, [r7, #7]
 260:.\Generated_Source\PSoC5/CapSense_CSD.c ****         CapSense_CSD_PWM_CH0_AUX_CONTROL_REG |= CapSense_CSD_AUXCTRL_FIFO_SINGLE_REG;
 176              		.loc 1 260 0
 177 0020 46F29753 		movw	r3, #:lower16:1073767831
 178 0024 C4F20003 		movt	r3, #:upper16:1073767831
 179 0028 46F29752 		movw	r2, #:lower16:1073767831
 180 002c C4F20002 		movt	r2, #:upper16:1073767831
 181 0030 1278     		ldrb	r2, [r2, #0]
 182 0032 D2B2     		uxtb	r2, r2
 183 0034 42F00302 		orr	r2, r2, #3
 184 0038 D2B2     		uxtb	r2, r2
 185 003a 1A70     		strb	r2, [r3, #0]
 261:.\Generated_Source\PSoC5/CapSense_CSD.c ****         CapSense_CSD_RAW_CH0_AUX_CONTROL_REG |= CapSense_CSD_AUXCTRL_FIFO_SINGLE_REG;
 186              		.loc 1 261 0
 187 003c 46F29343 		movw	r3, #:lower16:1073767571
 188 0040 C4F20003 		movt	r3, #:upper16:1073767571
ARM GAS  C:\Users\yguan5\AppData\Local\Temp\ccDbifVx.s 			page 9


 189 0044 46F29342 		movw	r2, #:lower16:1073767571
 190 0048 C4F20002 		movt	r2, #:upper16:1073767571
 191 004c 1278     		ldrb	r2, [r2, #0]
 192 004e D2B2     		uxtb	r2, r2
 193 0050 42F00302 		orr	r2, r2, #3
 194 0054 D2B2     		uxtb	r2, r2
 195 0056 1A70     		strb	r2, [r3, #0]
 262:.\Generated_Source\PSoC5/CapSense_CSD.c ****         CyExitCriticalSection(enableInterrupts);
 196              		.loc 1 262 0
 197 0058 FB79     		ldrb	r3, [r7, #7]	@ zero_extendqisi2
 198 005a 1846     		mov	r0, r3
 199 005c FFF7FEFF 		bl	CyExitCriticalSection
 263:.\Generated_Source\PSoC5/CapSense_CSD.c ****         
 264:.\Generated_Source\PSoC5/CapSense_CSD.c ****         /* Window PWM */
 265:.\Generated_Source\PSoC5/CapSense_CSD.c ****         CapSense_CSD_PWM_CH0_ADD_VALUE_REG    = CapSense_CSD_MEASURE_FULL_RANGE_LOW;
 200              		.loc 1 265 0
 201 0060 46F22753 		movw	r3, #:lower16:1073767719
 202 0064 C4F20003 		movt	r3, #:upper16:1073767719
 203 0068 4FF0FF32 		mov	r2, #-1
 204 006c 1A70     		strb	r2, [r3, #0]
 266:.\Generated_Source\PSoC5/CapSense_CSD.c ****         CapSense_CSD_PWM_CH0_PERIOD_LO_REG    = CapSense_CSD_MEASURE_FULL_RANGE_LOW;
 205              		.loc 1 266 0
 206 006e 46F24753 		movw	r3, #:lower16:1073767751
 207 0072 C4F20003 		movt	r3, #:upper16:1073767751
 208 0076 4FF0FF32 		mov	r2, #-1
 209 007a 1A70     		strb	r2, [r3, #0]
 267:.\Generated_Source\PSoC5/CapSense_CSD.c ****         CapSense_CSD_PWM_CH0_COUNTER_LO_REG   = CapSense_CSD_MEASURE_FULL_RANGE_LOW;
 210              		.loc 1 267 0
 211 007c 46F20753 		movw	r3, #:lower16:1073767687
 212 0080 C4F20003 		movt	r3, #:upper16:1073767687
 213 0084 4FF0FF32 		mov	r2, #-1
 214 0088 1A70     		strb	r2, [r3, #0]
 268:.\Generated_Source\PSoC5/CapSense_CSD.c ****         
 269:.\Generated_Source\PSoC5/CapSense_CSD.c ****         /* Raw Counter */
 270:.\Generated_Source\PSoC5/CapSense_CSD.c ****         CapSense_CSD_RAW_CH0_ADD_VALUE_REG    = CapSense_CSD_MEASURE_FULL_RANGE_LOW;
 215              		.loc 1 270 0
 216 008a 46F22343 		movw	r3, #:lower16:1073767459
 217 008e C4F20003 		movt	r3, #:upper16:1073767459
 218 0092 4FF0FF32 		mov	r2, #-1
 219 0096 1A70     		strb	r2, [r3, #0]
 271:.\Generated_Source\PSoC5/CapSense_CSD.c ****         CapSense_CSD_RAW_CH0_PERIOD_HI_REG    = CapSense_CSD_MEASURE_FULL_RANGE_LOW;
 220              		.loc 1 271 0
 221 0098 46F25343 		movw	r3, #:lower16:1073767507
 222 009c C4F20003 		movt	r3, #:upper16:1073767507
 223 00a0 4FF0FF32 		mov	r2, #-1
 224 00a4 1A70     		strb	r2, [r3, #0]
 272:.\Generated_Source\PSoC5/CapSense_CSD.c ****         CapSense_CSD_RAW_CH0_PERIOD_LO_REG    = CapSense_CSD_MEASURE_FULL_RANGE_LOW;
 225              		.loc 1 272 0
 226 00a6 46F24343 		movw	r3, #:lower16:1073767491
 227 00aa C4F20003 		movt	r3, #:upper16:1073767491
 228 00ae 4FF0FF32 		mov	r2, #-1
 229 00b2 1A70     		strb	r2, [r3, #0]
 273:.\Generated_Source\PSoC5/CapSense_CSD.c ****         
 274:.\Generated_Source\PSoC5/CapSense_CSD.c ****     #endif  /* (CapSense_CSD_IMPLEMENTATION_CH0 == CapSense_CSD_MEASURE_IMPLEMENTATION_FF) */ 
 275:.\Generated_Source\PSoC5/CapSense_CSD.c ****     
 276:.\Generated_Source\PSoC5/CapSense_CSD.c ****     #if (CapSense_CSD_DESIGN_TYPE == CapSense_CSD_TWO_CHANNELS_DESIGN)
 277:.\Generated_Source\PSoC5/CapSense_CSD.c ****         #if (CapSense_CSD_IMPLEMENTATION_CH1 == CapSense_CSD_MEASURE_IMPLEMENTATION_FF)
ARM GAS  C:\Users\yguan5\AppData\Local\Temp\ccDbifVx.s 			page 10


 278:.\Generated_Source\PSoC5/CapSense_CSD.c ****             /* Window PWM */
 279:.\Generated_Source\PSoC5/CapSense_CSD.c ****             CapSense_CSD_PWM_CH1_CONTROL_REG      = CapSense_CSD_MEASURE_CTRL_ENABLE;
 280:.\Generated_Source\PSoC5/CapSense_CSD.c ****             CapSense_CSD_PWM_CH1_CONTROL2_REG    |= CapSense_CSD_MEASURE_CTRL_PULSEWIDTH;
 281:.\Generated_Source\PSoC5/CapSense_CSD.c ****             CY_SET_REG16(CapSense_CSD_PWM_CH1_COUNTER_PTR, CapSense_CSD_MEASURE_FULL_RANGE);
 282:.\Generated_Source\PSoC5/CapSense_CSD.c ****             
 283:.\Generated_Source\PSoC5/CapSense_CSD.c ****             /* Raw Counter */
 284:.\Generated_Source\PSoC5/CapSense_CSD.c ****             CapSense_CSD_RAW_CH1_CONTROL_REG      = CapSense_CSD_MEASURE_CTRL_ENABLE;
 285:.\Generated_Source\PSoC5/CapSense_CSD.c ****             CapSense_CSD_RAW_CH1_CONTROL2_REG    |= CapSense_CSD_MEASURE_CTRL_PULSEWIDTH;
 286:.\Generated_Source\PSoC5/CapSense_CSD.c ****             CY_SET_REG16(CapSense_CSD_RAW_CH1_PERIOD_PTR, CapSense_CSD_MEASURE_FULL_RANGE);
 287:.\Generated_Source\PSoC5/CapSense_CSD.c ****            
 288:.\Generated_Source\PSoC5/CapSense_CSD.c ****         #else
 289:.\Generated_Source\PSoC5/CapSense_CSD.c ****             /*Window PWM and Raw Counter AUX set */
 290:.\Generated_Source\PSoC5/CapSense_CSD.c ****             enableInterrupts = CyEnterCriticalSection();
 291:.\Generated_Source\PSoC5/CapSense_CSD.c ****             CapSense_CSD_PWM_CH1_AUX_CONTROL_REG |= CapSense_CSD_AUXCTRL_FIFO_SINGLE_REG;
 292:.\Generated_Source\PSoC5/CapSense_CSD.c ****             CapSense_CSD_RAW_CH1_AUX_CONTROL_REG |= CapSense_CSD_AUXCTRL_FIFO_SINGLE_REG;
 293:.\Generated_Source\PSoC5/CapSense_CSD.c ****             CyExitCriticalSection(enableInterrupts);
 294:.\Generated_Source\PSoC5/CapSense_CSD.c ****             
 295:.\Generated_Source\PSoC5/CapSense_CSD.c ****             /* Window PWM */
 296:.\Generated_Source\PSoC5/CapSense_CSD.c ****             CapSense_CSD_PWM_CH1_ADD_VALUE_REG    = CapSense_CSD_MEASURE_FULL_RANGE_LOW;
 297:.\Generated_Source\PSoC5/CapSense_CSD.c ****             CapSense_CSD_PWM_CH1_PERIOD_LO_REG    = CapSense_CSD_MEASURE_FULL_RANGE_LOW;
 298:.\Generated_Source\PSoC5/CapSense_CSD.c ****             CapSense_CSD_PWM_CH1_COUNTER_LO_REG   = CapSense_CSD_MEASURE_FULL_RANGE_LOW;
 299:.\Generated_Source\PSoC5/CapSense_CSD.c ****             
 300:.\Generated_Source\PSoC5/CapSense_CSD.c ****             /* Raw Counter */
 301:.\Generated_Source\PSoC5/CapSense_CSD.c ****             
 302:.\Generated_Source\PSoC5/CapSense_CSD.c ****             CapSense_CSD_RAW_CH1_ADD_VALUE_REG    = CapSense_CSD_MEASURE_FULL_RANGE_LOW;
 303:.\Generated_Source\PSoC5/CapSense_CSD.c ****             CapSense_CSD_RAW_CH1_PERIOD_HI_REG    = CapSense_CSD_MEASURE_FULL_RANGE_LOW;
 304:.\Generated_Source\PSoC5/CapSense_CSD.c ****             CapSense_CSD_RAW_CH1_PERIOD_LO_REG    = CapSense_CSD_MEASURE_FULL_RANGE_LOW;
 305:.\Generated_Source\PSoC5/CapSense_CSD.c ****             
 306:.\Generated_Source\PSoC5/CapSense_CSD.c ****         #endif  /* (CapSense_CSD_IMPLEMENTATION_CH1 == CapSense_CSD_MEASURE_IMPLEMENTATION_FF) */
 307:.\Generated_Source\PSoC5/CapSense_CSD.c ****     
 308:.\Generated_Source\PSoC5/CapSense_CSD.c ****     #endif  /* (CapSense_CSD_DESIGN_TYPE == TWO_CHANNELS_DESIGN) */
 309:.\Generated_Source\PSoC5/CapSense_CSD.c ****     
 310:.\Generated_Source\PSoC5/CapSense_CSD.c ****     /* Setup ISR */
 311:.\Generated_Source\PSoC5/CapSense_CSD.c ****     CyIntDisable(CapSense_CSD_IsrCH0_ISR_NUMBER);
 230              		.loc 1 311 0
 231 00b4 4EF28013 		movw	r3, #:lower16:-536813184
 232 00b8 CEF20003 		movt	r3, #:upper16:-536813184
 233 00bc 4FF00102 		mov	r2, #1
 234 00c0 1A60     		str	r2, [r3, #0]
 312:.\Generated_Source\PSoC5/CapSense_CSD.c ****     CyIntSetVector(CapSense_CSD_IsrCH0_ISR_NUMBER, CapSense_CSD_IsrCH0_ISR);
 235              		.loc 1 312 0
 236 00c2 4FF00000 		mov	r0, #0
 237 00c6 40F20001 		movw	r1, #:lower16:CapSense_CSD_IsrCH0_ISR
 238 00ca C0F20001 		movt	r1, #:upper16:CapSense_CSD_IsrCH0_ISR
 239 00ce FFF7FEFF 		bl	CyIntSetVector
 313:.\Generated_Source\PSoC5/CapSense_CSD.c ****     CyIntSetPriority(CapSense_CSD_IsrCH0_ISR_NUMBER, CapSense_CSD_IsrCH0_ISR_PRIORITY);
 240              		.loc 1 313 0
 241 00d2 4FF00000 		mov	r0, #0
 242 00d6 4FF00701 		mov	r1, #7
 243 00da FFF7FEFF 		bl	CyIntSetPriority
 314:.\Generated_Source\PSoC5/CapSense_CSD.c ****     
 315:.\Generated_Source\PSoC5/CapSense_CSD.c ****     #if (CapSense_CSD_DESIGN_TYPE == CapSense_CSD_TWO_CHANNELS_DESIGN)
 316:.\Generated_Source\PSoC5/CapSense_CSD.c ****         CyIntDisable(CapSense_CSD_IsrCH1_ISR_NUMBER);
 317:.\Generated_Source\PSoC5/CapSense_CSD.c ****         CyIntSetVector(CapSense_CSD_IsrCH1_ISR_NUMBER, CapSense_CSD_IsrCH1_ISR);
 318:.\Generated_Source\PSoC5/CapSense_CSD.c ****         CyIntSetPriority(CapSense_CSD_IsrCH1_ISR_NUMBER, CapSense_CSD_IsrCH1_ISR_PRIORITY);
 319:.\Generated_Source\PSoC5/CapSense_CSD.c ****     #endif  /* CapSense_CSD_DESIGN_TYPE */
 320:.\Generated_Source\PSoC5/CapSense_CSD.c ****     
ARM GAS  C:\Users\yguan5\AppData\Local\Temp\ccDbifVx.s 			page 11


 321:.\Generated_Source\PSoC5/CapSense_CSD.c ****     /* Setup AMux Bus: Connect Cmod, Cmp, Idac */
 322:.\Generated_Source\PSoC5/CapSense_CSD.c ****     CapSense_CSD_AMuxCH0_Init();
 244              		.loc 1 322 0
 245 00de FFF7FEFF 		bl	CapSense_CSD_AMuxCH0_Init
 323:.\Generated_Source\PSoC5/CapSense_CSD.c ****     CapSense_CSD_AMuxCH0_Connect(CapSense_CSD_AMuxCH0_CMOD_CHANNEL);
 246              		.loc 1 323 0
 247 00e2 4FF00700 		mov	r0, #7
 248 00e6 FFF7FEFF 		bl	CapSense_CSD_AMuxCH0_Set
 324:.\Generated_Source\PSoC5/CapSense_CSD.c ****     CapSense_CSD_AMuxCH0_Connect(CapSense_CSD_AMuxCH0_CMP_VP_CHANNEL);
 249              		.loc 1 324 0
 250 00ea 4FF00800 		mov	r0, #8
 251 00ee FFF7FEFF 		bl	CapSense_CSD_AMuxCH0_Set
 325:.\Generated_Source\PSoC5/CapSense_CSD.c ****     #if (CapSense_CSD_CURRENT_SOURCE)
 326:.\Generated_Source\PSoC5/CapSense_CSD.c ****         CapSense_CSD_AMuxCH0_Connect(CapSense_CSD_AMuxCH0_IDAC_CHANNEL);
 252              		.loc 1 326 0
 253 00f2 4FF00900 		mov	r0, #9
 254 00f6 FFF7FEFF 		bl	CapSense_CSD_AMuxCH0_Set
 327:.\Generated_Source\PSoC5/CapSense_CSD.c ****     #endif  /* CapSense_CSD_CURRENT_SOURCE */
 328:.\Generated_Source\PSoC5/CapSense_CSD.c ****     
 329:.\Generated_Source\PSoC5/CapSense_CSD.c ****     #if (CapSense_CSD_DESIGN_TYPE == CapSense_CSD_TWO_CHANNELS_DESIGN) 
 330:.\Generated_Source\PSoC5/CapSense_CSD.c ****         CapSense_CSD_AMuxCH1_Init();
 331:.\Generated_Source\PSoC5/CapSense_CSD.c ****         CapSense_CSD_AMuxCH1_Connect(CapSense_CSD_AMuxCH1_CMOD_CHANNEL);
 332:.\Generated_Source\PSoC5/CapSense_CSD.c ****         CapSense_CSD_AMuxCH1_Connect(CapSense_CSD_AMuxCH1_CMP_VP_CHANNEL);
 333:.\Generated_Source\PSoC5/CapSense_CSD.c ****         #if (CapSense_CSD_CURRENT_SOURCE)
 334:.\Generated_Source\PSoC5/CapSense_CSD.c ****             CapSense_CSD_AMuxCH1_Connect(CapSense_CSD_AMuxCH1_IDAC_CHANNEL);
 335:.\Generated_Source\PSoC5/CapSense_CSD.c ****         #endif  /* CapSense_CSD_CURRENT_SOURCE */
 336:.\Generated_Source\PSoC5/CapSense_CSD.c ****     #endif  /* CapSense_CSD_DESIGN_TYPE */
 337:.\Generated_Source\PSoC5/CapSense_CSD.c ****     
 338:.\Generated_Source\PSoC5/CapSense_CSD.c ****     /* Int Rb */
 339:.\Generated_Source\PSoC5/CapSense_CSD.c ****     #if (CapSense_CSD_CURRENT_SOURCE == CapSense_CSD_EXTERNAL_RB)
 340:.\Generated_Source\PSoC5/CapSense_CSD.c ****         CapSense_CSD_InitRb();
 341:.\Generated_Source\PSoC5/CapSense_CSD.c ****     #endif /* (CapSense_CSD_CURRENT_SOURCE == CapSense_CSD_EXTERNAL_RB) */
 342:.\Generated_Source\PSoC5/CapSense_CSD.c ****     
 343:.\Generated_Source\PSoC5/CapSense_CSD.c ****     /* Enable window generation */
 344:.\Generated_Source\PSoC5/CapSense_CSD.c ****     CapSense_CSD_CONTROL_REG |= CapSense_CSD_CTRL_WINDOW_EN__CH0;
 255              		.loc 1 344 0
 256 00fa 46F27743 		movw	r3, #:lower16:1073767543
 257 00fe C4F20003 		movt	r3, #:upper16:1073767543
 258 0102 46F27742 		movw	r2, #:lower16:1073767543
 259 0106 C4F20002 		movt	r2, #:upper16:1073767543
 260 010a 1278     		ldrb	r2, [r2, #0]
 261 010c D2B2     		uxtb	r2, r2
 262 010e 42F00402 		orr	r2, r2, #4
 263 0112 D2B2     		uxtb	r2, r2
 264 0114 1A70     		strb	r2, [r3, #0]
 345:.\Generated_Source\PSoC5/CapSense_CSD.c ****     #if (CapSense_CSD_DESIGN_TYPE == CapSense_CSD_TWO_CHANNELS_DESIGN)
 346:.\Generated_Source\PSoC5/CapSense_CSD.c ****         CapSense_CSD_CONTROL_REG |= CapSense_CSD_CTRL_WINDOW_EN__CH1;
 347:.\Generated_Source\PSoC5/CapSense_CSD.c ****     #endif  /* CapSense_CSD_DESIGN_TYPE */
 348:.\Generated_Source\PSoC5/CapSense_CSD.c ****     
 349:.\Generated_Source\PSoC5/CapSense_CSD.c ****     /* Initialize Cmp and Idac */
 350:.\Generated_Source\PSoC5/CapSense_CSD.c ****     CapSense_CSD_CompCH0_Init();
 265              		.loc 1 350 0
 266 0116 FFF7FEFF 		bl	CapSense_CSD_CompCH0_Init
 351:.\Generated_Source\PSoC5/CapSense_CSD.c ****     #if (CapSense_CSD_CURRENT_SOURCE)
 352:.\Generated_Source\PSoC5/CapSense_CSD.c ****         CapSense_CSD_IdacCH0_Init();
 267              		.loc 1 352 0
 268 011a FFF7FEFF 		bl	CapSense_CSD_IdacCH0_Init
ARM GAS  C:\Users\yguan5\AppData\Local\Temp\ccDbifVx.s 			page 12


 353:.\Generated_Source\PSoC5/CapSense_CSD.c ****         CapSense_CSD_IdacCH0_SetPolarity(CapSense_CSD_IdacCH0_IDIR);
 269              		.loc 1 353 0
 270 011e 4FF00000 		mov	r0, #0
 271 0122 FFF7FEFF 		bl	CapSense_CSD_IdacCH0_SetPolarity
 354:.\Generated_Source\PSoC5/CapSense_CSD.c ****         CapSense_CSD_IdacCH0_SetRange(CapSense_CSD_IDAC_RANGE_VALUE);
 272              		.loc 1 354 0
 273 0126 4FF00400 		mov	r0, #4
 274 012a FFF7FEFF 		bl	CapSense_CSD_IdacCH0_SetRange
 355:.\Generated_Source\PSoC5/CapSense_CSD.c ****         CapSense_CSD_IdacCH0_SetValue(CapSense_CSD_TURN_OFF_IDAC);
 275              		.loc 1 355 0
 276 012e 4FF00000 		mov	r0, #0
 277 0132 FFF7FEFF 		bl	CapSense_CSD_IdacCH0_SetValue
 356:.\Generated_Source\PSoC5/CapSense_CSD.c ****     #endif  /* CapSense_CSD_CURRENT_SOURCE */
 357:.\Generated_Source\PSoC5/CapSense_CSD.c ****     
 358:.\Generated_Source\PSoC5/CapSense_CSD.c ****     #if (CapSense_CSD_DESIGN_TYPE == CapSense_CSD_TWO_CHANNELS_DESIGN) 
 359:.\Generated_Source\PSoC5/CapSense_CSD.c ****         CapSense_CSD_CompCH1_Init();
 360:.\Generated_Source\PSoC5/CapSense_CSD.c ****         #if (CapSense_CSD_CURRENT_SOURCE)
 361:.\Generated_Source\PSoC5/CapSense_CSD.c ****             CapSense_CSD_IdacCH1_Init();
 362:.\Generated_Source\PSoC5/CapSense_CSD.c ****             CapSense_CSD_IdacCH1_SetPolarity(CapSense_CSD_IdacCH1_IDIR);
 363:.\Generated_Source\PSoC5/CapSense_CSD.c ****             CapSense_CSD_IdacCH1_SetRange(CapSense_CSD_IDAC_RANGE_VALUE);
 364:.\Generated_Source\PSoC5/CapSense_CSD.c ****             CapSense_CSD_IdacCH1_SetValue(CapSense_CSD_TURN_OFF_IDAC);
 365:.\Generated_Source\PSoC5/CapSense_CSD.c ****         #endif  /* CapSense_CSD_CURRENT_SOURCE */
 366:.\Generated_Source\PSoC5/CapSense_CSD.c ****     #endif  /* CapSense_CSD_DESIGN_TYPE */
 367:.\Generated_Source\PSoC5/CapSense_CSD.c ****     
 368:.\Generated_Source\PSoC5/CapSense_CSD.c ****     /* Initialize Vref if as VDAC */
 369:.\Generated_Source\PSoC5/CapSense_CSD.c ****     #if (CapSense_CSD_VREF_OPTIONS == CapSense_CSD_VREF_VDAC)
 370:.\Generated_Source\PSoC5/CapSense_CSD.c ****         CapSense_CSD_VdacRefCH0_Init();
 371:.\Generated_Source\PSoC5/CapSense_CSD.c ****         #if (CapSense_CSD_DESIGN_TYPE == CapSense_CSD_TWO_CHANNELS_DESIGN)
 372:.\Generated_Source\PSoC5/CapSense_CSD.c ****             CapSense_CSD_VdacRefCH1_Init();
 373:.\Generated_Source\PSoC5/CapSense_CSD.c ****         #endif  /* CapSense_CSD_DESIGN_TYPE */
 374:.\Generated_Source\PSoC5/CapSense_CSD.c ****     #endif  /* CapSense_CSD_VREF_OPTIONS */
 375:.\Generated_Source\PSoC5/CapSense_CSD.c **** }
 278              		.loc 1 375 0
 279 0136 07F10807 		add	r7, r7, #8
 280 013a BD46     		mov	sp, r7
 281 013c 80BD     		pop	{r7, pc}
 282              		.cfi_endproc
 283              	.LFE0:
 284              		.size	CapSense_CSD_Init, .-CapSense_CSD_Init
 285 013e 00BF     		.section	.text.CapSense_CSD_Enable,"ax",%progbits
 286              		.align	2
 287              		.global	CapSense_CSD_Enable
 288              		.thumb
 289              		.thumb_func
 290              		.type	CapSense_CSD_Enable, %function
 291              	CapSense_CSD_Enable:
 292              	.LFB1:
 376:.\Generated_Source\PSoC5/CapSense_CSD.c **** 
 377:.\Generated_Source\PSoC5/CapSense_CSD.c **** 
 378:.\Generated_Source\PSoC5/CapSense_CSD.c **** /*******************************************************************************
 379:.\Generated_Source\PSoC5/CapSense_CSD.c **** * Function Name: CapSense_CSD_Enable
 380:.\Generated_Source\PSoC5/CapSense_CSD.c **** ********************************************************************************
 381:.\Generated_Source\PSoC5/CapSense_CSD.c **** *
 382:.\Generated_Source\PSoC5/CapSense_CSD.c **** * Summary:
 383:.\Generated_Source\PSoC5/CapSense_CSD.c **** *  Enables active mode power template bits for number of component used within 
 384:.\Generated_Source\PSoC5/CapSense_CSD.c **** *  CapSense.
 385:.\Generated_Source\PSoC5/CapSense_CSD.c **** *
ARM GAS  C:\Users\yguan5\AppData\Local\Temp\ccDbifVx.s 			page 13


 386:.\Generated_Source\PSoC5/CapSense_CSD.c **** * Parameters:
 387:.\Generated_Source\PSoC5/CapSense_CSD.c **** *  None
 388:.\Generated_Source\PSoC5/CapSense_CSD.c **** *
 389:.\Generated_Source\PSoC5/CapSense_CSD.c **** * Return:
 390:.\Generated_Source\PSoC5/CapSense_CSD.c **** *  None
 391:.\Generated_Source\PSoC5/CapSense_CSD.c **** *
 392:.\Generated_Source\PSoC5/CapSense_CSD.c **** *******************************************************************************/
 393:.\Generated_Source\PSoC5/CapSense_CSD.c **** void CapSense_CSD_Enable(void) 
 394:.\Generated_Source\PSoC5/CapSense_CSD.c **** {
 293              		.loc 1 394 0
 294              		.cfi_startproc
 295              		@ args = 0, pretend = 0, frame = 8
 296              		@ frame_needed = 1, uses_anonymous_args = 0
 297 0000 80B5     		push	{r7, lr}
 298              	.LCFI3:
 299              		.cfi_def_cfa_offset 8
 300 0002 82B0     		sub	sp, sp, #8
 301              	.LCFI4:
 302              		.cfi_def_cfa_offset 16
 303 0004 00AF     		add	r7, sp, #0
 304              		.cfi_offset 14, -4
 305              		.cfi_offset 7, -8
 306              	.LCFI5:
 307              		.cfi_def_cfa_register 7
 395:.\Generated_Source\PSoC5/CapSense_CSD.c ****     uint8 enableInterrupts;
 396:.\Generated_Source\PSoC5/CapSense_CSD.c ****     
 397:.\Generated_Source\PSoC5/CapSense_CSD.c ****     enableInterrupts = CyEnterCriticalSection();
 308              		.loc 1 397 0
 309 0006 FFF7FEFF 		bl	CyEnterCriticalSection
 310 000a 0346     		mov	r3, r0
 311 000c FB71     		strb	r3, [r7, #7]
 398:.\Generated_Source\PSoC5/CapSense_CSD.c ****     
 399:.\Generated_Source\PSoC5/CapSense_CSD.c ****     /* Enable Prescaler */
 400:.\Generated_Source\PSoC5/CapSense_CSD.c ****     #if (CapSense_CSD_PRESCALER_OPTIONS == CapSense_CSD_PRESCALER_UDB)
 401:.\Generated_Source\PSoC5/CapSense_CSD.c ****         /* Do nothing  for UDB */
 402:.\Generated_Source\PSoC5/CapSense_CSD.c ****     #elif (CapSense_CSD_PRESCALER_OPTIONS == CapSense_CSD_PRESCALER_FF)
 403:.\Generated_Source\PSoC5/CapSense_CSD.c ****         CapSense_CSD_PRESCALER_ACT_PWRMGR_REG  |= CapSense_CSD_PRESCALER_ACT_PWR_EN;
 404:.\Generated_Source\PSoC5/CapSense_CSD.c ****         CapSense_CSD_PRESCALER_STBY_PWRMGR_REG |= CapSense_CSD_PRESCALER_STBY_PWR_EN;
 405:.\Generated_Source\PSoC5/CapSense_CSD.c ****         
 406:.\Generated_Source\PSoC5/CapSense_CSD.c ****     #else
 407:.\Generated_Source\PSoC5/CapSense_CSD.c ****         /* Do nothing = config without prescaler */
 408:.\Generated_Source\PSoC5/CapSense_CSD.c ****     #endif  /* (CapSense_CSD_PRESCALER_OPTIONS == CapSense_CSD_PRESCALER_UDB) */
 409:.\Generated_Source\PSoC5/CapSense_CSD.c ****     
 410:.\Generated_Source\PSoC5/CapSense_CSD.c ****     /* Enable ScanSpeed */
 411:.\Generated_Source\PSoC5/CapSense_CSD.c ****     CapSense_CSD_SCANSPEED_AUX_CONTROL_REG |= CapSense_CSD_SCANSPEED_CTRL_ENABLE;
 312              		.loc 1 411 0
 313 000e 46F29653 		movw	r3, #:lower16:1073767830
 314 0012 C4F20003 		movt	r3, #:upper16:1073767830
 315 0016 46F29652 		movw	r2, #:lower16:1073767830
 316 001a C4F20002 		movt	r2, #:upper16:1073767830
 317 001e 1278     		ldrb	r2, [r2, #0]
 318 0020 D2B2     		uxtb	r2, r2
 319 0022 42F02002 		orr	r2, r2, #32
 320 0026 D2B2     		uxtb	r2, r2
 321 0028 1A70     		strb	r2, [r3, #0]
 412:.\Generated_Source\PSoC5/CapSense_CSD.c ****     
 413:.\Generated_Source\PSoC5/CapSense_CSD.c ****     /* Enable Measure CH0 */
ARM GAS  C:\Users\yguan5\AppData\Local\Temp\ccDbifVx.s 			page 14


 414:.\Generated_Source\PSoC5/CapSense_CSD.c ****     #if (CapSense_CSD_IMPLEMENTATION_CH0 == CapSense_CSD_MEASURE_IMPLEMENTATION_FF)
 415:.\Generated_Source\PSoC5/CapSense_CSD.c ****         /* Window PWM */
 416:.\Generated_Source\PSoC5/CapSense_CSD.c ****         CapSense_CSD_PWM_CH0_ACT_PWRMGR_REG  |= CapSense_CSD_PWM_CH0_ACT_PWR_EN;
 417:.\Generated_Source\PSoC5/CapSense_CSD.c ****         CapSense_CSD_PWM_CH0_STBY_PWRMGR_REG |= CapSense_CSD_PWM_CH0_STBY_PWR_EN;
 418:.\Generated_Source\PSoC5/CapSense_CSD.c ****         
 419:.\Generated_Source\PSoC5/CapSense_CSD.c ****         /* Raw Counter */
 420:.\Generated_Source\PSoC5/CapSense_CSD.c ****         CapSense_CSD_RAW_CH0_ACT_PWRMGR_REG  |= CapSense_CSD_RAW_CH0_ACT_PWR_EN;
 421:.\Generated_Source\PSoC5/CapSense_CSD.c ****         CapSense_CSD_RAW_CH0_STBY_PWRMGR_REG |= CapSense_CSD_RAW_CH0_STBY_PWR_EN;
 422:.\Generated_Source\PSoC5/CapSense_CSD.c ****         
 423:.\Generated_Source\PSoC5/CapSense_CSD.c ****     #else
 424:.\Generated_Source\PSoC5/CapSense_CSD.c ****         /* Window PWM -  Do nothing */
 425:.\Generated_Source\PSoC5/CapSense_CSD.c ****         /* Raw Counter - Do nothing */
 426:.\Generated_Source\PSoC5/CapSense_CSD.c ****         
 427:.\Generated_Source\PSoC5/CapSense_CSD.c ****     #endif  /* (CapSense_CSD_IMPLEMENTATION_CH0 == CapSense_CSD_MEASURE_IMPLEMENTATION_FF) */ 
 428:.\Generated_Source\PSoC5/CapSense_CSD.c ****     
 429:.\Generated_Source\PSoC5/CapSense_CSD.c ****     /* Enable Measure CH1*/
 430:.\Generated_Source\PSoC5/CapSense_CSD.c ****     #if (CapSense_CSD_DESIGN_TYPE == CapSense_CSD_TWO_CHANNELS_DESIGN)
 431:.\Generated_Source\PSoC5/CapSense_CSD.c ****         #if (CapSense_CSD_IMPLEMENTATION_CH1 == CapSense_CSD_MEASURE_IMPLEMENTATION_FF)
 432:.\Generated_Source\PSoC5/CapSense_CSD.c ****             /* Window PWM */
 433:.\Generated_Source\PSoC5/CapSense_CSD.c ****             CapSense_CSD_PWM_CH1_ACT_PWRMGR_REG  |= CapSense_CSD_PWM_CH1_ACT_PWR_EN;
 434:.\Generated_Source\PSoC5/CapSense_CSD.c ****             CapSense_CSD_PWM_CH1_STBY_PWRMGR_REG |= CapSense_CSD_PWM_CH1_STBY_PWR_EN;
 435:.\Generated_Source\PSoC5/CapSense_CSD.c ****             
 436:.\Generated_Source\PSoC5/CapSense_CSD.c ****             /* Raw Counter */
 437:.\Generated_Source\PSoC5/CapSense_CSD.c ****             CapSense_CSD_RAW_CH1_ACT_PWRMGR_REG  |= CapSense_CSD_RAW_CH1_ACT_PWR_EN;
 438:.\Generated_Source\PSoC5/CapSense_CSD.c ****             CapSense_CSD_RAW_CH1_STBY_PWRMGR_REG |= CapSense_CSD_RAW_CH1_STBY_PWR_EN;
 439:.\Generated_Source\PSoC5/CapSense_CSD.c ****            
 440:.\Generated_Source\PSoC5/CapSense_CSD.c ****         #else
 441:.\Generated_Source\PSoC5/CapSense_CSD.c ****         /* Window PWM -  Do nothing */
 442:.\Generated_Source\PSoC5/CapSense_CSD.c ****         /* Raw Counter - Do nothing */
 443:.\Generated_Source\PSoC5/CapSense_CSD.c ****         
 444:.\Generated_Source\PSoC5/CapSense_CSD.c ****         #endif  /* (CapSense_CSD_IMPLEMENTATION_CH1 == CapSense_CSD_MEASURE_IMPLEMENTATION_FF) */
 445:.\Generated_Source\PSoC5/CapSense_CSD.c ****     
 446:.\Generated_Source\PSoC5/CapSense_CSD.c ****     #endif  /* (CapSense_CSD_DESIGN_TYPE == TWO_CHANNELS_DESIGN)*/
 447:.\Generated_Source\PSoC5/CapSense_CSD.c ****     
 448:.\Generated_Source\PSoC5/CapSense_CSD.c ****     /* Enable the Clock */
 449:.\Generated_Source\PSoC5/CapSense_CSD.c ****     #if (CapSense_CSD_CLOCK_SOURCE == CapSense_CSD_INTERNAL_CLOCK)
 450:.\Generated_Source\PSoC5/CapSense_CSD.c ****        CapSense_CSD_IntClock_Enable();
 322              		.loc 1 450 0
 323 002a FFF7FEFF 		bl	CapSense_CSD_IntClock_Start
 451:.\Generated_Source\PSoC5/CapSense_CSD.c ****     #endif  /* CapSense_CSD_CLOCK_SOURCE */
 452:.\Generated_Source\PSoC5/CapSense_CSD.c ****     
 453:.\Generated_Source\PSoC5/CapSense_CSD.c ****     /* Setup Cmp and Idac */
 454:.\Generated_Source\PSoC5/CapSense_CSD.c ****     CapSense_CSD_CompCH0_Enable();
 324              		.loc 1 454 0
 325 002e FFF7FEFF 		bl	CapSense_CSD_CompCH0_Enable
 455:.\Generated_Source\PSoC5/CapSense_CSD.c ****     #if (CapSense_CSD_CURRENT_SOURCE)
 456:.\Generated_Source\PSoC5/CapSense_CSD.c ****         CapSense_CSD_IdacCH0_Enable();
 326              		.loc 1 456 0
 327 0032 FFF7FEFF 		bl	CapSense_CSD_IdacCH0_Enable
 457:.\Generated_Source\PSoC5/CapSense_CSD.c ****     #endif  /* CapSense_CSD_CURRENT_SOURCE */
 458:.\Generated_Source\PSoC5/CapSense_CSD.c ****     
 459:.\Generated_Source\PSoC5/CapSense_CSD.c ****     #if (CapSense_CSD_DESIGN_TYPE == CapSense_CSD_TWO_CHANNELS_DESIGN) 
 460:.\Generated_Source\PSoC5/CapSense_CSD.c ****         CapSense_CSD_CompCH1_Enable();
 461:.\Generated_Source\PSoC5/CapSense_CSD.c ****         #if (CapSense_CSD_CURRENT_SOURCE)
 462:.\Generated_Source\PSoC5/CapSense_CSD.c ****             CapSense_CSD_IdacCH1_Enable();
 463:.\Generated_Source\PSoC5/CapSense_CSD.c ****         #endif  /* CapSense_CSD_CURRENT_SOURCE */
 464:.\Generated_Source\PSoC5/CapSense_CSD.c ****     #endif  /* CapSense_CSD_DESIGN_TYPE */
ARM GAS  C:\Users\yguan5\AppData\Local\Temp\ccDbifVx.s 			page 15


 465:.\Generated_Source\PSoC5/CapSense_CSD.c ****     
 466:.\Generated_Source\PSoC5/CapSense_CSD.c ****     /* Enable Vref */
 467:.\Generated_Source\PSoC5/CapSense_CSD.c ****     #if (CapSense_CSD_VREF_OPTIONS == CapSense_CSD_VREF_VDAC)
 468:.\Generated_Source\PSoC5/CapSense_CSD.c ****         CapSense_CSD_VdacRefCH0_Enable();
 469:.\Generated_Source\PSoC5/CapSense_CSD.c ****         CapSense_CSD_VdacRefCH0_SetValue(CapSense_CSD_VdacRefCH0_DEFAULT_DATA);
 470:.\Generated_Source\PSoC5/CapSense_CSD.c ****         #if (CapSense_CSD_DESIGN_TYPE == CapSense_CSD_TWO_CHANNELS_DESIGN)
 471:.\Generated_Source\PSoC5/CapSense_CSD.c ****             CapSense_CSD_VdacRefCH1_Enable();
 472:.\Generated_Source\PSoC5/CapSense_CSD.c ****             CapSense_CSD_VdacRefCH1_SetValue(CapSense_CSD_VdacRefCH1_DEFAULT_DATA);
 473:.\Generated_Source\PSoC5/CapSense_CSD.c ****         #endif  /* (CapSense_CSD_DESIGN_TYPE == CapSense_CSD_TWO_CHANNELS_DESIGN) */
 474:.\Generated_Source\PSoC5/CapSense_CSD.c ****     #else
 475:.\Generated_Source\PSoC5/CapSense_CSD.c ****         /* Enable CapSense Buf */
 476:.\Generated_Source\PSoC5/CapSense_CSD.c ****         CapSense_CSD_BufCH0_STBY_PWRMGR_REG |= CapSense_CSD_BufCH0_STBY_PWR_EN;
 328              		.loc 1 476 0
 329 0036 44F2BB33 		movw	r3, #:lower16:1073759163
 330 003a C4F20003 		movt	r3, #:upper16:1073759163
 331 003e 44F2BB32 		movw	r2, #:lower16:1073759163
 332 0042 C4F20002 		movt	r2, #:upper16:1073759163
 333 0046 1278     		ldrb	r2, [r2, #0]
 334 0048 D2B2     		uxtb	r2, r2
 335 004a 42F02002 		orr	r2, r2, #32
 336 004e D2B2     		uxtb	r2, r2
 337 0050 1A70     		strb	r2, [r3, #0]
 477:.\Generated_Source\PSoC5/CapSense_CSD.c ****         CapSense_CSD_BufCH0_ACT_PWRMGR_REG  |= CapSense_CSD_BufCH0_ACT_PWR_EN;
 338              		.loc 1 477 0
 339 0052 44F2AB33 		movw	r3, #:lower16:1073759147
 340 0056 C4F20003 		movt	r3, #:upper16:1073759147
 341 005a 44F2AB32 		movw	r2, #:lower16:1073759147
 342 005e C4F20002 		movt	r2, #:upper16:1073759147
 343 0062 1278     		ldrb	r2, [r2, #0]
 344 0064 D2B2     		uxtb	r2, r2
 345 0066 42F02002 		orr	r2, r2, #32
 346 006a D2B2     		uxtb	r2, r2
 347 006c 1A70     		strb	r2, [r3, #0]
 478:.\Generated_Source\PSoC5/CapSense_CSD.c ****         
 479:.\Generated_Source\PSoC5/CapSense_CSD.c ****         #if (CapSense_CSD_DESIGN_TYPE == CapSense_CSD_TWO_CHANNELS_DESIGN)
 480:.\Generated_Source\PSoC5/CapSense_CSD.c ****             CapSense_CSD_BufCH1_STBY_PWRMGR_REG |= CapSense_CSD_BufCH1_STBY_PWR_EN;
 481:.\Generated_Source\PSoC5/CapSense_CSD.c ****             CapSense_CSD_BufCH1_ACT_PWRMGR_REG  |= CapSense_CSD_BufCH1_ACT_PWR_EN;
 482:.\Generated_Source\PSoC5/CapSense_CSD.c ****         #endif  /* (CapSense_CSD_DESIGN_TYPE == CapSense_CSD_TWO_CHANNELS_DESIGN) */
 483:.\Generated_Source\PSoC5/CapSense_CSD.c ****     #endif  /* (CapSense_CSD_VREF_VDAC == CapSense_CSD_VREF_OPTIONS) */
 484:.\Generated_Source\PSoC5/CapSense_CSD.c ****     
 485:.\Generated_Source\PSoC5/CapSense_CSD.c ****     /* Set reference on AMux Bus */
 486:.\Generated_Source\PSoC5/CapSense_CSD.c ****     #if (CapSense_CSD_VREF_OPTIONS == CapSense_CSD_VREF_VDAC)
 487:.\Generated_Source\PSoC5/CapSense_CSD.c ****         /* Connect Vdac to AMux Bus */
 488:.\Generated_Source\PSoC5/CapSense_CSD.c ****         CapSense_CSD_AMuxCH0_Connect(CapSense_CSD_AMuxCH0_VREF_CHANNEL);
 489:.\Generated_Source\PSoC5/CapSense_CSD.c ****         #if (CapSense_CSD_DESIGN_TYPE == CapSense_CSD_TWO_CHANNELS_DESIGN)
 490:.\Generated_Source\PSoC5/CapSense_CSD.c ****             CapSense_CSD_AMuxCH1_Connect(CapSense_CSD_AMuxCH1_VREF_CHANNEL);
 491:.\Generated_Source\PSoC5/CapSense_CSD.c ****         #endif  /* (CapSense_CSD_DESIGN_TYPE == CapSense_CSD_TWO_CHANNELS_DESIGN) */
 492:.\Generated_Source\PSoC5/CapSense_CSD.c ****         
 493:.\Generated_Source\PSoC5/CapSense_CSD.c ****     #else
 494:.\Generated_Source\PSoC5/CapSense_CSD.c ****         /* Enable CapSense Buf */
 495:.\Generated_Source\PSoC5/CapSense_CSD.c ****         CapSense_CSD_BufCH0_CAPS_CFG0_REG |= CapSense_CSD_CSBUF_ENABLE;
 348              		.loc 1 495 0
 349 006e 45F67203 		movw	r3, #:lower16:1073764466
 350 0072 C4F20003 		movt	r3, #:upper16:1073764466
 351 0076 45F67202 		movw	r2, #:lower16:1073764466
 352 007a C4F20002 		movt	r2, #:upper16:1073764466
 353 007e 1278     		ldrb	r2, [r2, #0]
ARM GAS  C:\Users\yguan5\AppData\Local\Temp\ccDbifVx.s 			page 16


 354 0080 D2B2     		uxtb	r2, r2
 355 0082 42F00102 		orr	r2, r2, #1
 356 0086 D2B2     		uxtb	r2, r2
 357 0088 1A70     		strb	r2, [r3, #0]
 496:.\Generated_Source\PSoC5/CapSense_CSD.c ****         
 497:.\Generated_Source\PSoC5/CapSense_CSD.c ****         #if (CapSense_CSD_DESIGN_TYPE == CapSense_CSD_TWO_CHANNELS_DESIGN)
 498:.\Generated_Source\PSoC5/CapSense_CSD.c ****             CapSense_CSD_BufCH1_CAPS_CFG0_REG |= CapSense_CSD_CSBUF_ENABLE;
 499:.\Generated_Source\PSoC5/CapSense_CSD.c ****         #endif  /* (CapSense_CSD_DESIGN_TYPE == CapSense_CSD_TWO_CHANNELS_DESIGN) */
 500:.\Generated_Source\PSoC5/CapSense_CSD.c ****     #endif  /* (CapSense_CSD_VREF_VDAC == CapSense_CSD_VREF_OPTIONS)*/
 501:.\Generated_Source\PSoC5/CapSense_CSD.c ****     
 502:.\Generated_Source\PSoC5/CapSense_CSD.c ****     CyExitCriticalSection(enableInterrupts);
 358              		.loc 1 502 0
 359 008a FB79     		ldrb	r3, [r7, #7]	@ zero_extendqisi2
 360 008c 1846     		mov	r0, r3
 361 008e FFF7FEFF 		bl	CyExitCriticalSection
 503:.\Generated_Source\PSoC5/CapSense_CSD.c ****     
 504:.\Generated_Source\PSoC5/CapSense_CSD.c ****     /* Enable interrupt */
 505:.\Generated_Source\PSoC5/CapSense_CSD.c ****     CyIntEnable(CapSense_CSD_IsrCH0_ISR_NUMBER);
 362              		.loc 1 505 0
 363 0092 4EF20013 		movw	r3, #:lower16:-536813312
 364 0096 CEF20003 		movt	r3, #:upper16:-536813312
 365 009a 4FF00102 		mov	r2, #1
 366 009e 1A60     		str	r2, [r3, #0]
 506:.\Generated_Source\PSoC5/CapSense_CSD.c ****     #if (CapSense_CSD_DESIGN_TYPE == CapSense_CSD_TWO_CHANNELS_DESIGN) 
 507:.\Generated_Source\PSoC5/CapSense_CSD.c ****         CyIntEnable(CapSense_CSD_IsrCH1_ISR_NUMBER);
 508:.\Generated_Source\PSoC5/CapSense_CSD.c ****     #endif  /* CapSense_CSD_DESIGN_TYPE */
 509:.\Generated_Source\PSoC5/CapSense_CSD.c ****     
 510:.\Generated_Source\PSoC5/CapSense_CSD.c ****     /* Set CapSense Enable state */
 511:.\Generated_Source\PSoC5/CapSense_CSD.c ****     CapSense_CSD_CONTROL_REG |= CapSense_CSD_CTRL_CAPSENSE_EN;
 367              		.loc 1 511 0
 368 00a0 46F27743 		movw	r3, #:lower16:1073767543
 369 00a4 C4F20003 		movt	r3, #:upper16:1073767543
 370 00a8 46F27742 		movw	r2, #:lower16:1073767543
 371 00ac C4F20002 		movt	r2, #:upper16:1073767543
 372 00b0 1278     		ldrb	r2, [r2, #0]
 373 00b2 D2B2     		uxtb	r2, r2
 374 00b4 6FEA4262 		mvn	r2, r2, lsl #25
 375 00b8 6FEA5262 		mvn	r2, r2, lsr #25
 376 00bc D2B2     		uxtb	r2, r2
 377 00be 1A70     		strb	r2, [r3, #0]
 512:.\Generated_Source\PSoC5/CapSense_CSD.c **** }
 378              		.loc 1 512 0
 379 00c0 07F10807 		add	r7, r7, #8
 380 00c4 BD46     		mov	sp, r7
 381 00c6 80BD     		pop	{r7, pc}
 382              		.cfi_endproc
 383              	.LFE1:
 384              		.size	CapSense_CSD_Enable, .-CapSense_CSD_Enable
 385              		.section	.text.CapSense_CSD_Start,"ax",%progbits
 386              		.align	2
 387              		.global	CapSense_CSD_Start
 388              		.thumb
 389              		.thumb_func
 390              		.type	CapSense_CSD_Start, %function
 391              	CapSense_CSD_Start:
 392              	.LFB2:
 513:.\Generated_Source\PSoC5/CapSense_CSD.c **** 
ARM GAS  C:\Users\yguan5\AppData\Local\Temp\ccDbifVx.s 			page 17


 514:.\Generated_Source\PSoC5/CapSense_CSD.c **** 
 515:.\Generated_Source\PSoC5/CapSense_CSD.c **** /*******************************************************************************
 516:.\Generated_Source\PSoC5/CapSense_CSD.c **** * Function Name: CapSense_CSD_Start
 517:.\Generated_Source\PSoC5/CapSense_CSD.c **** ********************************************************************************
 518:.\Generated_Source\PSoC5/CapSense_CSD.c **** *
 519:.\Generated_Source\PSoC5/CapSense_CSD.c **** * Summary:
 520:.\Generated_Source\PSoC5/CapSense_CSD.c **** *  Initializes registers and starts the CSD method of CapSense component. Reset 
 521:.\Generated_Source\PSoC5/CapSense_CSD.c **** *  all sensors to an inactive state. Enables interrupts for sensors scanning.
 522:.\Generated_Source\PSoC5/CapSense_CSD.c **** *  When Auto Tuning (SmartSense) mode is selected the tuning procedure is 
 523:.\Generated_Source\PSoC5/CapSense_CSD.c **** *  applied for all sensors.
 524:.\Generated_Source\PSoC5/CapSense_CSD.c **** *
 525:.\Generated_Source\PSoC5/CapSense_CSD.c **** * Parameters:
 526:.\Generated_Source\PSoC5/CapSense_CSD.c **** *  None
 527:.\Generated_Source\PSoC5/CapSense_CSD.c **** *
 528:.\Generated_Source\PSoC5/CapSense_CSD.c **** * Return:
 529:.\Generated_Source\PSoC5/CapSense_CSD.c **** *  None
 530:.\Generated_Source\PSoC5/CapSense_CSD.c **** *
 531:.\Generated_Source\PSoC5/CapSense_CSD.c **** * Global Variables:
 532:.\Generated_Source\PSoC5/CapSense_CSD.c **** *  CapSense_CSD_initVar - used to check initial configuration, modified on 
 533:.\Generated_Source\PSoC5/CapSense_CSD.c **** *  first function call.
 534:.\Generated_Source\PSoC5/CapSense_CSD.c **** *  CapSense_CSD_lowLevelTuningDone - used to notify the Tuner GUI that 
 535:.\Generated_Source\PSoC5/CapSense_CSD.c **** *  tuning of scanning parameters are done.
 536:.\Generated_Source\PSoC5/CapSense_CSD.c **** *
 537:.\Generated_Source\PSoC5/CapSense_CSD.c **** * Reentrant:
 538:.\Generated_Source\PSoC5/CapSense_CSD.c **** *  No
 539:.\Generated_Source\PSoC5/CapSense_CSD.c **** *
 540:.\Generated_Source\PSoC5/CapSense_CSD.c **** *******************************************************************************/
 541:.\Generated_Source\PSoC5/CapSense_CSD.c **** void CapSense_CSD_Start(void)  
 542:.\Generated_Source\PSoC5/CapSense_CSD.c **** {
 393              		.loc 1 542 0
 394              		.cfi_startproc
 395              		@ args = 0, pretend = 0, frame = 0
 396              		@ frame_needed = 1, uses_anonymous_args = 0
 397 0000 80B5     		push	{r7, lr}
 398              	.LCFI6:
 399              		.cfi_def_cfa_offset 8
 400 0002 00AF     		add	r7, sp, #0
 401              		.cfi_offset 14, -4
 402              		.cfi_offset 7, -8
 403              	.LCFI7:
 404              		.cfi_def_cfa_register 7
 543:.\Generated_Source\PSoC5/CapSense_CSD.c ****     if (CapSense_CSD_initVar == 0u)
 405              		.loc 1 543 0
 406 0004 40F20003 		movw	r3, #:lower16:CapSense_CSD_initVar
 407 0008 C0F20003 		movt	r3, #:upper16:CapSense_CSD_initVar
 408 000c 1B78     		ldrb	r3, [r3, #0]	@ zero_extendqisi2
 409 000e 002B     		cmp	r3, #0
 410 0010 08D1     		bne	.L6
 544:.\Generated_Source\PSoC5/CapSense_CSD.c ****     {
 545:.\Generated_Source\PSoC5/CapSense_CSD.c ****         CapSense_CSD_Init();
 411              		.loc 1 545 0
 412 0012 FFF7FEFF 		bl	CapSense_CSD_Init
 546:.\Generated_Source\PSoC5/CapSense_CSD.c ****         CapSense_CSD_initVar = 1u;
 413              		.loc 1 546 0
 414 0016 40F20003 		movw	r3, #:lower16:CapSense_CSD_initVar
 415 001a C0F20003 		movt	r3, #:upper16:CapSense_CSD_initVar
 416 001e 4FF00102 		mov	r2, #1
ARM GAS  C:\Users\yguan5\AppData\Local\Temp\ccDbifVx.s 			page 18


 417 0022 1A70     		strb	r2, [r3, #0]
 418              	.L6:
 547:.\Generated_Source\PSoC5/CapSense_CSD.c ****     }
 548:.\Generated_Source\PSoC5/CapSense_CSD.c ****     CapSense_CSD_Enable();
 419              		.loc 1 548 0
 420 0024 FFF7FEFF 		bl	CapSense_CSD_Enable
 549:.\Generated_Source\PSoC5/CapSense_CSD.c ****     
 550:.\Generated_Source\PSoC5/CapSense_CSD.c ****     /* AutoTunning start */
 551:.\Generated_Source\PSoC5/CapSense_CSD.c ****     #if (CapSense_CSD_TUNING_METHOD == CapSense_CSD_AUTO_TUNING)
 552:.\Generated_Source\PSoC5/CapSense_CSD.c ****         /* AutoTune by sensor or pair of sensor basis */
 553:.\Generated_Source\PSoC5/CapSense_CSD.c ****         CapSense_CSD_AutoTune();
 554:.\Generated_Source\PSoC5/CapSense_CSD.c ****         CapSense_CSD_lowLevelTuningDone = 1u;
 555:.\Generated_Source\PSoC5/CapSense_CSD.c ****     #endif /* (CapSense_CSD_TUNING_METHOD == CapSense_CSD_AUTO_TUNING) */
 556:.\Generated_Source\PSoC5/CapSense_CSD.c **** }
 421              		.loc 1 556 0
 422 0028 80BD     		pop	{r7, pc}
 423              		.cfi_endproc
 424              	.LFE2:
 425              		.size	CapSense_CSD_Start, .-CapSense_CSD_Start
 426 002a 00BF     		.section	.text.CapSense_CSD_Stop,"ax",%progbits
 427              		.align	2
 428              		.global	CapSense_CSD_Stop
 429              		.thumb
 430              		.thumb_func
 431              		.type	CapSense_CSD_Stop, %function
 432              	CapSense_CSD_Stop:
 433              	.LFB3:
 557:.\Generated_Source\PSoC5/CapSense_CSD.c **** 
 558:.\Generated_Source\PSoC5/CapSense_CSD.c **** 
 559:.\Generated_Source\PSoC5/CapSense_CSD.c **** /*******************************************************************************
 560:.\Generated_Source\PSoC5/CapSense_CSD.c **** * Function Name: CapSense_CSD_Stop
 561:.\Generated_Source\PSoC5/CapSense_CSD.c **** ********************************************************************************
 562:.\Generated_Source\PSoC5/CapSense_CSD.c **** *
 563:.\Generated_Source\PSoC5/CapSense_CSD.c **** * Summary:
 564:.\Generated_Source\PSoC5/CapSense_CSD.c **** *  Stops the sensors scanner, disables internal interrupts, and resets all 
 565:.\Generated_Source\PSoC5/CapSense_CSD.c **** *  sensors to an inactive state. Disables Active mode power template bits for 
 566:.\Generated_Source\PSoC5/CapSense_CSD.c **** *  number of component used within CapSense.
 567:.\Generated_Source\PSoC5/CapSense_CSD.c **** *
 568:.\Generated_Source\PSoC5/CapSense_CSD.c **** * Parameters:
 569:.\Generated_Source\PSoC5/CapSense_CSD.c **** *  None
 570:.\Generated_Source\PSoC5/CapSense_CSD.c **** *
 571:.\Generated_Source\PSoC5/CapSense_CSD.c **** * Return:
 572:.\Generated_Source\PSoC5/CapSense_CSD.c **** *  None
 573:.\Generated_Source\PSoC5/CapSense_CSD.c **** *
 574:.\Generated_Source\PSoC5/CapSense_CSD.c **** * Side Effects:
 575:.\Generated_Source\PSoC5/CapSense_CSD.c **** *  This function should be called after scans will be completed.
 576:.\Generated_Source\PSoC5/CapSense_CSD.c **** *
 577:.\Generated_Source\PSoC5/CapSense_CSD.c **** *******************************************************************************/
 578:.\Generated_Source\PSoC5/CapSense_CSD.c **** void CapSense_CSD_Stop(void) 
 579:.\Generated_Source\PSoC5/CapSense_CSD.c **** {
 434              		.loc 1 579 0
 435              		.cfi_startproc
 436              		@ args = 0, pretend = 0, frame = 0
 437              		@ frame_needed = 1, uses_anonymous_args = 0
 438 0000 80B5     		push	{r7, lr}
 439              	.LCFI8:
 440              		.cfi_def_cfa_offset 8
ARM GAS  C:\Users\yguan5\AppData\Local\Temp\ccDbifVx.s 			page 19


 441 0002 00AF     		add	r7, sp, #0
 442              		.cfi_offset 14, -4
 443              		.cfi_offset 7, -8
 444              	.LCFI9:
 445              		.cfi_def_cfa_register 7
 580:.\Generated_Source\PSoC5/CapSense_CSD.c ****     /* Stop Capsensing */
 581:.\Generated_Source\PSoC5/CapSense_CSD.c ****     CapSense_CSD_CONTROL_REG &= ~CapSense_CSD_CTRL_START;
 446              		.loc 1 581 0
 447 0004 46F27743 		movw	r3, #:lower16:1073767543
 448 0008 C4F20003 		movt	r3, #:upper16:1073767543
 449 000c 46F27742 		movw	r2, #:lower16:1073767543
 450 0010 C4F20002 		movt	r2, #:upper16:1073767543
 451 0014 1278     		ldrb	r2, [r2, #0]
 452 0016 D2B2     		uxtb	r2, r2
 453 0018 02F0FD02 		and	r2, r2, #253
 454 001c 1A70     		strb	r2, [r3, #0]
 582:.\Generated_Source\PSoC5/CapSense_CSD.c ****     
 583:.\Generated_Source\PSoC5/CapSense_CSD.c ****     /* Disable interrupt */
 584:.\Generated_Source\PSoC5/CapSense_CSD.c ****     CyIntDisable(CapSense_CSD_IsrCH0_ISR_NUMBER);
 455              		.loc 1 584 0
 456 001e 4EF28013 		movw	r3, #:lower16:-536813184
 457 0022 CEF20003 		movt	r3, #:upper16:-536813184
 458 0026 4FF00102 		mov	r2, #1
 459 002a 1A60     		str	r2, [r3, #0]
 585:.\Generated_Source\PSoC5/CapSense_CSD.c ****     #if (CapSense_CSD_DESIGN_TYPE == CapSense_CSD_TWO_CHANNELS_DESIGN) 
 586:.\Generated_Source\PSoC5/CapSense_CSD.c ****         CyIntDisable(CapSense_CSD_IsrCH1_ISR_NUMBER);
 587:.\Generated_Source\PSoC5/CapSense_CSD.c ****     #endif  /* CapSense_CSD_DESIGN_TYPE */
 588:.\Generated_Source\PSoC5/CapSense_CSD.c ****     
 589:.\Generated_Source\PSoC5/CapSense_CSD.c ****     /* Clear all sensors */
 590:.\Generated_Source\PSoC5/CapSense_CSD.c ****     CapSense_CSD_ClearSensors();
 460              		.loc 1 590 0
 461 002c FFF7FEFF 		bl	CapSense_CSD_ClearSensors
 591:.\Generated_Source\PSoC5/CapSense_CSD.c ****     
 592:.\Generated_Source\PSoC5/CapSense_CSD.c ****     /* Disable Prescaler */
 593:.\Generated_Source\PSoC5/CapSense_CSD.c ****     #if (CapSense_CSD_PRESCALER_OPTIONS == CapSense_CSD_PRESCALER_UDB)
 594:.\Generated_Source\PSoC5/CapSense_CSD.c ****         /* Do nothing  for UDB */
 595:.\Generated_Source\PSoC5/CapSense_CSD.c ****     #elif (CapSense_CSD_PRESCALER_OPTIONS == CapSense_CSD_PRESCALER_FF)        
 596:.\Generated_Source\PSoC5/CapSense_CSD.c ****         CapSense_CSD_PRESCALER_ACT_PWRMGR_REG  &= ~CapSense_CSD_PRESCALER_ACT_PWR_EN;
 597:.\Generated_Source\PSoC5/CapSense_CSD.c ****         CapSense_CSD_PRESCALER_STBY_PWRMGR_REG &= ~CapSense_CSD_PRESCALER_STBY_PWR_EN;
 598:.\Generated_Source\PSoC5/CapSense_CSD.c ****         
 599:.\Generated_Source\PSoC5/CapSense_CSD.c ****     #else
 600:.\Generated_Source\PSoC5/CapSense_CSD.c ****         /* Do nothing = config without prescaler */
 601:.\Generated_Source\PSoC5/CapSense_CSD.c ****     #endif  /* (CapSense_CSD_PRESCALER_OPTIONS == CapSense_CSD_PRESCALER_UDB) */
 602:.\Generated_Source\PSoC5/CapSense_CSD.c ****     
 603:.\Generated_Source\PSoC5/CapSense_CSD.c ****     /* Disable ScanSpeed */
 604:.\Generated_Source\PSoC5/CapSense_CSD.c ****     CapSense_CSD_SCANSPEED_AUX_CONTROL_REG &= ~CapSense_CSD_SCANSPEED_CTRL_ENABLE;
 462              		.loc 1 604 0
 463 0030 46F29653 		movw	r3, #:lower16:1073767830
 464 0034 C4F20003 		movt	r3, #:upper16:1073767830
 465 0038 46F29652 		movw	r2, #:lower16:1073767830
 466 003c C4F20002 		movt	r2, #:upper16:1073767830
 467 0040 1278     		ldrb	r2, [r2, #0]
 468 0042 D2B2     		uxtb	r2, r2
 469 0044 02F0DF02 		and	r2, r2, #223
 470 0048 1A70     		strb	r2, [r3, #0]
 605:.\Generated_Source\PSoC5/CapSense_CSD.c ****     
 606:.\Generated_Source\PSoC5/CapSense_CSD.c ****     /* Disable Measure CH0 */
ARM GAS  C:\Users\yguan5\AppData\Local\Temp\ccDbifVx.s 			page 20


 607:.\Generated_Source\PSoC5/CapSense_CSD.c ****     #if (CapSense_CSD_IMPLEMENTATION_CH0 == CapSense_CSD_MEASURE_IMPLEMENTATION_FF)
 608:.\Generated_Source\PSoC5/CapSense_CSD.c ****         /* Window PWM */
 609:.\Generated_Source\PSoC5/CapSense_CSD.c ****         CapSense_CSD_PWM_CH0_ACT_PWRMGR_REG  &= ~CapSense_CSD_PWM_CH0_ACT_PWR_EN;
 610:.\Generated_Source\PSoC5/CapSense_CSD.c ****         CapSense_CSD_PWM_CH0_STBY_PWRMGR_REG &= ~CapSense_CSD_PWM_CH0_STBY_PWR_EN;
 611:.\Generated_Source\PSoC5/CapSense_CSD.c **** 
 612:.\Generated_Source\PSoC5/CapSense_CSD.c ****         /* Raw Counter */
 613:.\Generated_Source\PSoC5/CapSense_CSD.c ****         CapSense_CSD_RAW_CH0_ACT_PWRMGR_REG  &= ~CapSense_CSD_RAW_CH0_ACT_PWR_EN;
 614:.\Generated_Source\PSoC5/CapSense_CSD.c ****         CapSense_CSD_RAW_CH0_STBY_PWRMGR_REG &= ~CapSense_CSD_RAW_CH0_STBY_PWR_EN;
 615:.\Generated_Source\PSoC5/CapSense_CSD.c **** 
 616:.\Generated_Source\PSoC5/CapSense_CSD.c ****     #else
 617:.\Generated_Source\PSoC5/CapSense_CSD.c ****         /* Window PWM -  Do nothing */
 618:.\Generated_Source\PSoC5/CapSense_CSD.c ****         /* Raw Counter - Do nothing */
 619:.\Generated_Source\PSoC5/CapSense_CSD.c ****         
 620:.\Generated_Source\PSoC5/CapSense_CSD.c ****     #endif  /* (CapSense_CSD_IMPLEMENTATION_CH0 == CapSense_CSD_MEASURE_IMPLEMENTATION_FF) */ 
 621:.\Generated_Source\PSoC5/CapSense_CSD.c ****     
 622:.\Generated_Source\PSoC5/CapSense_CSD.c ****     /* Disable Measure CH1 */
 623:.\Generated_Source\PSoC5/CapSense_CSD.c ****     #if (CapSense_CSD_DESIGN_TYPE == CapSense_CSD_TWO_CHANNELS_DESIGN)
 624:.\Generated_Source\PSoC5/CapSense_CSD.c ****         #if (CapSense_CSD_IMPLEMENTATION_CH1 == CapSense_CSD_MEASURE_IMPLEMENTATION_FF)
 625:.\Generated_Source\PSoC5/CapSense_CSD.c ****             /* Window PWM */
 626:.\Generated_Source\PSoC5/CapSense_CSD.c ****             CapSense_CSD_PWM_CH1_ACT_PWRMGR_REG  &= ~CapSense_CSD_PWM_CH1_ACT_PWR_EN;
 627:.\Generated_Source\PSoC5/CapSense_CSD.c ****             CapSense_CSD_PWM_CH1_STBY_PWRMGR_REG &= ~CapSense_CSD_PWM_CH1_STBY_PWR_EN;
 628:.\Generated_Source\PSoC5/CapSense_CSD.c ****     
 629:.\Generated_Source\PSoC5/CapSense_CSD.c ****             /* Raw Counter */
 630:.\Generated_Source\PSoC5/CapSense_CSD.c ****             CapSense_CSD_RAW_CH1_ACT_PWRMGR_REG  &= ~CapSense_CSD_RAW_CH1_ACT_PWR_EN;
 631:.\Generated_Source\PSoC5/CapSense_CSD.c ****             CapSense_CSD_RAW_CH1_STBY_PWRMGR_REG &= ~CapSense_CSD_RAW_CH1_STBY_PWR_EN;
 632:.\Generated_Source\PSoC5/CapSense_CSD.c ****            
 633:.\Generated_Source\PSoC5/CapSense_CSD.c ****         #else
 634:.\Generated_Source\PSoC5/CapSense_CSD.c ****         /* Window PWM -  Do nothing */
 635:.\Generated_Source\PSoC5/CapSense_CSD.c ****         /* Raw Counter - Do nothing */
 636:.\Generated_Source\PSoC5/CapSense_CSD.c ****         
 637:.\Generated_Source\PSoC5/CapSense_CSD.c ****         #endif  /* (CapSense_CSD_IMPLEMENTATION_CH1 == CapSense_CSD_MEASURE_IMPLEMENTATION_FF) */
 638:.\Generated_Source\PSoC5/CapSense_CSD.c ****     
 639:.\Generated_Source\PSoC5/CapSense_CSD.c ****     #endif  /* (CapSense_CSD_DESIGN_TYPE == TWO_CHANNELS_DESIGN)*/
 640:.\Generated_Source\PSoC5/CapSense_CSD.c ****     
 641:.\Generated_Source\PSoC5/CapSense_CSD.c ****     /* Disable the Clock */
 642:.\Generated_Source\PSoC5/CapSense_CSD.c ****     #if (CapSense_CSD_CLOCK_SOURCE == CapSense_CSD_INTERNAL_CLOCK)
 643:.\Generated_Source\PSoC5/CapSense_CSD.c ****        CapSense_CSD_IntClock_Stop();
 471              		.loc 1 643 0
 472 004a FFF7FEFF 		bl	CapSense_CSD_IntClock_Stop
 644:.\Generated_Source\PSoC5/CapSense_CSD.c ****     #endif  /* CapSense_CSD_CLOCK_SOURCE */
 645:.\Generated_Source\PSoC5/CapSense_CSD.c ****     
 646:.\Generated_Source\PSoC5/CapSense_CSD.c ****     /* Disable power from Cmp and Idac */
 647:.\Generated_Source\PSoC5/CapSense_CSD.c ****     CapSense_CSD_CompCH0_Stop();
 473              		.loc 1 647 0
 474 004e FFF7FEFF 		bl	CapSense_CSD_CompCH0_Stop
 648:.\Generated_Source\PSoC5/CapSense_CSD.c ****     #if (CapSense_CSD_CURRENT_SOURCE)
 649:.\Generated_Source\PSoC5/CapSense_CSD.c ****         CapSense_CSD_IdacCH0_Stop();
 475              		.loc 1 649 0
 476 0052 FFF7FEFF 		bl	CapSense_CSD_IdacCH0_Stop
 650:.\Generated_Source\PSoC5/CapSense_CSD.c ****     #endif  /* CapSense_CSD_CURRENT_SOURCE */
 651:.\Generated_Source\PSoC5/CapSense_CSD.c ****     
 652:.\Generated_Source\PSoC5/CapSense_CSD.c ****     #if (CapSense_CSD_DESIGN_TYPE == CapSense_CSD_TWO_CHANNELS_DESIGN) 
 653:.\Generated_Source\PSoC5/CapSense_CSD.c ****         CapSense_CSD_CompCH1_Stop();
 654:.\Generated_Source\PSoC5/CapSense_CSD.c ****         #if (CapSense_CSD_CURRENT_SOURCE)
 655:.\Generated_Source\PSoC5/CapSense_CSD.c ****             CapSense_CSD_IdacCH1_Stop();
 656:.\Generated_Source\PSoC5/CapSense_CSD.c ****         #endif  /* CapSense_CSD_CURRENT_SOURCE */
 657:.\Generated_Source\PSoC5/CapSense_CSD.c ****     #endif  /* CapSense_CSD_DESIGN_TYPE */    
ARM GAS  C:\Users\yguan5\AppData\Local\Temp\ccDbifVx.s 			page 21


 658:.\Generated_Source\PSoC5/CapSense_CSD.c ****     
 659:.\Generated_Source\PSoC5/CapSense_CSD.c ****     /* Disable Vref if as VDAC */
 660:.\Generated_Source\PSoC5/CapSense_CSD.c ****     #if (CapSense_CSD_VREF_OPTIONS == CapSense_CSD_VREF_VDAC)
 661:.\Generated_Source\PSoC5/CapSense_CSD.c ****         CapSense_CSD_VdacRefCH0_Stop();
 662:.\Generated_Source\PSoC5/CapSense_CSD.c ****         #if (CapSense_CSD_DESIGN_TYPE == CapSense_CSD_TWO_CHANNELS_DESIGN)
 663:.\Generated_Source\PSoC5/CapSense_CSD.c ****             CapSense_CSD_VdacRefCH1_Stop();
 664:.\Generated_Source\PSoC5/CapSense_CSD.c ****         #endif  /* CapSense_CSD_DESIGN_TYPE */
 665:.\Generated_Source\PSoC5/CapSense_CSD.c ****     #endif  /* CapSense_CSD_VREF_OPTIONS */
 666:.\Generated_Source\PSoC5/CapSense_CSD.c **** 
 667:.\Generated_Source\PSoC5/CapSense_CSD.c ****     #if (CapSense_CSD_VREF_VDAC == CapSense_CSD_VREF_OPTIONS)
 668:.\Generated_Source\PSoC5/CapSense_CSD.c ****         /* The Idac turn off before */
 669:.\Generated_Source\PSoC5/CapSense_CSD.c ****     #else
 670:.\Generated_Source\PSoC5/CapSense_CSD.c ****         /* Enable CapSense Buf */
 671:.\Generated_Source\PSoC5/CapSense_CSD.c ****         CapSense_CSD_BufCH0_CAPS_CFG0_REG &= ~CapSense_CSD_CSBUF_ENABLE;
 477              		.loc 1 671 0
 478 0056 45F67203 		movw	r3, #:lower16:1073764466
 479 005a C4F20003 		movt	r3, #:upper16:1073764466
 480 005e 45F67202 		movw	r2, #:lower16:1073764466
 481 0062 C4F20002 		movt	r2, #:upper16:1073764466
 482 0066 1278     		ldrb	r2, [r2, #0]
 483 0068 D2B2     		uxtb	r2, r2
 484 006a 02F0FE02 		and	r2, r2, #254
 485 006e 1A70     		strb	r2, [r3, #0]
 672:.\Generated_Source\PSoC5/CapSense_CSD.c ****         CapSense_CSD_BufCH0_ACT_PWRMGR_REG &= ~CapSense_CSD_BufCH0_ACT_PWR_EN;
 486              		.loc 1 672 0
 487 0070 44F2AB33 		movw	r3, #:lower16:1073759147
 488 0074 C4F20003 		movt	r3, #:upper16:1073759147
 489 0078 44F2AB32 		movw	r2, #:lower16:1073759147
 490 007c C4F20002 		movt	r2, #:upper16:1073759147
 491 0080 1278     		ldrb	r2, [r2, #0]
 492 0082 D2B2     		uxtb	r2, r2
 493 0084 02F0DF02 		and	r2, r2, #223
 494 0088 1A70     		strb	r2, [r3, #0]
 673:.\Generated_Source\PSoC5/CapSense_CSD.c ****         CapSense_CSD_BufCH0_STBY_PWRMGR_REG &= ~CapSense_CSD_BufCH0_STBY_PWR_EN;
 495              		.loc 1 673 0
 496 008a 44F2BB33 		movw	r3, #:lower16:1073759163
 497 008e C4F20003 		movt	r3, #:upper16:1073759163
 498 0092 44F2BB32 		movw	r2, #:lower16:1073759163
 499 0096 C4F20002 		movt	r2, #:upper16:1073759163
 500 009a 1278     		ldrb	r2, [r2, #0]
 501 009c D2B2     		uxtb	r2, r2
 502 009e 02F0DF02 		and	r2, r2, #223
 503 00a2 1A70     		strb	r2, [r3, #0]
 674:.\Generated_Source\PSoC5/CapSense_CSD.c ****         
 675:.\Generated_Source\PSoC5/CapSense_CSD.c ****         #if (CapSense_CSD_DESIGN_TYPE == CapSense_CSD_TWO_CHANNELS_DESIGN)
 676:.\Generated_Source\PSoC5/CapSense_CSD.c ****             CapSense_CSD_BufCH1_CAPS_CFG0_REG &= ~CapSense_CSD_CSBUF_ENABLE;
 677:.\Generated_Source\PSoC5/CapSense_CSD.c ****             CapSense_CSD_BufCH1_ACT_PWRMGR_REG &= ~CapSense_CSD_BufCH1_ACT_PWR_EN;
 678:.\Generated_Source\PSoC5/CapSense_CSD.c ****             CapSense_CSD_BufCH1_STBY_PWRMGR_REG &= ~CapSense_CSD_BufCH1_STBY_PWR_EN;
 679:.\Generated_Source\PSoC5/CapSense_CSD.c ****         #endif  /*(CapSense_CSD_DESIGN_TYPE == CapSense_CSD_TWO_CHANNELS_DESIGN) */
 680:.\Generated_Source\PSoC5/CapSense_CSD.c ****     #endif  /* (CapSense_CSD_VREF_VDAC == CapSense_CSD_VREF_OPTIONS) */
 681:.\Generated_Source\PSoC5/CapSense_CSD.c ****     
 682:.\Generated_Source\PSoC5/CapSense_CSD.c ****     /* Set CapSense Disable state */
 683:.\Generated_Source\PSoC5/CapSense_CSD.c ****     CapSense_CSD_CONTROL_REG &= ~CapSense_CSD_CTRL_CAPSENSE_EN;
 504              		.loc 1 683 0
 505 00a4 46F27743 		movw	r3, #:lower16:1073767543
 506 00a8 C4F20003 		movt	r3, #:upper16:1073767543
 507 00ac 46F27742 		movw	r2, #:lower16:1073767543
ARM GAS  C:\Users\yguan5\AppData\Local\Temp\ccDbifVx.s 			page 22


 508 00b0 C4F20002 		movt	r2, #:upper16:1073767543
 509 00b4 1278     		ldrb	r2, [r2, #0]
 510 00b6 D2B2     		uxtb	r2, r2
 511 00b8 02F07F02 		and	r2, r2, #127
 512 00bc 1A70     		strb	r2, [r3, #0]
 684:.\Generated_Source\PSoC5/CapSense_CSD.c **** }
 513              		.loc 1 684 0
 514 00be 80BD     		pop	{r7, pc}
 515              		.cfi_endproc
 516              	.LFE3:
 517              		.size	CapSense_CSD_Stop, .-CapSense_CSD_Stop
 518              		.section	.text.CapSense_CSD_FindNextSensor,"ax",%progbits
 519              		.align	2
 520              		.global	CapSense_CSD_FindNextSensor
 521              		.thumb
 522              		.thumb_func
 523              		.type	CapSense_CSD_FindNextSensor, %function
 524              	CapSense_CSD_FindNextSensor:
 525              	.LFB4:
 685:.\Generated_Source\PSoC5/CapSense_CSD.c **** 
 686:.\Generated_Source\PSoC5/CapSense_CSD.c **** 
 687:.\Generated_Source\PSoC5/CapSense_CSD.c **** #if (CapSense_CSD_DESIGN_TYPE == CapSense_CSD_ONE_CHANNEL_DESIGN)
 688:.\Generated_Source\PSoC5/CapSense_CSD.c ****     /*******************************************************************************
 689:.\Generated_Source\PSoC5/CapSense_CSD.c ****     * Function Name: CapSense_CSD_FindNextSensor
 690:.\Generated_Source\PSoC5/CapSense_CSD.c ****     ********************************************************************************
 691:.\Generated_Source\PSoC5/CapSense_CSD.c ****     *
 692:.\Generated_Source\PSoC5/CapSense_CSD.c ****     * Summary:
 693:.\Generated_Source\PSoC5/CapSense_CSD.c ****     *  Finds next sensor to scan. 
 694:.\Generated_Source\PSoC5/CapSense_CSD.c ****     *
 695:.\Generated_Source\PSoC5/CapSense_CSD.c ****     * Parameters:
 696:.\Generated_Source\PSoC5/CapSense_CSD.c ****     *  snsIndex:  Current index of sensor.
 697:.\Generated_Source\PSoC5/CapSense_CSD.c ****     *
 698:.\Generated_Source\PSoC5/CapSense_CSD.c ****     * Return:
 699:.\Generated_Source\PSoC5/CapSense_CSD.c ****     *  Returns the next sensor index to scan.
 700:.\Generated_Source\PSoC5/CapSense_CSD.c ****     *
 701:.\Generated_Source\PSoC5/CapSense_CSD.c ****     * Global Variables:
 702:.\Generated_Source\PSoC5/CapSense_CSD.c ****     *  CapSense_CSD_SensorEnableMask[ ] - used to store bit masks of enabled 
 703:.\Generated_Source\PSoC5/CapSense_CSD.c ****     *  sensors.
 704:.\Generated_Source\PSoC5/CapSense_CSD.c ****     *  CapSense_CSD_SensorEnableMask[0] contains the masked bits for sensors 0
 705:.\Generated_Source\PSoC5/CapSense_CSD.c ****     *  through 7 (sensor 0 is bit 0, sensor 1 is bit 1).
 706:.\Generated_Source\PSoC5/CapSense_CSD.c ****     *  CapSense_CSD_SensorEnableMask[1] contains the masked bits for sensors 
 707:.\Generated_Source\PSoC5/CapSense_CSD.c ****     *  8 through 15 (if needed), and so on.
 708:.\Generated_Source\PSoC5/CapSense_CSD.c ****     *    0 - sensor doesn't scan by CapSense_CSD_ScanEnabledWidgets().
 709:.\Generated_Source\PSoC5/CapSense_CSD.c ****     *    1 - sensor scans by CapSense_CSD_ScanEnabledWidgets().
 710:.\Generated_Source\PSoC5/CapSense_CSD.c ****     *
 711:.\Generated_Source\PSoC5/CapSense_CSD.c ****     * Note: 
 712:.\Generated_Source\PSoC5/CapSense_CSD.c ****     *  This function has effect on current scanning scanning and should not
 713:.\Generated_Source\PSoC5/CapSense_CSD.c ****     *  be used outisde of component.
 714:.\Generated_Source\PSoC5/CapSense_CSD.c ****     *
 715:.\Generated_Source\PSoC5/CapSense_CSD.c ****     *******************************************************************************/
 716:.\Generated_Source\PSoC5/CapSense_CSD.c ****     uint8 CapSense_CSD_FindNextSensor(uint8 snsIndex) CYREENTRANT
 717:.\Generated_Source\PSoC5/CapSense_CSD.c ****     {
 526              		.loc 1 717 0
 527              		.cfi_startproc
 528              		@ args = 0, pretend = 0, frame = 16
 529              		@ frame_needed = 1, uses_anonymous_args = 0
 530              		@ link register save eliminated.
ARM GAS  C:\Users\yguan5\AppData\Local\Temp\ccDbifVx.s 			page 23


 531 0000 80B4     		push	{r7}
 532              	.LCFI10:
 533              		.cfi_def_cfa_offset 4
 534 0002 85B0     		sub	sp, sp, #20
 535              	.LCFI11:
 536              		.cfi_def_cfa_offset 24
 537 0004 00AF     		add	r7, sp, #0
 538              		.cfi_offset 7, -4
 539              	.LCFI12:
 540              		.cfi_def_cfa_register 7
 541 0006 0346     		mov	r3, r0
 542 0008 FB71     		strb	r3, [r7, #7]
 543              	.L13:
 718:.\Generated_Source\PSoC5/CapSense_CSD.c ****         uint8 pos;
 719:.\Generated_Source\PSoC5/CapSense_CSD.c ****         uint8 enMask;
 720:.\Generated_Source\PSoC5/CapSense_CSD.c ****         
 721:.\Generated_Source\PSoC5/CapSense_CSD.c ****         /* Check if sensor enabled */
 722:.\Generated_Source\PSoC5/CapSense_CSD.c ****         do
 723:.\Generated_Source\PSoC5/CapSense_CSD.c ****         {
 724:.\Generated_Source\PSoC5/CapSense_CSD.c ****             /* Proceed with the next sensor */
 725:.\Generated_Source\PSoC5/CapSense_CSD.c ****             snsIndex++;
 544              		.loc 1 725 0
 545 000a FB79     		ldrb	r3, [r7, #7]
 546 000c 03F10103 		add	r3, r3, #1
 547 0010 FB71     		strb	r3, [r7, #7]
 726:.\Generated_Source\PSoC5/CapSense_CSD.c ****             if(snsIndex == CapSense_CSD_TOTAL_SENSOR_COUNT)
 548              		.loc 1 726 0
 549 0012 FB79     		ldrb	r3, [r7, #7]	@ zero_extendqisi2
 550 0014 072B     		cmp	r3, #7
 551 0016 18D0     		beq	.L15
 552              	.L11:
 727:.\Generated_Source\PSoC5/CapSense_CSD.c ****             {
 728:.\Generated_Source\PSoC5/CapSense_CSD.c ****                 break;
 729:.\Generated_Source\PSoC5/CapSense_CSD.c ****             }
 730:.\Generated_Source\PSoC5/CapSense_CSD.c ****             pos = (snsIndex >> 3u);
 553              		.loc 1 730 0
 554 0018 FB79     		ldrb	r3, [r7, #7]	@ zero_extendqisi2
 555 001a 4FEAD303 		lsr	r3, r3, #3
 556 001e BB73     		strb	r3, [r7, #14]
 731:.\Generated_Source\PSoC5/CapSense_CSD.c ****             enMask = 0x01u << (snsIndex & 0x07u);
 557              		.loc 1 731 0
 558 0020 FB79     		ldrb	r3, [r7, #7]	@ zero_extendqisi2
 559 0022 03F00703 		and	r3, r3, #7
 560 0026 4FF00102 		mov	r2, #1
 561 002a 02FA03F3 		lsl	r3, r2, r3
 562 002e FB73     		strb	r3, [r7, #15]
 732:.\Generated_Source\PSoC5/CapSense_CSD.c ****         }    
 733:.\Generated_Source\PSoC5/CapSense_CSD.c ****         while((CapSense_CSD_SensorEnableMask[pos] & enMask) == 0u);
 563              		.loc 1 733 0
 564 0030 BA7B     		ldrb	r2, [r7, #14]	@ zero_extendqisi2
 565 0032 40F20003 		movw	r3, #:lower16:CapSense_CSD_SensorEnableMask
 566 0036 C0F20003 		movt	r3, #:upper16:CapSense_CSD_SensorEnableMask
 567 003a 9A5C     		ldrb	r2, [r3, r2]	@ zero_extendqisi2
 568 003c FB7B     		ldrb	r3, [r7, #15]
 569 003e 02EA0303 		and	r3, r2, r3
 570 0042 DBB2     		uxtb	r3, r3
 571 0044 002B     		cmp	r3, #0
ARM GAS  C:\Users\yguan5\AppData\Local\Temp\ccDbifVx.s 			page 24


 572 0046 E0D0     		beq	.L13
 573 0048 00E0     		b	.L12
 574              	.L15:
 575              		.loc 1 728 0
 576 004a 00BF     		nop
 577              	.L12:
 734:.\Generated_Source\PSoC5/CapSense_CSD.c ****         
 735:.\Generated_Source\PSoC5/CapSense_CSD.c ****         return snsIndex;
 578              		.loc 1 735 0
 579 004c FB79     		ldrb	r3, [r7, #7]	@ zero_extendqisi2
 736:.\Generated_Source\PSoC5/CapSense_CSD.c ****     }
 580              		.loc 1 736 0
 581 004e 1846     		mov	r0, r3
 582 0050 07F11407 		add	r7, r7, #20
 583 0054 BD46     		mov	sp, r7
 584 0056 80BC     		pop	{r7}
 585 0058 7047     		bx	lr
 586              		.cfi_endproc
 587              	.LFE4:
 588              		.size	CapSense_CSD_FindNextSensor, .-CapSense_CSD_FindNextSensor
 589 005a 00BF     		.section	.text.CapSense_CSD_SetScanSlotSettings,"ax",%progbits
 590              		.align	2
 591              		.global	CapSense_CSD_SetScanSlotSettings
 592              		.thumb
 593              		.thumb_func
 594              		.type	CapSense_CSD_SetScanSlotSettings, %function
 595              	CapSense_CSD_SetScanSlotSettings:
 596              	.LFB5:
 737:.\Generated_Source\PSoC5/CapSense_CSD.c ****  #endif  /* CapSense_CSD_DESIGN_TYPE == CapSense_CSD_ONE_CHANNEL_DESIGN */
 738:.\Generated_Source\PSoC5/CapSense_CSD.c ****  
 739:.\Generated_Source\PSoC5/CapSense_CSD.c ****  
 740:.\Generated_Source\PSoC5/CapSense_CSD.c **** #if (CapSense_CSD_DESIGN_TYPE == CapSense_CSD_TWO_CHANNELS_DESIGN)
 741:.\Generated_Source\PSoC5/CapSense_CSD.c ****     /*******************************************************************************
 742:.\Generated_Source\PSoC5/CapSense_CSD.c ****     * Function Name: CapSense_CSD_FindNextPair
 743:.\Generated_Source\PSoC5/CapSense_CSD.c ****     ********************************************************************************
 744:.\Generated_Source\PSoC5/CapSense_CSD.c ****     *
 745:.\Generated_Source\PSoC5/CapSense_CSD.c ****     * Summary:
 746:.\Generated_Source\PSoC5/CapSense_CSD.c ****     *  Finds next pair or sensor to scan. Sets condition bits to skip scanning.
 747:.\Generated_Source\PSoC5/CapSense_CSD.c ****     *  
 748:.\Generated_Source\PSoC5/CapSense_CSD.c ****     * Parameters:
 749:.\Generated_Source\PSoC5/CapSense_CSD.c ****     *  snsIndex:  Current index pair of sensors.
 750:.\Generated_Source\PSoC5/CapSense_CSD.c ****     *
 751:.\Generated_Source\PSoC5/CapSense_CSD.c ****     * Return:
 752:.\Generated_Source\PSoC5/CapSense_CSD.c ****     *  Returns the next pair of sensors index to scan.
 753:.\Generated_Source\PSoC5/CapSense_CSD.c ****     *
 754:.\Generated_Source\PSoC5/CapSense_CSD.c ****     * Global Variables:
 755:.\Generated_Source\PSoC5/CapSense_CSD.c ****     *  CapSense_CSD_SensorEnableMask[ ] - used to store bit masks of enabled 
 756:.\Generated_Source\PSoC5/CapSense_CSD.c ****     *  sensors.
 757:.\Generated_Source\PSoC5/CapSense_CSD.c ****     *  CapSense_CSD_SensorEnableMask[0] contains the masked bits for sensors 0
 758:.\Generated_Source\PSoC5/CapSense_CSD.c ****     *  through 7 (sensor 0 is bit 0, sensor 1 is bit 1).
 759:.\Generated_Source\PSoC5/CapSense_CSD.c ****     *  CapSense_CSD_SensorEnableMask[1] contains the masked bits for sensors 
 760:.\Generated_Source\PSoC5/CapSense_CSD.c ****     *  8 through 15 (if needed), and so on.
 761:.\Generated_Source\PSoC5/CapSense_CSD.c ****     *    0 - sensor doesn't scan by CapSense_CSD_ScanEnabledWidgets().
 762:.\Generated_Source\PSoC5/CapSense_CSD.c ****     *    1 - sensor scans by CapSense_CSD_ScanEnabledWidgets().
 763:.\Generated_Source\PSoC5/CapSense_CSD.c ****     *
 764:.\Generated_Source\PSoC5/CapSense_CSD.c ****     * Note: 
 765:.\Generated_Source\PSoC5/CapSense_CSD.c ****     *  This function has effect on control signals set for scanning and should not
ARM GAS  C:\Users\yguan5\AppData\Local\Temp\ccDbifVx.s 			page 25


 766:.\Generated_Source\PSoC5/CapSense_CSD.c ****     *  be used outisde of component.
 767:.\Generated_Source\PSoC5/CapSense_CSD.c ****     *
 768:.\Generated_Source\PSoC5/CapSense_CSD.c ****     *******************************************************************************/
 769:.\Generated_Source\PSoC5/CapSense_CSD.c ****     uint8 CapSense_CSD_FindNextPair(uint8 snsIndex) CYREENTRANT
 770:.\Generated_Source\PSoC5/CapSense_CSD.c ****     {
 771:.\Generated_Source\PSoC5/CapSense_CSD.c ****         uint8 posCh;
 772:.\Generated_Source\PSoC5/CapSense_CSD.c ****         uint8 enMaskCh;
 773:.\Generated_Source\PSoC5/CapSense_CSD.c ****         uint8 indexCh0 = snsIndex;
 774:.\Generated_Source\PSoC5/CapSense_CSD.c ****         uint8 indexCh1 = snsIndex + CapSense_CSD_TOTAL_SENSOR_COUNT__CH0;
 775:.\Generated_Source\PSoC5/CapSense_CSD.c ****         
 776:.\Generated_Source\PSoC5/CapSense_CSD.c ****         /* Find enabled sensor on channel 0 */
 777:.\Generated_Source\PSoC5/CapSense_CSD.c ****         do
 778:.\Generated_Source\PSoC5/CapSense_CSD.c ****         {
 779:.\Generated_Source\PSoC5/CapSense_CSD.c ****             /* Procced the scanning */
 780:.\Generated_Source\PSoC5/CapSense_CSD.c ****             indexCh0++;
 781:.\Generated_Source\PSoC5/CapSense_CSD.c ****             if (indexCh0 >= CapSense_CSD_TOTAL_SENSOR_COUNT__CH0)
 782:.\Generated_Source\PSoC5/CapSense_CSD.c ****             {
 783:.\Generated_Source\PSoC5/CapSense_CSD.c ****                 /* Lets hadle now all from CH1 */
 784:.\Generated_Source\PSoC5/CapSense_CSD.c ****                 indexCh0 = CapSense_CSD_END_OF_SCAN__CH0;
 785:.\Generated_Source\PSoC5/CapSense_CSD.c ****                 break;
 786:.\Generated_Source\PSoC5/CapSense_CSD.c ****             }
 787:.\Generated_Source\PSoC5/CapSense_CSD.c ****             
 788:.\Generated_Source\PSoC5/CapSense_CSD.c ****             posCh = (indexCh0 >> 3u);
 789:.\Generated_Source\PSoC5/CapSense_CSD.c ****             enMaskCh = 0x01u << (indexCh0 & 0x07u);
 790:.\Generated_Source\PSoC5/CapSense_CSD.c ****         }
 791:.\Generated_Source\PSoC5/CapSense_CSD.c ****         while((CapSense_CSD_SensorEnableMask[posCh] & enMaskCh) == 0u);
 792:.\Generated_Source\PSoC5/CapSense_CSD.c ****         
 793:.\Generated_Source\PSoC5/CapSense_CSD.c ****         /* Find enabled sensor on channel 1 */
 794:.\Generated_Source\PSoC5/CapSense_CSD.c ****         do
 795:.\Generated_Source\PSoC5/CapSense_CSD.c ****         {
 796:.\Generated_Source\PSoC5/CapSense_CSD.c ****             /* Procced the scanning */
 797:.\Generated_Source\PSoC5/CapSense_CSD.c ****             indexCh1++;        
 798:.\Generated_Source\PSoC5/CapSense_CSD.c ****             if (indexCh1 >= CapSense_CSD_TOTAL_SENSOR_COUNT)
 799:.\Generated_Source\PSoC5/CapSense_CSD.c ****             {
 800:.\Generated_Source\PSoC5/CapSense_CSD.c ****                 /* Lets hadle now all from CH0 */
 801:.\Generated_Source\PSoC5/CapSense_CSD.c ****                 indexCh1 = CapSense_CSD_END_OF_SCAN__CH1;
 802:.\Generated_Source\PSoC5/CapSense_CSD.c ****                 break;
 803:.\Generated_Source\PSoC5/CapSense_CSD.c ****             }
 804:.\Generated_Source\PSoC5/CapSense_CSD.c ****             
 805:.\Generated_Source\PSoC5/CapSense_CSD.c ****             posCh = (indexCh1 >> 3u);
 806:.\Generated_Source\PSoC5/CapSense_CSD.c ****             enMaskCh = 0x01u << (indexCh1 & 0x07u);
 807:.\Generated_Source\PSoC5/CapSense_CSD.c ****         } 
 808:.\Generated_Source\PSoC5/CapSense_CSD.c ****         while((CapSense_CSD_SensorEnableMask[posCh] & enMaskCh) == 0u);
 809:.\Generated_Source\PSoC5/CapSense_CSD.c ****         
 810:.\Generated_Source\PSoC5/CapSense_CSD.c ****         indexCh1 -= CapSense_CSD_TOTAL_SENSOR_COUNT__CH0;
 811:.\Generated_Source\PSoC5/CapSense_CSD.c ****         
 812:.\Generated_Source\PSoC5/CapSense_CSD.c ****         /* Find the pair to scan */
 813:.\Generated_Source\PSoC5/CapSense_CSD.c ****         if(indexCh0 == indexCh1)
 814:.\Generated_Source\PSoC5/CapSense_CSD.c ****         {
 815:.\Generated_Source\PSoC5/CapSense_CSD.c ****             /* Scans TWO Channels */
 816:.\Generated_Source\PSoC5/CapSense_CSD.c ****             snsIndex = indexCh0;
 817:.\Generated_Source\PSoC5/CapSense_CSD.c ****             
 818:.\Generated_Source\PSoC5/CapSense_CSD.c ****             CapSense_CSD_CONTROL_REG |= CapSense_CSD_CTRL_WINDOW_EN__CH0;
 819:.\Generated_Source\PSoC5/CapSense_CSD.c ****             CapSense_CSD_CONTROL_REG |= CapSense_CSD_CTRL_WINDOW_EN__CH1;
 820:.\Generated_Source\PSoC5/CapSense_CSD.c ****         }
 821:.\Generated_Source\PSoC5/CapSense_CSD.c ****         else if(indexCh0 < indexCh1)
 822:.\Generated_Source\PSoC5/CapSense_CSD.c ****         {
ARM GAS  C:\Users\yguan5\AppData\Local\Temp\ccDbifVx.s 			page 26


 823:.\Generated_Source\PSoC5/CapSense_CSD.c ****            /* Scans Channel ONE only */
 824:.\Generated_Source\PSoC5/CapSense_CSD.c ****            snsIndex = indexCh0;
 825:.\Generated_Source\PSoC5/CapSense_CSD.c ****            
 826:.\Generated_Source\PSoC5/CapSense_CSD.c ****            CapSense_CSD_CONTROL_REG |= CapSense_CSD_CTRL_WINDOW_EN__CH0;
 827:.\Generated_Source\PSoC5/CapSense_CSD.c ****            CapSense_CSD_CONTROL_REG &= ~CapSense_CSD_CTRL_WINDOW_EN__CH1;
 828:.\Generated_Source\PSoC5/CapSense_CSD.c ****         }
 829:.\Generated_Source\PSoC5/CapSense_CSD.c ****         else
 830:.\Generated_Source\PSoC5/CapSense_CSD.c ****         {
 831:.\Generated_Source\PSoC5/CapSense_CSD.c ****             /* Scans Channel TWO only */
 832:.\Generated_Source\PSoC5/CapSense_CSD.c ****             snsIndex = indexCh1;
 833:.\Generated_Source\PSoC5/CapSense_CSD.c ****             
 834:.\Generated_Source\PSoC5/CapSense_CSD.c ****             CapSense_CSD_CONTROL_REG |= CapSense_CSD_CTRL_WINDOW_EN__CH1;
 835:.\Generated_Source\PSoC5/CapSense_CSD.c ****             CapSense_CSD_CONTROL_REG &= ~CapSense_CSD_CTRL_WINDOW_EN__CH0;
 836:.\Generated_Source\PSoC5/CapSense_CSD.c ****         }
 837:.\Generated_Source\PSoC5/CapSense_CSD.c ****         
 838:.\Generated_Source\PSoC5/CapSense_CSD.c ****         return snsIndex;
 839:.\Generated_Source\PSoC5/CapSense_CSD.c ****     }
 840:.\Generated_Source\PSoC5/CapSense_CSD.c **** #endif  /* CapSense_CSD_DESIGN_TYPE == CapSense_CSD_TWO_CHANNELS_DESIGN */
 841:.\Generated_Source\PSoC5/CapSense_CSD.c **** 
 842:.\Generated_Source\PSoC5/CapSense_CSD.c **** 
 843:.\Generated_Source\PSoC5/CapSense_CSD.c **** /*******************************************************************************
 844:.\Generated_Source\PSoC5/CapSense_CSD.c **** * Function Name: CapSense_CSD_SetScanSlotSettings
 845:.\Generated_Source\PSoC5/CapSense_CSD.c **** ********************************************************************************
 846:.\Generated_Source\PSoC5/CapSense_CSD.c **** *
 847:.\Generated_Source\PSoC5/CapSense_CSD.c **** * Summary:
 848:.\Generated_Source\PSoC5/CapSense_CSD.c **** *  Sets the scan settings of the selected scan slot (sensor or pair of sensors). 
 849:.\Generated_Source\PSoC5/CapSense_CSD.c **** *  The scan settings incorporate IDAC value (for IDAC configurations) for every 
 850:.\Generated_Source\PSoC5/CapSense_CSD.c **** *  sensor and resolution. The resolution is the same for all sensors within 
 851:.\Generated_Source\PSoC5/CapSense_CSD.c **** *  widget.
 852:.\Generated_Source\PSoC5/CapSense_CSD.c **** *
 853:.\Generated_Source\PSoC5/CapSense_CSD.c **** * Parameters:
 854:.\Generated_Source\PSoC5/CapSense_CSD.c **** *  slot:  Scan slot number (sensor or pair of sensors).
 855:.\Generated_Source\PSoC5/CapSense_CSD.c **** *
 856:.\Generated_Source\PSoC5/CapSense_CSD.c **** * Return:
 857:.\Generated_Source\PSoC5/CapSense_CSD.c **** *  None
 858:.\Generated_Source\PSoC5/CapSense_CSD.c **** *
 859:.\Generated_Source\PSoC5/CapSense_CSD.c **** * Global Variables:
 860:.\Generated_Source\PSoC5/CapSense_CSD.c **** *  CapSense_CSD_idacSettings[] - used to store idac value for every sensor.
 861:.\Generated_Source\PSoC5/CapSense_CSD.c **** *  CapSense_CSD_widgetResolution[] - used to store scan resolution of every 
 862:.\Generated_Source\PSoC5/CapSense_CSD.c **** *  widget.
 863:.\Generated_Source\PSoC5/CapSense_CSD.c **** *
 864:.\Generated_Source\PSoC5/CapSense_CSD.c **** *******************************************************************************/
 865:.\Generated_Source\PSoC5/CapSense_CSD.c **** void CapSense_CSD_SetScanSlotSettings(uint8 slot) CYREENTRANT
 866:.\Generated_Source\PSoC5/CapSense_CSD.c **** {
 597              		.loc 1 866 0
 598              		.cfi_startproc
 599              		@ args = 0, pretend = 0, frame = 16
 600              		@ frame_needed = 1, uses_anonymous_args = 0
 601 0000 80B5     		push	{r7, lr}
 602              	.LCFI13:
 603              		.cfi_def_cfa_offset 8
 604 0002 84B0     		sub	sp, sp, #16
 605              	.LCFI14:
 606              		.cfi_def_cfa_offset 24
 607 0004 00AF     		add	r7, sp, #0
 608              		.cfi_offset 14, -4
 609              		.cfi_offset 7, -8
ARM GAS  C:\Users\yguan5\AppData\Local\Temp\ccDbifVx.s 			page 27


 610              	.LCFI15:
 611              		.cfi_def_cfa_register 7
 612 0006 0346     		mov	r3, r0
 613 0008 FB71     		strb	r3, [r7, #7]
 867:.\Generated_Source\PSoC5/CapSense_CSD.c ****     uint8 widget;
 868:.\Generated_Source\PSoC5/CapSense_CSD.c ****     
 869:.\Generated_Source\PSoC5/CapSense_CSD.c ****     #if (CapSense_CSD_DESIGN_TYPE == CapSense_CSD_ONE_CHANNEL_DESIGN)
 870:.\Generated_Source\PSoC5/CapSense_CSD.c ****         /* Define widget sensor belongs to */
 871:.\Generated_Source\PSoC5/CapSense_CSD.c ****         widget = CapSense_CSD_widgetNumber[slot];
 614              		.loc 1 871 0
 615 000a FA79     		ldrb	r2, [r7, #7]	@ zero_extendqisi2
 616 000c 40F20003 		movw	r3, #:lower16:CapSense_CSD_widgetNumber
 617 0010 C0F20003 		movt	r3, #:upper16:CapSense_CSD_widgetNumber
 618 0014 9B5C     		ldrb	r3, [r3, r2]
 619 0016 FB73     		strb	r3, [r7, #15]
 872:.\Generated_Source\PSoC5/CapSense_CSD.c ****         
 873:.\Generated_Source\PSoC5/CapSense_CSD.c ****         /* Set Idac Value */
 874:.\Generated_Source\PSoC5/CapSense_CSD.c ****         #if (CapSense_CSD_CURRENT_SOURCE)
 875:.\Generated_Source\PSoC5/CapSense_CSD.c ****             CapSense_CSD_IdacCH0_SetValue(CapSense_CSD_idacSettings[slot]);
 620              		.loc 1 875 0
 621 0018 FA79     		ldrb	r2, [r7, #7]	@ zero_extendqisi2
 622 001a 40F20003 		movw	r3, #:lower16:CapSense_CSD_idacSettings
 623 001e C0F20003 		movt	r3, #:upper16:CapSense_CSD_idacSettings
 624 0022 9B5C     		ldrb	r3, [r3, r2]	@ zero_extendqisi2
 625 0024 1846     		mov	r0, r3
 626 0026 FFF7FEFF 		bl	CapSense_CSD_IdacCH0_SetValue
 876:.\Generated_Source\PSoC5/CapSense_CSD.c ****         #endif  /* CapSense_CSD_CURRENT_SOURCE */
 877:.\Generated_Source\PSoC5/CapSense_CSD.c ****         
 878:.\Generated_Source\PSoC5/CapSense_CSD.c ****         /* Window PWM */
 879:.\Generated_Source\PSoC5/CapSense_CSD.c ****         #if (CapSense_CSD_IMPLEMENTATION_CH0 == CapSense_CSD_MEASURE_IMPLEMENTATION_FF)
 880:.\Generated_Source\PSoC5/CapSense_CSD.c ****             CY_SET_REG16(CapSense_CSD_PWM_CH0_PERIOD_PTR,
 881:.\Generated_Source\PSoC5/CapSense_CSD.c ****                 ((uint16) CapSense_CSD_widgetResolution[widget] << 8u) | CapSense_CSD_MEASURE_FULL_
 882:.\Generated_Source\PSoC5/CapSense_CSD.c ****         #else
 883:.\Generated_Source\PSoC5/CapSense_CSD.c ****             CapSense_CSD_PWM_CH0_PERIOD_HI_REG = CapSense_CSD_widgetResolution[widget];
 627              		.loc 1 883 0
 628 002a 46F25753 		movw	r3, #:lower16:1073767767
 629 002e C4F20003 		movt	r3, #:upper16:1073767767
 630 0032 F97B     		ldrb	r1, [r7, #15]	@ zero_extendqisi2
 631 0034 40F20002 		movw	r2, #:lower16:CapSense_CSD_widgetResolution
 632 0038 C0F20002 		movt	r2, #:upper16:CapSense_CSD_widgetResolution
 633 003c 525C     		ldrb	r2, [r2, r1]	@ zero_extendqisi2
 634 003e 1A70     		strb	r2, [r3, #0]
 884:.\Generated_Source\PSoC5/CapSense_CSD.c ****         #endif  /* (CapSense_CSD_IMPLEMENTATION_CH0 == CapSense_CSD_MEASURE_IMPLEMENTATION_FF) */ 
 885:.\Generated_Source\PSoC5/CapSense_CSD.c **** 
 886:.\Generated_Source\PSoC5/CapSense_CSD.c ****         #if ( (CapSense_CSD_MULTIPLE_PRESCALER_ENABLED) || \
 887:.\Generated_Source\PSoC5/CapSense_CSD.c ****               (CapSense_CSD_TUNING_METHOD == CapSense_CSD_AUTO_TUNING) )
 888:.\Generated_Source\PSoC5/CapSense_CSD.c ****             CapSense_CSD_SetPrescaler(CapSense_CSD_AnalogSwitchDivider[slot]);
 889:.\Generated_Source\PSoC5/CapSense_CSD.c ****         #elif (CapSense_CSD_PRESCALER_OPTIONS)
 890:.\Generated_Source\PSoC5/CapSense_CSD.c ****             CapSense_CSD_SetPrescaler(CapSense_CSD_AnalogSwitchDivider);
 635              		.loc 1 890 0
 636 0040 40F20003 		movw	r3, #:lower16:CapSense_CSD_AnalogSwitchDivider
 637 0044 C0F20003 		movt	r3, #:upper16:CapSense_CSD_AnalogSwitchDivider
 638 0048 1B78     		ldrb	r3, [r3, #0]	@ zero_extendqisi2
 639 004a 1846     		mov	r0, r3
 640 004c FFF7FEFF 		bl	CapSense_CSD_SetPrescaler
 891:.\Generated_Source\PSoC5/CapSense_CSD.c ****         #endif /* ((CapSense_CSD_MULTIPLE_PRESCALER_ENABLED) || \
 892:.\Generated_Source\PSoC5/CapSense_CSD.c ****                *   (CapSense_CSD_TUNING_METHOD == CapSense_CSD_AUTO_TUNING))
ARM GAS  C:\Users\yguan5\AppData\Local\Temp\ccDbifVx.s 			page 28


 893:.\Generated_Source\PSoC5/CapSense_CSD.c ****                */
 894:.\Generated_Source\PSoC5/CapSense_CSD.c **** 
 895:.\Generated_Source\PSoC5/CapSense_CSD.c ****     #else
 896:.\Generated_Source\PSoC5/CapSense_CSD.c ****         if(slot < CapSense_CSD_TOTAL_SENSOR_COUNT__CH0)
 897:.\Generated_Source\PSoC5/CapSense_CSD.c ****         {
 898:.\Generated_Source\PSoC5/CapSense_CSD.c ****             /* Define widget sensor belongs to */
 899:.\Generated_Source\PSoC5/CapSense_CSD.c ****             widget = CapSense_CSD_widgetNumber[slot];
 900:.\Generated_Source\PSoC5/CapSense_CSD.c ****             
 901:.\Generated_Source\PSoC5/CapSense_CSD.c ****             /* Set Idac Value */
 902:.\Generated_Source\PSoC5/CapSense_CSD.c ****             #if (CapSense_CSD_CURRENT_SOURCE)
 903:.\Generated_Source\PSoC5/CapSense_CSD.c ****                 CapSense_CSD_IdacCH0_SetValue(CapSense_CSD_idacSettings[slot]);
 904:.\Generated_Source\PSoC5/CapSense_CSD.c ****             #endif  /* CapSense_CSD_CURRENT_SOURCE */
 905:.\Generated_Source\PSoC5/CapSense_CSD.c ****             
 906:.\Generated_Source\PSoC5/CapSense_CSD.c ****             /* Set Pwm Resolution */
 907:.\Generated_Source\PSoC5/CapSense_CSD.c ****             #if (CapSense_CSD_IMPLEMENTATION_CH0 == CapSense_CSD_MEASURE_IMPLEMENTATION_FF)
 908:.\Generated_Source\PSoC5/CapSense_CSD.c ****                 CY_SET_REG16(CapSense_CSD_PWM_CH0_PERIOD_PTR,
 909:.\Generated_Source\PSoC5/CapSense_CSD.c ****                   ((uint16) CapSense_CSD_widgetResolution[widget] << 8u) | CapSense_CSD_MEASURE_FUL
 910:.\Generated_Source\PSoC5/CapSense_CSD.c ****             #else
 911:.\Generated_Source\PSoC5/CapSense_CSD.c ****                 CapSense_CSD_PWM_CH0_PERIOD_HI_REG = CapSense_CSD_widgetResolution[widget];
 912:.\Generated_Source\PSoC5/CapSense_CSD.c ****             #endif  /* (CapSense_CSD_IMPLEMENTATION_CH0 == CapSense_CSD_MEASURE_IMPLEMENTATION_FF)*
 913:.\Generated_Source\PSoC5/CapSense_CSD.c ****         }
 914:.\Generated_Source\PSoC5/CapSense_CSD.c ****         
 915:.\Generated_Source\PSoC5/CapSense_CSD.c ****         if(slot < CapSense_CSD_TOTAL_SENSOR_COUNT__CH1)
 916:.\Generated_Source\PSoC5/CapSense_CSD.c ****         {
 917:.\Generated_Source\PSoC5/CapSense_CSD.c ****             widget = CapSense_CSD_widgetNumber[slot+CapSense_CSD_TOTAL_SENSOR_COUNT__CH0];
 918:.\Generated_Source\PSoC5/CapSense_CSD.c ****         
 919:.\Generated_Source\PSoC5/CapSense_CSD.c ****             /* Set Idac Value */
 920:.\Generated_Source\PSoC5/CapSense_CSD.c ****             #if (CapSense_CSD_CURRENT_SOURCE)
 921:.\Generated_Source\PSoC5/CapSense_CSD.c ****                 CapSense_CSD_IdacCH1_SetValue(CapSense_CSD_idacSettings[slot+
 922:.\Generated_Source\PSoC5/CapSense_CSD.c ****                                                                              CapSense_CSD_TOTAL_SEN
 923:.\Generated_Source\PSoC5/CapSense_CSD.c ****             #endif  /* CapSense_CSD_CURRENT_SOURCE */
 924:.\Generated_Source\PSoC5/CapSense_CSD.c ****             
 925:.\Generated_Source\PSoC5/CapSense_CSD.c ****             /* Set Pwm Resolution */
 926:.\Generated_Source\PSoC5/CapSense_CSD.c ****             #if (CapSense_CSD_IMPLEMENTATION_CH1 == CapSense_CSD_MEASURE_IMPLEMENTATION_FF)
 927:.\Generated_Source\PSoC5/CapSense_CSD.c ****                 CY_SET_REG16(CapSense_CSD_PWM_CH1_PERIOD_PTR,
 928:.\Generated_Source\PSoC5/CapSense_CSD.c ****                   ((uint16) CapSense_CSD_widgetResolution[widget] << 8u) | CapSense_CSD_MEASURE_FUL
 929:.\Generated_Source\PSoC5/CapSense_CSD.c ****             #else
 930:.\Generated_Source\PSoC5/CapSense_CSD.c ****                 CapSense_CSD_PWM_CH1_PERIOD_HI_REG = CapSense_CSD_widgetResolution[widget];
 931:.\Generated_Source\PSoC5/CapSense_CSD.c ****             #endif  /* (CapSense_CSD_IMPLEMENTATION_CH1 == CapSense_CSD_MEASURE_IMPLEMENTATION_FF)*
 932:.\Generated_Source\PSoC5/CapSense_CSD.c ****         }
 933:.\Generated_Source\PSoC5/CapSense_CSD.c **** 
 934:.\Generated_Source\PSoC5/CapSense_CSD.c ****         #if ( (CapSense_CSD_MULTIPLE_PRESCALER_ENABLED) || \
 935:.\Generated_Source\PSoC5/CapSense_CSD.c ****               (CapSense_CSD_TUNING_METHOD == CapSense_CSD_AUTO_TUNING) )
 936:.\Generated_Source\PSoC5/CapSense_CSD.c ****             CapSense_CSD_SetPrescaler(CapSense_CSD_AnalogSwitchDivider[slot]);
 937:.\Generated_Source\PSoC5/CapSense_CSD.c ****         #elif (CapSense_CSD_PRESCALER_OPTIONS)
 938:.\Generated_Source\PSoC5/CapSense_CSD.c ****             CapSense_CSD_SetPrescaler(CapSense_CSD_AnalogSwitchDivider);
 939:.\Generated_Source\PSoC5/CapSense_CSD.c ****         #endif /* ((CapSense_CSD_MULTIPLE_PRESCALER_ENABLED) || \
 940:.\Generated_Source\PSoC5/CapSense_CSD.c ****                *   (CapSense_CSD_TUNING_METHOD == CapSense_CSD_AUTO_TUNING))
 941:.\Generated_Source\PSoC5/CapSense_CSD.c ****                */
 942:.\Generated_Source\PSoC5/CapSense_CSD.c **** 
 943:.\Generated_Source\PSoC5/CapSense_CSD.c ****     #endif  /* CapSense_CSD_DESIGN_TYPE */
 944:.\Generated_Source\PSoC5/CapSense_CSD.c **** }
 641              		.loc 1 944 0
 642 0050 07F11007 		add	r7, r7, #16
 643 0054 BD46     		mov	sp, r7
 644 0056 80BD     		pop	{r7, pc}
 645              		.cfi_endproc
ARM GAS  C:\Users\yguan5\AppData\Local\Temp\ccDbifVx.s 			page 29


 646              	.LFE5:
 647              		.size	CapSense_CSD_SetScanSlotSettings, .-CapSense_CSD_SetScanSlotSettings
 648              		.section	.text.CapSense_CSD_ScanSensor,"ax",%progbits
 649              		.align	2
 650              		.global	CapSense_CSD_ScanSensor
 651              		.thumb
 652              		.thumb_func
 653              		.type	CapSense_CSD_ScanSensor, %function
 654              	CapSense_CSD_ScanSensor:
 655              	.LFB6:
 945:.\Generated_Source\PSoC5/CapSense_CSD.c **** 
 946:.\Generated_Source\PSoC5/CapSense_CSD.c **** 
 947:.\Generated_Source\PSoC5/CapSense_CSD.c **** /*******************************************************************************
 948:.\Generated_Source\PSoC5/CapSense_CSD.c **** * Function Name: CapSense_CSD_ScanSensor
 949:.\Generated_Source\PSoC5/CapSense_CSD.c **** ********************************************************************************
 950:.\Generated_Source\PSoC5/CapSense_CSD.c **** *
 951:.\Generated_Source\PSoC5/CapSense_CSD.c **** * Summary:
 952:.\Generated_Source\PSoC5/CapSense_CSD.c **** *  Sets scan settings and starts scanning a sensor or pair of combined sensors
 953:.\Generated_Source\PSoC5/CapSense_CSD.c **** *  on each channel. If two channels are configured, two sensors may be scanned 
 954:.\Generated_Source\PSoC5/CapSense_CSD.c **** *  at the same time. After scanning is complete the isr copies the measured 
 955:.\Generated_Source\PSoC5/CapSense_CSD.c **** *  sensor raw data to the global array. Use of the isr ensures this function 
 956:.\Generated_Source\PSoC5/CapSense_CSD.c **** *  is non-blocking. Each sensor has a unique number within the sensor array. 
 957:.\Generated_Source\PSoC5/CapSense_CSD.c **** *  This number is assigned by the CapSense customizer in sequence.
 958:.\Generated_Source\PSoC5/CapSense_CSD.c **** *
 959:.\Generated_Source\PSoC5/CapSense_CSD.c **** * Parameters:
 960:.\Generated_Source\PSoC5/CapSense_CSD.c **** *  sensor:  Sensor number.
 961:.\Generated_Source\PSoC5/CapSense_CSD.c **** *
 962:.\Generated_Source\PSoC5/CapSense_CSD.c **** * Return:
 963:.\Generated_Source\PSoC5/CapSense_CSD.c **** *  None
 964:.\Generated_Source\PSoC5/CapSense_CSD.c **** *
 965:.\Generated_Source\PSoC5/CapSense_CSD.c **** * Global Variables:
 966:.\Generated_Source\PSoC5/CapSense_CSD.c **** *  CapSense_CSD_csv - used to provide status and mode of scanning process. 
 967:.\Generated_Source\PSoC5/CapSense_CSD.c **** *  Sets busy status(scan in progress) and mode of scan as single scan.
 968:.\Generated_Source\PSoC5/CapSense_CSD.c **** *  For two channel design the additional bits are set to define if scan a 
 969:.\Generated_Source\PSoC5/CapSense_CSD.c **** *  pair of sensors or single one.
 970:.\Generated_Source\PSoC5/CapSense_CSD.c **** *  CapSense_CSD_sensorIndex - used to store sensor scanning sensor number.
 971:.\Generated_Source\PSoC5/CapSense_CSD.c **** *  Sets to provided sensor argument.
 972:.\Generated_Source\PSoC5/CapSense_CSD.c **** *
 973:.\Generated_Source\PSoC5/CapSense_CSD.c **** * Reentrant:
 974:.\Generated_Source\PSoC5/CapSense_CSD.c **** *  No
 975:.\Generated_Source\PSoC5/CapSense_CSD.c **** *
 976:.\Generated_Source\PSoC5/CapSense_CSD.c **** *******************************************************************************/
 977:.\Generated_Source\PSoC5/CapSense_CSD.c **** void CapSense_CSD_ScanSensor(uint8 sensor)  
 978:.\Generated_Source\PSoC5/CapSense_CSD.c **** {
 656              		.loc 1 978 0
 657              		.cfi_startproc
 658              		@ args = 0, pretend = 0, frame = 8
 659              		@ frame_needed = 1, uses_anonymous_args = 0
 660 0000 80B5     		push	{r7, lr}
 661              	.LCFI16:
 662              		.cfi_def_cfa_offset 8
 663 0002 82B0     		sub	sp, sp, #8
 664              	.LCFI17:
 665              		.cfi_def_cfa_offset 16
 666 0004 00AF     		add	r7, sp, #0
 667              		.cfi_offset 14, -4
 668              		.cfi_offset 7, -8
ARM GAS  C:\Users\yguan5\AppData\Local\Temp\ccDbifVx.s 			page 30


 669              	.LCFI18:
 670              		.cfi_def_cfa_register 7
 671 0006 0346     		mov	r3, r0
 672 0008 FB71     		strb	r3, [r7, #7]
 979:.\Generated_Source\PSoC5/CapSense_CSD.c ****     /* Clears status/control variable and set sensorIndex */
 980:.\Generated_Source\PSoC5/CapSense_CSD.c ****     CapSense_CSD_csv = 0u;
 673              		.loc 1 980 0
 674 000a 40F20003 		movw	r3, #:lower16:CapSense_CSD_csv
 675 000e C0F20003 		movt	r3, #:upper16:CapSense_CSD_csv
 676 0012 4FF00002 		mov	r2, #0
 677 0016 1A70     		strb	r2, [r3, #0]
 981:.\Generated_Source\PSoC5/CapSense_CSD.c ****     CapSense_CSD_sensorIndex = sensor;
 678              		.loc 1 981 0
 679 0018 40F20003 		movw	r3, #:lower16:CapSense_CSD_sensorIndex
 680 001c C0F20003 		movt	r3, #:upper16:CapSense_CSD_sensorIndex
 681 0020 FA79     		ldrb	r2, [r7, #7]
 682 0022 1A70     		strb	r2, [r3, #0]
 982:.\Generated_Source\PSoC5/CapSense_CSD.c ****     
 983:.\Generated_Source\PSoC5/CapSense_CSD.c ****     #if (CapSense_CSD_DESIGN_TYPE == CapSense_CSD_ONE_CHANNEL_DESIGN)
 984:.\Generated_Source\PSoC5/CapSense_CSD.c ****         /* Start of sensor scan */
 985:.\Generated_Source\PSoC5/CapSense_CSD.c ****         CapSense_CSD_csv = (CapSense_CSD_SW_STS_BUSY | CapSense_CSD_SW_CTRL_SINGLE_SCAN);
 683              		.loc 1 985 0
 684 0024 40F20003 		movw	r3, #:lower16:CapSense_CSD_csv
 685 0028 C0F20003 		movt	r3, #:upper16:CapSense_CSD_csv
 686 002c 6FF07E02 		mvn	r2, #126
 687 0030 1A70     		strb	r2, [r3, #0]
 986:.\Generated_Source\PSoC5/CapSense_CSD.c ****         CapSense_CSD_PreScan(sensor);
 688              		.loc 1 986 0
 689 0032 FB79     		ldrb	r3, [r7, #7]	@ zero_extendqisi2
 690 0034 1846     		mov	r0, r3
 691 0036 FFF7FEFF 		bl	CapSense_CSD_PreScan
 987:.\Generated_Source\PSoC5/CapSense_CSD.c ****         
 988:.\Generated_Source\PSoC5/CapSense_CSD.c ****     #else
 989:.\Generated_Source\PSoC5/CapSense_CSD.c ****         /* CH0: check end of scan conditions */
 990:.\Generated_Source\PSoC5/CapSense_CSD.c ****         if(sensor < CapSense_CSD_TOTAL_SENSOR_COUNT__CH0)
 991:.\Generated_Source\PSoC5/CapSense_CSD.c ****         {
 992:.\Generated_Source\PSoC5/CapSense_CSD.c ****             CapSense_CSD_CONTROL_REG |= CapSense_CSD_CTRL_WINDOW_EN__CH0;
 993:.\Generated_Source\PSoC5/CapSense_CSD.c ****         }
 994:.\Generated_Source\PSoC5/CapSense_CSD.c ****         else
 995:.\Generated_Source\PSoC5/CapSense_CSD.c ****         {
 996:.\Generated_Source\PSoC5/CapSense_CSD.c ****             CapSense_CSD_CONTROL_REG &= ~CapSense_CSD_CTRL_WINDOW_EN__CH0;
 997:.\Generated_Source\PSoC5/CapSense_CSD.c ****         }
 998:.\Generated_Source\PSoC5/CapSense_CSD.c ****         
 999:.\Generated_Source\PSoC5/CapSense_CSD.c ****         /* CH1: check end of scan conditions */
1000:.\Generated_Source\PSoC5/CapSense_CSD.c ****         if(sensor < CapSense_CSD_TOTAL_SENSOR_COUNT__CH1)
1001:.\Generated_Source\PSoC5/CapSense_CSD.c ****         {
1002:.\Generated_Source\PSoC5/CapSense_CSD.c ****             CapSense_CSD_CONTROL_REG |= CapSense_CSD_CTRL_WINDOW_EN__CH1;
1003:.\Generated_Source\PSoC5/CapSense_CSD.c ****         }
1004:.\Generated_Source\PSoC5/CapSense_CSD.c ****         else
1005:.\Generated_Source\PSoC5/CapSense_CSD.c ****         {
1006:.\Generated_Source\PSoC5/CapSense_CSD.c ****             CapSense_CSD_CONTROL_REG &= ~CapSense_CSD_CTRL_WINDOW_EN__CH1;
1007:.\Generated_Source\PSoC5/CapSense_CSD.c ****         }
1008:.\Generated_Source\PSoC5/CapSense_CSD.c ****         
1009:.\Generated_Source\PSoC5/CapSense_CSD.c ****         /* Start sensor scan */
1010:.\Generated_Source\PSoC5/CapSense_CSD.c ****         if( ((CapSense_CSD_CONTROL_REG & CapSense_CSD_CTRL_WINDOW_EN__CH0) != 0u) || 
1011:.\Generated_Source\PSoC5/CapSense_CSD.c ****             ((CapSense_CSD_CONTROL_REG & CapSense_CSD_CTRL_WINDOW_EN__CH1) != 0u) )
1012:.\Generated_Source\PSoC5/CapSense_CSD.c ****         {
ARM GAS  C:\Users\yguan5\AppData\Local\Temp\ccDbifVx.s 			page 31


1013:.\Generated_Source\PSoC5/CapSense_CSD.c ****         
1014:.\Generated_Source\PSoC5/CapSense_CSD.c ****             CapSense_CSD_csv |= (CapSense_CSD_SW_STS_BUSY | CapSense_CSD_SW_CTRL_SINGLE_SCAN);
1015:.\Generated_Source\PSoC5/CapSense_CSD.c ****             CapSense_CSD_PreScan(sensor);
1016:.\Generated_Source\PSoC5/CapSense_CSD.c ****         }
1017:.\Generated_Source\PSoC5/CapSense_CSD.c ****         
1018:.\Generated_Source\PSoC5/CapSense_CSD.c ****     #endif  /* CapSense_CSD_DESIGN_TYPE */
1019:.\Generated_Source\PSoC5/CapSense_CSD.c **** }
 692              		.loc 1 1019 0
 693 003a 07F10807 		add	r7, r7, #8
 694 003e BD46     		mov	sp, r7
 695 0040 80BD     		pop	{r7, pc}
 696              		.cfi_endproc
 697              	.LFE6:
 698              		.size	CapSense_CSD_ScanSensor, .-CapSense_CSD_ScanSensor
 699 0042 00BF     		.section	.text.CapSense_CSD_ScanEnabledWidgets,"ax",%progbits
 700              		.align	2
 701              		.global	CapSense_CSD_ScanEnabledWidgets
 702              		.thumb
 703              		.thumb_func
 704              		.type	CapSense_CSD_ScanEnabledWidgets, %function
 705              	CapSense_CSD_ScanEnabledWidgets:
 706              	.LFB7:
1020:.\Generated_Source\PSoC5/CapSense_CSD.c **** 
1021:.\Generated_Source\PSoC5/CapSense_CSD.c **** 
1022:.\Generated_Source\PSoC5/CapSense_CSD.c **** /*******************************************************************************
1023:.\Generated_Source\PSoC5/CapSense_CSD.c **** * Function Name: CapSense_CSD_ScanEnableWidgets
1024:.\Generated_Source\PSoC5/CapSense_CSD.c **** ********************************************************************************
1025:.\Generated_Source\PSoC5/CapSense_CSD.c **** *
1026:.\Generated_Source\PSoC5/CapSense_CSD.c **** * Summary:
1027:.\Generated_Source\PSoC5/CapSense_CSD.c **** *  Scans all of the enabled widgets. Starts scanning a sensor or pair of sensors 
1028:.\Generated_Source\PSoC5/CapSense_CSD.c **** *  within enabled widget. The isr proceeding scanning next sensor or pair till 
1029:.\Generated_Source\PSoC5/CapSense_CSD.c **** *  all enabled widgets will be scanned. Use of the isr ensures this function is 
1030:.\Generated_Source\PSoC5/CapSense_CSD.c **** *  non-blocking. All widgets are enabled by default except proximity widgets. 
1031:.\Generated_Source\PSoC5/CapSense_CSD.c **** *  Proximity widgets must be manually enabled as their long scan time is 
1032:.\Generated_Source\PSoC5/CapSense_CSD.c **** *  incompatible with fast response desired of other widget types.
1033:.\Generated_Source\PSoC5/CapSense_CSD.c **** *
1034:.\Generated_Source\PSoC5/CapSense_CSD.c **** * Parameters:
1035:.\Generated_Source\PSoC5/CapSense_CSD.c **** *  None
1036:.\Generated_Source\PSoC5/CapSense_CSD.c **** *
1037:.\Generated_Source\PSoC5/CapSense_CSD.c **** * Return:
1038:.\Generated_Source\PSoC5/CapSense_CSD.c **** *  None
1039:.\Generated_Source\PSoC5/CapSense_CSD.c **** *
1040:.\Generated_Source\PSoC5/CapSense_CSD.c **** * Global Variables:
1041:.\Generated_Source\PSoC5/CapSense_CSD.c **** *  CapSense_CSD_csv - used to provide status and mode of scanning process. 
1042:.\Generated_Source\PSoC5/CapSense_CSD.c **** *  Sets busy status(scan in progress) and clears single scan mode.
1043:.\Generated_Source\PSoC5/CapSense_CSD.c **** *  For two channel design the additional bits are set to define if scan a 
1044:.\Generated_Source\PSoC5/CapSense_CSD.c **** *  pair of sensors or single one. 
1045:.\Generated_Source\PSoC5/CapSense_CSD.c **** *  CapSense_CSD_sensorIndex - used to store sensor scanning sensor number.
1046:.\Generated_Source\PSoC5/CapSense_CSD.c **** *  Sets to 0xFF and provided to function CapSense_CSD_FindNextSensor or
1047:.\Generated_Source\PSoC5/CapSense_CSD.c **** *  CapSense_CSD_FindNextPair, these functions starts with sensor index
1048:.\Generated_Source\PSoC5/CapSense_CSD.c **** *  increment and overflow of uint8 gives desired index 0.
1049:.\Generated_Source\PSoC5/CapSense_CSD.c **** *
1050:.\Generated_Source\PSoC5/CapSense_CSD.c **** * Reentrant:
1051:.\Generated_Source\PSoC5/CapSense_CSD.c **** *  No
1052:.\Generated_Source\PSoC5/CapSense_CSD.c **** *
1053:.\Generated_Source\PSoC5/CapSense_CSD.c **** *******************************************************************************/
1054:.\Generated_Source\PSoC5/CapSense_CSD.c **** void CapSense_CSD_ScanEnabledWidgets(void) 
ARM GAS  C:\Users\yguan5\AppData\Local\Temp\ccDbifVx.s 			page 32


1055:.\Generated_Source\PSoC5/CapSense_CSD.c **** {
 707              		.loc 1 1055 0
 708              		.cfi_startproc
 709              		@ args = 0, pretend = 0, frame = 0
 710              		@ frame_needed = 1, uses_anonymous_args = 0
 711 0000 80B5     		push	{r7, lr}
 712              	.LCFI19:
 713              		.cfi_def_cfa_offset 8
 714 0002 00AF     		add	r7, sp, #0
 715              		.cfi_offset 14, -4
 716              		.cfi_offset 7, -8
 717              	.LCFI20:
 718              		.cfi_def_cfa_register 7
1056:.\Generated_Source\PSoC5/CapSense_CSD.c ****     /* Clears status/control variable and set sensorIndex */
1057:.\Generated_Source\PSoC5/CapSense_CSD.c ****     CapSense_CSD_csv = 0u;
 719              		.loc 1 1057 0
 720 0004 40F20003 		movw	r3, #:lower16:CapSense_CSD_csv
 721 0008 C0F20003 		movt	r3, #:upper16:CapSense_CSD_csv
 722 000c 4FF00002 		mov	r2, #0
 723 0010 1A70     		strb	r2, [r3, #0]
1058:.\Generated_Source\PSoC5/CapSense_CSD.c ****     CapSense_CSD_sensorIndex = 0xFFu;
 724              		.loc 1 1058 0
 725 0012 40F20003 		movw	r3, #:lower16:CapSense_CSD_sensorIndex
 726 0016 C0F20003 		movt	r3, #:upper16:CapSense_CSD_sensorIndex
 727 001a 4FF0FF32 		mov	r2, #-1
 728 001e 1A70     		strb	r2, [r3, #0]
1059:.\Generated_Source\PSoC5/CapSense_CSD.c ****     
1060:.\Generated_Source\PSoC5/CapSense_CSD.c ****     #if (CapSense_CSD_DESIGN_TYPE == CapSense_CSD_ONE_CHANNEL_DESIGN)
1061:.\Generated_Source\PSoC5/CapSense_CSD.c ****         /* Find next sensor */
1062:.\Generated_Source\PSoC5/CapSense_CSD.c ****         CapSense_CSD_sensorIndex = CapSense_CSD_FindNextSensor(CapSense_CSD_sensorIndex);
 729              		.loc 1 1062 0
 730 0020 40F20003 		movw	r3, #:lower16:CapSense_CSD_sensorIndex
 731 0024 C0F20003 		movt	r3, #:upper16:CapSense_CSD_sensorIndex
 732 0028 1B78     		ldrb	r3, [r3, #0]
 733 002a DBB2     		uxtb	r3, r3
 734 002c 1846     		mov	r0, r3
 735 002e FFF7FEFF 		bl	CapSense_CSD_FindNextSensor
 736 0032 0346     		mov	r3, r0
 737 0034 1A46     		mov	r2, r3
 738 0036 40F20003 		movw	r3, #:lower16:CapSense_CSD_sensorIndex
 739 003a C0F20003 		movt	r3, #:upper16:CapSense_CSD_sensorIndex
 740 003e 1A70     		strb	r2, [r3, #0]
1063:.\Generated_Source\PSoC5/CapSense_CSD.c **** 
1064:.\Generated_Source\PSoC5/CapSense_CSD.c ****         /* Check end of scan condition */
1065:.\Generated_Source\PSoC5/CapSense_CSD.c ****         if(CapSense_CSD_sensorIndex < CapSense_CSD_TOTAL_SENSOR_COUNT)
 741              		.loc 1 1065 0
 742 0040 40F20003 		movw	r3, #:lower16:CapSense_CSD_sensorIndex
 743 0044 C0F20003 		movt	r3, #:upper16:CapSense_CSD_sensorIndex
 744 0048 1B78     		ldrb	r3, [r3, #0]
 745 004a DBB2     		uxtb	r3, r3
 746 004c 062B     		cmp	r3, #6
 747 004e 16D8     		bhi	.L22
1066:.\Generated_Source\PSoC5/CapSense_CSD.c ****         {
1067:.\Generated_Source\PSoC5/CapSense_CSD.c ****             CapSense_CSD_csv |= CapSense_CSD_SW_STS_BUSY;
 748              		.loc 1 1067 0
 749 0050 40F20003 		movw	r3, #:lower16:CapSense_CSD_csv
 750 0054 C0F20003 		movt	r3, #:upper16:CapSense_CSD_csv
ARM GAS  C:\Users\yguan5\AppData\Local\Temp\ccDbifVx.s 			page 33


 751 0058 1B78     		ldrb	r3, [r3, #0]
 752 005a DBB2     		uxtb	r3, r3
 753 005c 43F00103 		orr	r3, r3, #1
 754 0060 DAB2     		uxtb	r2, r3
 755 0062 40F20003 		movw	r3, #:lower16:CapSense_CSD_csv
 756 0066 C0F20003 		movt	r3, #:upper16:CapSense_CSD_csv
 757 006a 1A70     		strb	r2, [r3, #0]
1068:.\Generated_Source\PSoC5/CapSense_CSD.c ****             CapSense_CSD_PreScan(CapSense_CSD_sensorIndex);
 758              		.loc 1 1068 0
 759 006c 40F20003 		movw	r3, #:lower16:CapSense_CSD_sensorIndex
 760 0070 C0F20003 		movt	r3, #:upper16:CapSense_CSD_sensorIndex
 761 0074 1B78     		ldrb	r3, [r3, #0]
 762 0076 DBB2     		uxtb	r3, r3
 763 0078 1846     		mov	r0, r3
 764 007a FFF7FEFF 		bl	CapSense_CSD_PreScan
 765              	.L22:
1069:.\Generated_Source\PSoC5/CapSense_CSD.c ****         }
1070:.\Generated_Source\PSoC5/CapSense_CSD.c ****         
1071:.\Generated_Source\PSoC5/CapSense_CSD.c ****     #else
1072:.\Generated_Source\PSoC5/CapSense_CSD.c ****         /* Find next sensor and set proper control register */
1073:.\Generated_Source\PSoC5/CapSense_CSD.c ****         CapSense_CSD_sensorIndex = CapSense_CSD_FindNextPair(CapSense_CSD_sensorIndex);
1074:.\Generated_Source\PSoC5/CapSense_CSD.c ****         
1075:.\Generated_Source\PSoC5/CapSense_CSD.c ****         /* Start sensor scan */
1076:.\Generated_Source\PSoC5/CapSense_CSD.c ****         if((CapSense_CSD_sensorIndex < CapSense_CSD_TOTAL_SENSOR_COUNT__CH0) || 
1077:.\Generated_Source\PSoC5/CapSense_CSD.c ****            (CapSense_CSD_sensorIndex < CapSense_CSD_TOTAL_SENSOR_COUNT__CH1))
1078:.\Generated_Source\PSoC5/CapSense_CSD.c ****         {
1079:.\Generated_Source\PSoC5/CapSense_CSD.c ****             CapSense_CSD_csv |= CapSense_CSD_SW_STS_BUSY;
1080:.\Generated_Source\PSoC5/CapSense_CSD.c ****             CapSense_CSD_PreScan(CapSense_CSD_sensorIndex);
1081:.\Generated_Source\PSoC5/CapSense_CSD.c ****         }
1082:.\Generated_Source\PSoC5/CapSense_CSD.c ****         
1083:.\Generated_Source\PSoC5/CapSense_CSD.c ****     #endif  /* CapSense_CSD_DESIGN_TYPE */
1084:.\Generated_Source\PSoC5/CapSense_CSD.c **** }
 766              		.loc 1 1084 0
 767 007e 80BD     		pop	{r7, pc}
 768              		.cfi_endproc
 769              	.LFE7:
 770              		.size	CapSense_CSD_ScanEnabledWidgets, .-CapSense_CSD_ScanEnabledWidgets
 771              		.section	.text.CapSense_CSD_IsBusy,"ax",%progbits
 772              		.align	2
 773              		.global	CapSense_CSD_IsBusy
 774              		.thumb
 775              		.thumb_func
 776              		.type	CapSense_CSD_IsBusy, %function
 777              	CapSense_CSD_IsBusy:
 778              	.LFB8:
1085:.\Generated_Source\PSoC5/CapSense_CSD.c **** 
1086:.\Generated_Source\PSoC5/CapSense_CSD.c **** 
1087:.\Generated_Source\PSoC5/CapSense_CSD.c **** /*******************************************************************************
1088:.\Generated_Source\PSoC5/CapSense_CSD.c **** * Function Name: CapSense_CSD_IsBusy
1089:.\Generated_Source\PSoC5/CapSense_CSD.c **** ********************************************************************************
1090:.\Generated_Source\PSoC5/CapSense_CSD.c **** *
1091:.\Generated_Source\PSoC5/CapSense_CSD.c **** * Summary:
1092:.\Generated_Source\PSoC5/CapSense_CSD.c **** *  Returns the state of CapSense component. The 1 means that scanning in 
1093:.\Generated_Source\PSoC5/CapSense_CSD.c **** *  progress and 0 means that scanning is complete.
1094:.\Generated_Source\PSoC5/CapSense_CSD.c **** *
1095:.\Generated_Source\PSoC5/CapSense_CSD.c **** * Parameters:
1096:.\Generated_Source\PSoC5/CapSense_CSD.c **** *  None
ARM GAS  C:\Users\yguan5\AppData\Local\Temp\ccDbifVx.s 			page 34


1097:.\Generated_Source\PSoC5/CapSense_CSD.c **** *
1098:.\Generated_Source\PSoC5/CapSense_CSD.c **** * Return:
1099:.\Generated_Source\PSoC5/CapSense_CSD.c **** *  Returns the state of scanning. 1 - scanning in progress, 0 - scanning 
1100:.\Generated_Source\PSoC5/CapSense_CSD.c **** *  completed.
1101:.\Generated_Source\PSoC5/CapSense_CSD.c **** *
1102:.\Generated_Source\PSoC5/CapSense_CSD.c **** * Global Variables:
1103:.\Generated_Source\PSoC5/CapSense_CSD.c **** *  CapSense_CSD_csv - used to provide status and mode of scanning process. 
1104:.\Generated_Source\PSoC5/CapSense_CSD.c **** *  Checks the busy status.
1105:.\Generated_Source\PSoC5/CapSense_CSD.c **** *
1106:.\Generated_Source\PSoC5/CapSense_CSD.c **** *******************************************************************************/
1107:.\Generated_Source\PSoC5/CapSense_CSD.c **** uint8 CapSense_CSD_IsBusy(void) 
1108:.\Generated_Source\PSoC5/CapSense_CSD.c **** {
 779              		.loc 1 1108 0
 780              		.cfi_startproc
 781              		@ args = 0, pretend = 0, frame = 0
 782              		@ frame_needed = 1, uses_anonymous_args = 0
 783              		@ link register save eliminated.
 784 0000 80B4     		push	{r7}
 785              	.LCFI21:
 786              		.cfi_def_cfa_offset 4
 787 0002 00AF     		add	r7, sp, #0
 788              		.cfi_offset 7, -4
 789              	.LCFI22:
 790              		.cfi_def_cfa_register 7
1109:.\Generated_Source\PSoC5/CapSense_CSD.c ****     return ((CapSense_CSD_csv & CapSense_CSD_SW_STS_BUSY) == 
 791              		.loc 1 1109 0
 792 0004 40F20003 		movw	r3, #:lower16:CapSense_CSD_csv
 793 0008 C0F20003 		movt	r3, #:upper16:CapSense_CSD_csv
 794 000c 1B78     		ldrb	r3, [r3, #0]
 795 000e DBB2     		uxtb	r3, r3
 796 0010 03F00103 		and	r3, r3, #1
 797 0014 DBB2     		uxtb	r3, r3
 798 0016 002B     		cmp	r3, #0
 799 0018 02D0     		beq	.L24
 800 001a 4FF00103 		mov	r3, #1
 801 001e 01E0     		b	.L25
 802              	.L24:
 803 0020 4FF00003 		mov	r3, #0
 804              	.L25:
1110:.\Generated_Source\PSoC5/CapSense_CSD.c ****              CapSense_CSD_SW_STS_BUSY) ? 1u : 0u;
1111:.\Generated_Source\PSoC5/CapSense_CSD.c **** }
 805              		.loc 1 1111 0
 806 0024 1846     		mov	r0, r3
 807 0026 BD46     		mov	sp, r7
 808 0028 80BC     		pop	{r7}
 809 002a 7047     		bx	lr
 810              		.cfi_endproc
 811              	.LFE8:
 812              		.size	CapSense_CSD_IsBusy, .-CapSense_CSD_IsBusy
 813              		.section	.text.CapSense_CSD_ReadSensorRaw,"ax",%progbits
 814              		.align	2
 815              		.global	CapSense_CSD_ReadSensorRaw
 816              		.thumb
 817              		.thumb_func
 818              		.type	CapSense_CSD_ReadSensorRaw, %function
 819              	CapSense_CSD_ReadSensorRaw:
 820              	.LFB9:
ARM GAS  C:\Users\yguan5\AppData\Local\Temp\ccDbifVx.s 			page 35


1112:.\Generated_Source\PSoC5/CapSense_CSD.c **** 
1113:.\Generated_Source\PSoC5/CapSense_CSD.c **** 
1114:.\Generated_Source\PSoC5/CapSense_CSD.c **** /*******************************************************************************
1115:.\Generated_Source\PSoC5/CapSense_CSD.c **** * Function Name: CapSense_CSD_ReadSensorRaw
1116:.\Generated_Source\PSoC5/CapSense_CSD.c **** ********************************************************************************
1117:.\Generated_Source\PSoC5/CapSense_CSD.c **** *
1118:.\Generated_Source\PSoC5/CapSense_CSD.c **** * Summary:
1119:.\Generated_Source\PSoC5/CapSense_CSD.c **** *  Returns scan sensor raw data from the CapSense_CSD_SensorRaw[] array. 
1120:.\Generated_Source\PSoC5/CapSense_CSD.c **** *  Each scan sensor has a unique number within the sensor array. This number 
1121:.\Generated_Source\PSoC5/CapSense_CSD.c **** *  is assigned by the CapSense customizer in sequence.
1122:.\Generated_Source\PSoC5/CapSense_CSD.c **** *
1123:.\Generated_Source\PSoC5/CapSense_CSD.c **** * Parameters:
1124:.\Generated_Source\PSoC5/CapSense_CSD.c **** *  sensor:  Sensor number.
1125:.\Generated_Source\PSoC5/CapSense_CSD.c **** *
1126:.\Generated_Source\PSoC5/CapSense_CSD.c **** * Return:
1127:.\Generated_Source\PSoC5/CapSense_CSD.c **** *  Returns current raw data value for defined sensor number.
1128:.\Generated_Source\PSoC5/CapSense_CSD.c **** *
1129:.\Generated_Source\PSoC5/CapSense_CSD.c **** * Global Variables:
1130:.\Generated_Source\PSoC5/CapSense_CSD.c **** *  CapSense_CSD_SensorRaw[] - used to store sensors raw data.
1131:.\Generated_Source\PSoC5/CapSense_CSD.c **** *
1132:.\Generated_Source\PSoC5/CapSense_CSD.c **** *******************************************************************************/
1133:.\Generated_Source\PSoC5/CapSense_CSD.c **** uint16 CapSense_CSD_ReadSensorRaw(uint8 sensor) 
1134:.\Generated_Source\PSoC5/CapSense_CSD.c **** {
 821              		.loc 1 1134 0
 822              		.cfi_startproc
 823              		@ args = 0, pretend = 0, frame = 8
 824              		@ frame_needed = 1, uses_anonymous_args = 0
 825              		@ link register save eliminated.
 826 0000 80B4     		push	{r7}
 827              	.LCFI23:
 828              		.cfi_def_cfa_offset 4
 829 0002 83B0     		sub	sp, sp, #12
 830              	.LCFI24:
 831              		.cfi_def_cfa_offset 16
 832 0004 00AF     		add	r7, sp, #0
 833              		.cfi_offset 7, -4
 834              	.LCFI25:
 835              		.cfi_def_cfa_register 7
 836 0006 0346     		mov	r3, r0
 837 0008 FB71     		strb	r3, [r7, #7]
1135:.\Generated_Source\PSoC5/CapSense_CSD.c ****     return CapSense_CSD_SensorRaw[sensor];
 838              		.loc 1 1135 0
 839 000a FA79     		ldrb	r2, [r7, #7]	@ zero_extendqisi2
 840 000c 40F20003 		movw	r3, #:lower16:CapSense_CSD_SensorRaw
 841 0010 C0F20003 		movt	r3, #:upper16:CapSense_CSD_SensorRaw
 842 0014 33F81230 		ldrh	r3, [r3, r2, lsl #1]
1136:.\Generated_Source\PSoC5/CapSense_CSD.c **** }
 843              		.loc 1 1136 0
 844 0018 1846     		mov	r0, r3
 845 001a 07F10C07 		add	r7, r7, #12
 846 001e BD46     		mov	sp, r7
 847 0020 80BC     		pop	{r7}
 848 0022 7047     		bx	lr
 849              		.cfi_endproc
 850              	.LFE9:
 851              		.size	CapSense_CSD_ReadSensorRaw, .-CapSense_CSD_ReadSensorRaw
 852              		.section	.text.CapSense_CSD_ClearSensors,"ax",%progbits
ARM GAS  C:\Users\yguan5\AppData\Local\Temp\ccDbifVx.s 			page 36


 853              		.align	2
 854              		.global	CapSense_CSD_ClearSensors
 855              		.thumb
 856              		.thumb_func
 857              		.type	CapSense_CSD_ClearSensors, %function
 858              	CapSense_CSD_ClearSensors:
 859              	.LFB10:
1137:.\Generated_Source\PSoC5/CapSense_CSD.c **** 
1138:.\Generated_Source\PSoC5/CapSense_CSD.c **** 
1139:.\Generated_Source\PSoC5/CapSense_CSD.c **** /*******************************************************************************
1140:.\Generated_Source\PSoC5/CapSense_CSD.c **** * Function Name: CapSense_CSD_ClearSensors
1141:.\Generated_Source\PSoC5/CapSense_CSD.c **** ********************************************************************************
1142:.\Generated_Source\PSoC5/CapSense_CSD.c **** *
1143:.\Generated_Source\PSoC5/CapSense_CSD.c **** * Summary:
1144:.\Generated_Source\PSoC5/CapSense_CSD.c **** *  Resets all sensors to the non-sampling state by sequentially disconnecting
1145:.\Generated_Source\PSoC5/CapSense_CSD.c **** *  all sensors from Analog MUX Bus and putting them to inactive state.
1146:.\Generated_Source\PSoC5/CapSense_CSD.c **** *
1147:.\Generated_Source\PSoC5/CapSense_CSD.c **** * Parameters:
1148:.\Generated_Source\PSoC5/CapSense_CSD.c **** *  None
1149:.\Generated_Source\PSoC5/CapSense_CSD.c **** *
1150:.\Generated_Source\PSoC5/CapSense_CSD.c **** * Return:
1151:.\Generated_Source\PSoC5/CapSense_CSD.c **** *  None
1152:.\Generated_Source\PSoC5/CapSense_CSD.c **** *
1153:.\Generated_Source\PSoC5/CapSense_CSD.c **** *******************************************************************************/
1154:.\Generated_Source\PSoC5/CapSense_CSD.c **** void CapSense_CSD_ClearSensors(void) 
1155:.\Generated_Source\PSoC5/CapSense_CSD.c **** {
 860              		.loc 1 1155 0
 861              		.cfi_startproc
 862              		@ args = 0, pretend = 0, frame = 8
 863              		@ frame_needed = 1, uses_anonymous_args = 0
 864 0000 80B5     		push	{r7, lr}
 865              	.LCFI26:
 866              		.cfi_def_cfa_offset 8
 867 0002 82B0     		sub	sp, sp, #8
 868              	.LCFI27:
 869              		.cfi_def_cfa_offset 16
 870 0004 00AF     		add	r7, sp, #0
 871              		.cfi_offset 14, -4
 872              		.cfi_offset 7, -8
 873              	.LCFI28:
 874              		.cfi_def_cfa_register 7
1156:.\Generated_Source\PSoC5/CapSense_CSD.c ****     uint8 i;
1157:.\Generated_Source\PSoC5/CapSense_CSD.c ****    
1158:.\Generated_Source\PSoC5/CapSense_CSD.c ****     for (i = 0u; i < CapSense_CSD_TOTAL_SENSOR_COUNT; i++)
 875              		.loc 1 1158 0
 876 0006 4FF00003 		mov	r3, #0
 877 000a FB71     		strb	r3, [r7, #7]
 878 000c 07E0     		b	.L30
 879              	.L31:
1159:.\Generated_Source\PSoC5/CapSense_CSD.c ****     {
1160:.\Generated_Source\PSoC5/CapSense_CSD.c ****         CapSense_CSD_DisableScanSlot(i);
 880              		.loc 1 1160 0
 881 000e FB79     		ldrb	r3, [r7, #7]	@ zero_extendqisi2
 882 0010 1846     		mov	r0, r3
 883 0012 FFF7FEFF 		bl	CapSense_CSD_DisableSensor
 884              		.loc 1 1158 0
 885 0016 FB79     		ldrb	r3, [r7, #7]
ARM GAS  C:\Users\yguan5\AppData\Local\Temp\ccDbifVx.s 			page 37


 886 0018 03F10103 		add	r3, r3, #1
 887 001c FB71     		strb	r3, [r7, #7]
 888              	.L30:
 889 001e FB79     		ldrb	r3, [r7, #7]	@ zero_extendqisi2
 890 0020 062B     		cmp	r3, #6
 891 0022 F4D9     		bls	.L31
1161:.\Generated_Source\PSoC5/CapSense_CSD.c ****     }
1162:.\Generated_Source\PSoC5/CapSense_CSD.c **** }
 892              		.loc 1 1162 0
 893 0024 07F10807 		add	r7, r7, #8
 894 0028 BD46     		mov	sp, r7
 895 002a 80BD     		pop	{r7, pc}
 896              		.cfi_endproc
 897              	.LFE10:
 898              		.size	CapSense_CSD_ClearSensors, .-CapSense_CSD_ClearSensors
 899              		.section	.text.CapSense_CSD_EnableSensor,"ax",%progbits
 900              		.align	2
 901              		.global	CapSense_CSD_EnableSensor
 902              		.thumb
 903              		.thumb_func
 904              		.type	CapSense_CSD_EnableSensor, %function
 905              	CapSense_CSD_EnableSensor:
 906              	.LFB11:
1163:.\Generated_Source\PSoC5/CapSense_CSD.c **** 
1164:.\Generated_Source\PSoC5/CapSense_CSD.c **** 
1165:.\Generated_Source\PSoC5/CapSense_CSD.c **** #if (CapSense_CSD_IS_COMPLEX_SCANSLOTS)
1166:.\Generated_Source\PSoC5/CapSense_CSD.c ****     /*******************************************************************************
1167:.\Generated_Source\PSoC5/CapSense_CSD.c ****     * Function Name: CapSense_CSD_EnableScanSlot
1168:.\Generated_Source\PSoC5/CapSense_CSD.c ****     ********************************************************************************
1169:.\Generated_Source\PSoC5/CapSense_CSD.c ****     *
1170:.\Generated_Source\PSoC5/CapSense_CSD.c ****     * Summary:
1171:.\Generated_Source\PSoC5/CapSense_CSD.c ****     *  Configures the selected slot to measure during the next measurement 
1172:.\Generated_Source\PSoC5/CapSense_CSD.c ****     *  cycle. The corresponding pin/pins are set to Analog High-Z mode and 
1173:.\Generated_Source\PSoC5/CapSense_CSD.c ****     *  connected to the Analog Mux Bus. This also enables the comparator function.
1174:.\Generated_Source\PSoC5/CapSense_CSD.c ****     *
1175:.\Generated_Source\PSoC5/CapSense_CSD.c ****     * Parameters:
1176:.\Generated_Source\PSoC5/CapSense_CSD.c ****     *  slot:  Slot number.
1177:.\Generated_Source\PSoC5/CapSense_CSD.c ****     *
1178:.\Generated_Source\PSoC5/CapSense_CSD.c ****     * Return:
1179:.\Generated_Source\PSoC5/CapSense_CSD.c ****     *  None
1180:.\Generated_Source\PSoC5/CapSense_CSD.c ****     *
1181:.\Generated_Source\PSoC5/CapSense_CSD.c ****     * Global Constants:
1182:.\Generated_Source\PSoC5/CapSense_CSD.c ****     *  CapSense_CSD_portTable[]  - used to store the port number that pin 
1183:.\Generated_Source\PSoC5/CapSense_CSD.c ****     *  belongs to for every sensor.
1184:.\Generated_Source\PSoC5/CapSense_CSD.c ****     *  CapSense_CSD_maskTable[]  - used to store the pin within the port for 
1185:.\Generated_Source\PSoC5/CapSense_CSD.c ****     *  every sensor.
1186:.\Generated_Source\PSoC5/CapSense_CSD.c ****     *  CapSense_CSD_indexTable[] - used to store indexes of complex sensors.
1187:.\Generated_Source\PSoC5/CapSense_CSD.c ****     *  The offset and position in this array are stored in port and mask table for 
1188:.\Generated_Source\PSoC5/CapSense_CSD.c ****     *  complex sensors.
1189:.\Generated_Source\PSoC5/CapSense_CSD.c ****     *  The bit 7 (msb) is used to define the sensor type: single or complex.
1190:.\Generated_Source\PSoC5/CapSense_CSD.c ****     *
1191:.\Generated_Source\PSoC5/CapSense_CSD.c ****     *******************************************************************************/
1192:.\Generated_Source\PSoC5/CapSense_CSD.c ****     void CapSense_CSD_EnableScanSlot(uint8 slot) CYREENTRANT
1193:.\Generated_Source\PSoC5/CapSense_CSD.c ****     {
1194:.\Generated_Source\PSoC5/CapSense_CSD.c ****         uint8 j;
1195:.\Generated_Source\PSoC5/CapSense_CSD.c ****         uint8 snsNumber;
1196:.\Generated_Source\PSoC5/CapSense_CSD.c ****         const uint8 CYCODE *index;
ARM GAS  C:\Users\yguan5\AppData\Local\Temp\ccDbifVx.s 			page 38


1197:.\Generated_Source\PSoC5/CapSense_CSD.c ****         /* Read the sensor type: single or complex */
1198:.\Generated_Source\PSoC5/CapSense_CSD.c ****         uint8 snsType = CapSense_CSD_portTable[slot];
1199:.\Generated_Source\PSoC5/CapSense_CSD.c ****         
1200:.\Generated_Source\PSoC5/CapSense_CSD.c ****         /* Check if sensor is complex */
1201:.\Generated_Source\PSoC5/CapSense_CSD.c ****         if ((snsType & CapSense_CSD_COMPLEX_SS_FLAG) == 0u)
1202:.\Generated_Source\PSoC5/CapSense_CSD.c ****         {
1203:.\Generated_Source\PSoC5/CapSense_CSD.c ****             /* Enable sensor (signle) */
1204:.\Generated_Source\PSoC5/CapSense_CSD.c ****             CapSense_CSD_EnableSensor(slot);
1205:.\Generated_Source\PSoC5/CapSense_CSD.c ****         }
1206:.\Generated_Source\PSoC5/CapSense_CSD.c ****         else
1207:.\Generated_Source\PSoC5/CapSense_CSD.c ****         {
1208:.\Generated_Source\PSoC5/CapSense_CSD.c ****             /* Enable complex sensor */
1209:.\Generated_Source\PSoC5/CapSense_CSD.c ****             snsType &= ~CapSense_CSD_COMPLEX_SS_FLAG;
1210:.\Generated_Source\PSoC5/CapSense_CSD.c ****             index = &CapSense_CSD_indexTable[snsType];
1211:.\Generated_Source\PSoC5/CapSense_CSD.c ****             snsNumber = CapSense_CSD_maskTable[slot];
1212:.\Generated_Source\PSoC5/CapSense_CSD.c ****                         
1213:.\Generated_Source\PSoC5/CapSense_CSD.c ****             for (j=0; j < snsNumber; j++)
1214:.\Generated_Source\PSoC5/CapSense_CSD.c ****             {
1215:.\Generated_Source\PSoC5/CapSense_CSD.c ****                 CapSense_CSD_EnableSensor(index[j]);
1216:.\Generated_Source\PSoC5/CapSense_CSD.c ****             }
1217:.\Generated_Source\PSoC5/CapSense_CSD.c ****         } 
1218:.\Generated_Source\PSoC5/CapSense_CSD.c ****     }
1219:.\Generated_Source\PSoC5/CapSense_CSD.c ****     
1220:.\Generated_Source\PSoC5/CapSense_CSD.c ****     
1221:.\Generated_Source\PSoC5/CapSense_CSD.c ****     /*******************************************************************************
1222:.\Generated_Source\PSoC5/CapSense_CSD.c ****     * Function Name: CapSense_CSD_DisableScanSlot
1223:.\Generated_Source\PSoC5/CapSense_CSD.c ****     ********************************************************************************
1224:.\Generated_Source\PSoC5/CapSense_CSD.c ****     *
1225:.\Generated_Source\PSoC5/CapSense_CSD.c ****     * Summary:
1226:.\Generated_Source\PSoC5/CapSense_CSD.c ****     *  Disables the selected slot. The corresponding pin/pis is/are disconnected 
1227:.\Generated_Source\PSoC5/CapSense_CSD.c ****     *  from the Analog Mux Bus and connected to GND, High_Z or Shield electrode.
1228:.\Generated_Source\PSoC5/CapSense_CSD.c ****     *
1229:.\Generated_Source\PSoC5/CapSense_CSD.c ****     * Parameters:
1230:.\Generated_Source\PSoC5/CapSense_CSD.c ****     *  slot:  Slot number.
1231:.\Generated_Source\PSoC5/CapSense_CSD.c ****     *
1232:.\Generated_Source\PSoC5/CapSense_CSD.c ****     * Return:
1233:.\Generated_Source\PSoC5/CapSense_CSD.c ****     *  None
1234:.\Generated_Source\PSoC5/CapSense_CSD.c ****     *
1235:.\Generated_Source\PSoC5/CapSense_CSD.c ****     * Global Variables:
1236:.\Generated_Source\PSoC5/CapSense_CSD.c ****     *  CapSense_CSD_portTable[]  - used to store the port number that pin 
1237:.\Generated_Source\PSoC5/CapSense_CSD.c ****     *  belongs to for every sensor.
1238:.\Generated_Source\PSoC5/CapSense_CSD.c ****     *  CapSense_CSD_maskTable[]  - used to store the pin within the port for 
1239:.\Generated_Source\PSoC5/CapSense_CSD.c ****     *  every sensor.
1240:.\Generated_Source\PSoC5/CapSense_CSD.c ****     *  CapSense_CSD_indexTable[] - used to store indexes of complex sensors.
1241:.\Generated_Source\PSoC5/CapSense_CSD.c ****     *  The offset and position in this array are stored in port and mask table for 
1242:.\Generated_Source\PSoC5/CapSense_CSD.c ****     *  complex sensors.
1243:.\Generated_Source\PSoC5/CapSense_CSD.c ****     *  The 7bit(msb) is used to define the sensor type: single or complex.
1244:.\Generated_Source\PSoC5/CapSense_CSD.c ****     *
1245:.\Generated_Source\PSoC5/CapSense_CSD.c ****     *******************************************************************************/
1246:.\Generated_Source\PSoC5/CapSense_CSD.c ****     void CapSense_CSD_DisableScanSlot(uint8 slot) CYREENTRANT
1247:.\Generated_Source\PSoC5/CapSense_CSD.c ****     {
1248:.\Generated_Source\PSoC5/CapSense_CSD.c ****         uint8 j;
1249:.\Generated_Source\PSoC5/CapSense_CSD.c ****         uint8 snsNumber;
1250:.\Generated_Source\PSoC5/CapSense_CSD.c ****         const uint8 CYCODE *index;
1251:.\Generated_Source\PSoC5/CapSense_CSD.c ****         /* Read the sensor type: single or complex */
1252:.\Generated_Source\PSoC5/CapSense_CSD.c ****         uint8 snsType = CapSense_CSD_portTable[slot];
1253:.\Generated_Source\PSoC5/CapSense_CSD.c ****         
ARM GAS  C:\Users\yguan5\AppData\Local\Temp\ccDbifVx.s 			page 39


1254:.\Generated_Source\PSoC5/CapSense_CSD.c ****         /* Check if sensor is complex */
1255:.\Generated_Source\PSoC5/CapSense_CSD.c ****         if ((snsType & CapSense_CSD_COMPLEX_SS_FLAG) == 0u)
1256:.\Generated_Source\PSoC5/CapSense_CSD.c ****         {
1257:.\Generated_Source\PSoC5/CapSense_CSD.c ****             /* Disable sensor (signle) */
1258:.\Generated_Source\PSoC5/CapSense_CSD.c ****             CapSense_CSD_DisableSensor(slot);
1259:.\Generated_Source\PSoC5/CapSense_CSD.c ****         }
1260:.\Generated_Source\PSoC5/CapSense_CSD.c ****         else
1261:.\Generated_Source\PSoC5/CapSense_CSD.c ****         {
1262:.\Generated_Source\PSoC5/CapSense_CSD.c ****             /* Disable complex sensor */
1263:.\Generated_Source\PSoC5/CapSense_CSD.c ****             snsType &= ~CapSense_CSD_COMPLEX_SS_FLAG;
1264:.\Generated_Source\PSoC5/CapSense_CSD.c ****             index = &CapSense_CSD_indexTable[snsType];
1265:.\Generated_Source\PSoC5/CapSense_CSD.c ****             snsNumber = CapSense_CSD_maskTable[slot];
1266:.\Generated_Source\PSoC5/CapSense_CSD.c ****                         
1267:.\Generated_Source\PSoC5/CapSense_CSD.c ****             for (j=0; j < snsNumber; j++)
1268:.\Generated_Source\PSoC5/CapSense_CSD.c ****             {
1269:.\Generated_Source\PSoC5/CapSense_CSD.c ****                 CapSense_CSD_DisableSensor(index[j]);
1270:.\Generated_Source\PSoC5/CapSense_CSD.c ****             }
1271:.\Generated_Source\PSoC5/CapSense_CSD.c ****         } 
1272:.\Generated_Source\PSoC5/CapSense_CSD.c ****     }
1273:.\Generated_Source\PSoC5/CapSense_CSD.c **** #endif  /* CapSense_CSD_IS_COMPLEX_SCANSLOTS */
1274:.\Generated_Source\PSoC5/CapSense_CSD.c **** 
1275:.\Generated_Source\PSoC5/CapSense_CSD.c **** 
1276:.\Generated_Source\PSoC5/CapSense_CSD.c **** /*******************************************************************************
1277:.\Generated_Source\PSoC5/CapSense_CSD.c **** * Function Name: CapSense_CSD_EnableSensor
1278:.\Generated_Source\PSoC5/CapSense_CSD.c **** ********************************************************************************
1279:.\Generated_Source\PSoC5/CapSense_CSD.c **** *
1280:.\Generated_Source\PSoC5/CapSense_CSD.c **** * Summary:
1281:.\Generated_Source\PSoC5/CapSense_CSD.c **** *  Configures the selected sensor to measure during the next measurement cycle.
1282:.\Generated_Source\PSoC5/CapSense_CSD.c **** *  The corresponding pins are set to Analog High-Z mode and connected to the
1283:.\Generated_Source\PSoC5/CapSense_CSD.c **** *  Analog Mux Bus. This also enables the comparator function.
1284:.\Generated_Source\PSoC5/CapSense_CSD.c **** *
1285:.\Generated_Source\PSoC5/CapSense_CSD.c **** * Parameters:
1286:.\Generated_Source\PSoC5/CapSense_CSD.c **** *  sensor:  Sensor number.
1287:.\Generated_Source\PSoC5/CapSense_CSD.c **** *
1288:.\Generated_Source\PSoC5/CapSense_CSD.c **** * Return:
1289:.\Generated_Source\PSoC5/CapSense_CSD.c **** *  None
1290:.\Generated_Source\PSoC5/CapSense_CSD.c **** *
1291:.\Generated_Source\PSoC5/CapSense_CSD.c **** * Global Variables:
1292:.\Generated_Source\PSoC5/CapSense_CSD.c **** *  CapSense_CSD_portTable[] - used to store the port number that pin 
1293:.\Generated_Source\PSoC5/CapSense_CSD.c **** *  belongs to for every sensor.
1294:.\Generated_Source\PSoC5/CapSense_CSD.c **** *  CapSense_CSD_maskTable[] - used to store the pin within the port for 
1295:.\Generated_Source\PSoC5/CapSense_CSD.c **** *  every sensor.
1296:.\Generated_Source\PSoC5/CapSense_CSD.c **** *  CapSense_CSD_csTable[]   - used to store the pointers to CAPS_SEL 
1297:.\Generated_Source\PSoC5/CapSense_CSD.c **** *  registers for every port.
1298:.\Generated_Source\PSoC5/CapSense_CSD.c **** *  CapSense_CSD_pcTable[]   - used to store the pointers to PC pin 
1299:.\Generated_Source\PSoC5/CapSense_CSD.c **** *  register for every sensor.
1300:.\Generated_Source\PSoC5/CapSense_CSD.c **** *  CapSense_CSD_amuxIndex[] - used to store corrected AMUX index when 
1301:.\Generated_Source\PSoC5/CapSense_CSD.c **** *  complex sensors are defeined.
1302:.\Generated_Source\PSoC5/CapSense_CSD.c **** *
1303:.\Generated_Source\PSoC5/CapSense_CSD.c **** *******************************************************************************/
1304:.\Generated_Source\PSoC5/CapSense_CSD.c **** void CapSense_CSD_EnableSensor(uint8 sensor) CYREENTRANT
1305:.\Generated_Source\PSoC5/CapSense_CSD.c **** {
 907              		.loc 1 1305 0
 908              		.cfi_startproc
 909              		@ args = 0, pretend = 0, frame = 16
 910              		@ frame_needed = 1, uses_anonymous_args = 0
 911 0000 80B5     		push	{r7, lr}
ARM GAS  C:\Users\yguan5\AppData\Local\Temp\ccDbifVx.s 			page 40


 912              	.LCFI29:
 913              		.cfi_def_cfa_offset 8
 914 0002 84B0     		sub	sp, sp, #16
 915              	.LCFI30:
 916              		.cfi_def_cfa_offset 24
 917 0004 00AF     		add	r7, sp, #0
 918              		.cfi_offset 14, -4
 919              		.cfi_offset 7, -8
 920              	.LCFI31:
 921              		.cfi_def_cfa_register 7
 922 0006 0346     		mov	r3, r0
 923 0008 FB71     		strb	r3, [r7, #7]
1306:.\Generated_Source\PSoC5/CapSense_CSD.c ****     uint8 port = CapSense_CSD_portTable[sensor];
 924              		.loc 1 1306 0
 925 000a FA79     		ldrb	r2, [r7, #7]	@ zero_extendqisi2
 926 000c 40F20003 		movw	r3, #:lower16:CapSense_CSD_portTable
 927 0010 C0F20003 		movt	r3, #:upper16:CapSense_CSD_portTable
 928 0014 9B5C     		ldrb	r3, [r3, r2]
 929 0016 BB73     		strb	r3, [r7, #14]
1307:.\Generated_Source\PSoC5/CapSense_CSD.c ****     uint8 mask = CapSense_CSD_maskTable[sensor];
 930              		.loc 1 1307 0
 931 0018 FA79     		ldrb	r2, [r7, #7]	@ zero_extendqisi2
 932 001a 40F20003 		movw	r3, #:lower16:CapSense_CSD_maskTable
 933 001e C0F20003 		movt	r3, #:upper16:CapSense_CSD_maskTable
 934 0022 9B5C     		ldrb	r3, [r3, r2]
 935 0024 FB73     		strb	r3, [r7, #15]
1308:.\Generated_Source\PSoC5/CapSense_CSD.c ****     
1309:.\Generated_Source\PSoC5/CapSense_CSD.c ****     #if ((CapSense_CSD_DESIGN_TYPE == CapSense_CSD_TWO_CHANNELS_DESIGN) && \
1310:.\Generated_Source\PSoC5/CapSense_CSD.c ****          (CapSense_CSD_IS_COMPLEX_SCANSLOTS))
1311:.\Generated_Source\PSoC5/CapSense_CSD.c ****         uint8 amuxCh = CapSense_CSD_amuxIndex[sensor];
1312:.\Generated_Source\PSoC5/CapSense_CSD.c ****     #endif  /* ((CapSense_CSD_DESIGN_TYPE == CapSense_CSD_TWO_CHANNELS_DESIGN) && \
1313:.\Generated_Source\PSoC5/CapSense_CSD.c ****             *   (CapSense_CSD_IS_COMPLEX_SCANSLOTS))
1314:.\Generated_Source\PSoC5/CapSense_CSD.c ****             */
1315:.\Generated_Source\PSoC5/CapSense_CSD.c ****     
1316:.\Generated_Source\PSoC5/CapSense_CSD.c ****     /* Make sensor High-Z */
1317:.\Generated_Source\PSoC5/CapSense_CSD.c ****     *CapSense_CSD_pcTable[sensor] = CapSense_CSD_PRT_PC_HIGHZ;
 936              		.loc 1 1317 0
 937 0026 FA79     		ldrb	r2, [r7, #7]	@ zero_extendqisi2
 938 0028 40F20003 		movw	r3, #:lower16:CapSense_CSD_pcTable
 939 002c C0F20003 		movt	r3, #:upper16:CapSense_CSD_pcTable
 940 0030 53F82230 		ldr	r3, [r3, r2, lsl #2]
 941 0034 4FF00902 		mov	r2, #9
 942 0038 1A70     		strb	r2, [r3, #0]
1318:.\Generated_Source\PSoC5/CapSense_CSD.c ****     
1319:.\Generated_Source\PSoC5/CapSense_CSD.c ****     /* Connect to DSI output */
1320:.\Generated_Source\PSoC5/CapSense_CSD.c **** 	if(port == 15u)
 943              		.loc 1 1320 0
 944 003a BB7B     		ldrb	r3, [r7, #14]	@ zero_extendqisi2
 945 003c 0F2B     		cmp	r3, #15
 946 003e 02D1     		bne	.L34
1321:.\Generated_Source\PSoC5/CapSense_CSD.c **** 	{
1322:.\Generated_Source\PSoC5/CapSense_CSD.c **** 		port = 7u;
 947              		.loc 1 1322 0
 948 0040 4FF00703 		mov	r3, #7
 949 0044 BB73     		strb	r3, [r7, #14]
 950              	.L34:
1323:.\Generated_Source\PSoC5/CapSense_CSD.c **** 	}
ARM GAS  C:\Users\yguan5\AppData\Local\Temp\ccDbifVx.s 			page 41


1324:.\Generated_Source\PSoC5/CapSense_CSD.c ****     *CapSense_CSD_csTable[port] |= mask;
 951              		.loc 1 1324 0
 952 0046 BA7B     		ldrb	r2, [r7, #14]	@ zero_extendqisi2
 953 0048 40F20003 		movw	r3, #:lower16:CapSense_CSD_csTable
 954 004c C0F20003 		movt	r3, #:upper16:CapSense_CSD_csTable
 955 0050 53F82220 		ldr	r2, [r3, r2, lsl #2]
 956 0054 B97B     		ldrb	r1, [r7, #14]	@ zero_extendqisi2
 957 0056 40F20003 		movw	r3, #:lower16:CapSense_CSD_csTable
 958 005a C0F20003 		movt	r3, #:upper16:CapSense_CSD_csTable
 959 005e 53F82130 		ldr	r3, [r3, r1, lsl #2]
 960 0062 1978     		ldrb	r1, [r3, #0]	@ zero_extendqisi2
 961 0064 FB7B     		ldrb	r3, [r7, #15]
 962 0066 41EA0303 		orr	r3, r1, r3
 963 006a DBB2     		uxtb	r3, r3
 964 006c 1370     		strb	r3, [r2, #0]
1325:.\Generated_Source\PSoC5/CapSense_CSD.c ****     
1326:.\Generated_Source\PSoC5/CapSense_CSD.c ****     /* Connect to AMUX */
1327:.\Generated_Source\PSoC5/CapSense_CSD.c ****     #if (CapSense_CSD_DESIGN_TYPE == CapSense_CSD_ONE_CHANNEL_DESIGN)
1328:.\Generated_Source\PSoC5/CapSense_CSD.c ****         #if (CapSense_CSD_IS_COMPLEX_SCANSLOTS)
1329:.\Generated_Source\PSoC5/CapSense_CSD.c ****             CapSense_CSD_AMuxCH0_Connect(CapSense_CSD_amuxIndex[sensor]);
1330:.\Generated_Source\PSoC5/CapSense_CSD.c ****         #else
1331:.\Generated_Source\PSoC5/CapSense_CSD.c ****             CapSense_CSD_AMuxCH0_Connect(sensor);
 965              		.loc 1 1331 0
 966 006e FB79     		ldrb	r3, [r7, #7]	@ zero_extendqisi2
 967 0070 1846     		mov	r0, r3
 968 0072 FFF7FEFF 		bl	CapSense_CSD_AMuxCH0_Set
1332:.\Generated_Source\PSoC5/CapSense_CSD.c ****         #endif  /* CapSense_CSD_IS_COMPLEX_SCANSLOTS */
1333:.\Generated_Source\PSoC5/CapSense_CSD.c ****                 
1334:.\Generated_Source\PSoC5/CapSense_CSD.c ****     #else
1335:.\Generated_Source\PSoC5/CapSense_CSD.c ****         #if (CapSense_CSD_IS_COMPLEX_SCANSLOTS)
1336:.\Generated_Source\PSoC5/CapSense_CSD.c ****             if ((amuxCh & CapSense_CSD_CHANNEL1_FLAG) == 0u)
1337:.\Generated_Source\PSoC5/CapSense_CSD.c ****             {
1338:.\Generated_Source\PSoC5/CapSense_CSD.c ****                 CapSense_CSD_AMuxCH0_Connect(amuxCh);
1339:.\Generated_Source\PSoC5/CapSense_CSD.c ****             } 
1340:.\Generated_Source\PSoC5/CapSense_CSD.c ****             else
1341:.\Generated_Source\PSoC5/CapSense_CSD.c ****             {
1342:.\Generated_Source\PSoC5/CapSense_CSD.c ****                 amuxCh &= ~ CapSense_CSD_CHANNEL1_FLAG;
1343:.\Generated_Source\PSoC5/CapSense_CSD.c ****                 CapSense_CSD_AMuxCH1_Connect(amuxCh);
1344:.\Generated_Source\PSoC5/CapSense_CSD.c ****             }
1345:.\Generated_Source\PSoC5/CapSense_CSD.c ****             
1346:.\Generated_Source\PSoC5/CapSense_CSD.c ****         #else
1347:.\Generated_Source\PSoC5/CapSense_CSD.c ****             if (sensor < CapSense_CSD_TOTAL_SENSOR_COUNT__CH0) 
1348:.\Generated_Source\PSoC5/CapSense_CSD.c ****             {
1349:.\Generated_Source\PSoC5/CapSense_CSD.c ****                 CapSense_CSD_AMuxCH0_Connect(sensor);
1350:.\Generated_Source\PSoC5/CapSense_CSD.c ****             } 
1351:.\Generated_Source\PSoC5/CapSense_CSD.c ****             else
1352:.\Generated_Source\PSoC5/CapSense_CSD.c ****             {
1353:.\Generated_Source\PSoC5/CapSense_CSD.c ****                 CapSense_CSD_AMuxCH1_Connect(sensor - CapSense_CSD_TOTAL_SENSOR_COUNT__CH0);
1354:.\Generated_Source\PSoC5/CapSense_CSD.c ****             }
1355:.\Generated_Source\PSoC5/CapSense_CSD.c ****             
1356:.\Generated_Source\PSoC5/CapSense_CSD.c ****         #endif  /* CapSense_CSD_IS_COMPLEX_SCANSLOTS */
1357:.\Generated_Source\PSoC5/CapSense_CSD.c ****         
1358:.\Generated_Source\PSoC5/CapSense_CSD.c ****     #endif  /* CapSense_CSD_DESIGN_TYPE == CapSense_CSD_ONE_CHANNEL_DESIGN */
1359:.\Generated_Source\PSoC5/CapSense_CSD.c **** }
 969              		.loc 1 1359 0
 970 0076 07F11007 		add	r7, r7, #16
 971 007a BD46     		mov	sp, r7
ARM GAS  C:\Users\yguan5\AppData\Local\Temp\ccDbifVx.s 			page 42


 972 007c 80BD     		pop	{r7, pc}
 973              		.cfi_endproc
 974              	.LFE11:
 975              		.size	CapSense_CSD_EnableSensor, .-CapSense_CSD_EnableSensor
 976 007e 00BF     		.section	.text.CapSense_CSD_DisableSensor,"ax",%progbits
 977              		.align	2
 978              		.global	CapSense_CSD_DisableSensor
 979              		.thumb
 980              		.thumb_func
 981              		.type	CapSense_CSD_DisableSensor, %function
 982              	CapSense_CSD_DisableSensor:
 983              	.LFB12:
1360:.\Generated_Source\PSoC5/CapSense_CSD.c **** 
1361:.\Generated_Source\PSoC5/CapSense_CSD.c **** 
1362:.\Generated_Source\PSoC5/CapSense_CSD.c **** /*******************************************************************************
1363:.\Generated_Source\PSoC5/CapSense_CSD.c **** * Function Name: CapSense_CSD_DisableSensor
1364:.\Generated_Source\PSoC5/CapSense_CSD.c **** ********************************************************************************
1365:.\Generated_Source\PSoC5/CapSense_CSD.c **** *
1366:.\Generated_Source\PSoC5/CapSense_CSD.c **** * Summary:
1367:.\Generated_Source\PSoC5/CapSense_CSD.c **** *  Disables the selected sensor. The corresponding pin is disconnected from the
1368:.\Generated_Source\PSoC5/CapSense_CSD.c **** *  Analog Mux Bus and connected to GND, High_Z or Shield electrode.
1369:.\Generated_Source\PSoC5/CapSense_CSD.c **** *
1370:.\Generated_Source\PSoC5/CapSense_CSD.c **** * Parameters:
1371:.\Generated_Source\PSoC5/CapSense_CSD.c **** *  sensor:  Sensor number
1372:.\Generated_Source\PSoC5/CapSense_CSD.c **** *
1373:.\Generated_Source\PSoC5/CapSense_CSD.c **** * Return:
1374:.\Generated_Source\PSoC5/CapSense_CSD.c **** *  None
1375:.\Generated_Source\PSoC5/CapSense_CSD.c **** *
1376:.\Generated_Source\PSoC5/CapSense_CSD.c **** * Global Variables:
1377:.\Generated_Source\PSoC5/CapSense_CSD.c **** *  CapSense_CSD_portTable[] - used to store the port number that pin 
1378:.\Generated_Source\PSoC5/CapSense_CSD.c **** *  belongs to for every sensor.
1379:.\Generated_Source\PSoC5/CapSense_CSD.c **** *  CapSense_CSD_maskTable[] - used to store the pin within the port for 
1380:.\Generated_Source\PSoC5/CapSense_CSD.c **** *  every sensor.
1381:.\Generated_Source\PSoC5/CapSense_CSD.c **** *  CapSense_CSD_csTable[]   - used to store the pointers to CAPS_SEL 
1382:.\Generated_Source\PSoC5/CapSense_CSD.c **** *  registers for every port.
1383:.\Generated_Source\PSoC5/CapSense_CSD.c **** *  CapSense_CSD_pcTable[]   - used to store the pointers to PC pin 
1384:.\Generated_Source\PSoC5/CapSense_CSD.c **** *  register for every sensor.
1385:.\Generated_Source\PSoC5/CapSense_CSD.c **** *  CapSense_CSD_amuxIndex[] - used to store corrected AMUX index when 
1386:.\Generated_Source\PSoC5/CapSense_CSD.c **** *  complex sensors are defeined.
1387:.\Generated_Source\PSoC5/CapSense_CSD.c **** *
1388:.\Generated_Source\PSoC5/CapSense_CSD.c **** *******************************************************************************/
1389:.\Generated_Source\PSoC5/CapSense_CSD.c **** void CapSense_CSD_DisableSensor(uint8 sensor) CYREENTRANT
1390:.\Generated_Source\PSoC5/CapSense_CSD.c **** {
 984              		.loc 1 1390 0
 985              		.cfi_startproc
 986              		@ args = 0, pretend = 0, frame = 16
 987              		@ frame_needed = 1, uses_anonymous_args = 0
 988 0000 80B5     		push	{r7, lr}
 989              	.LCFI32:
 990              		.cfi_def_cfa_offset 8
 991 0002 84B0     		sub	sp, sp, #16
 992              	.LCFI33:
 993              		.cfi_def_cfa_offset 24
 994 0004 00AF     		add	r7, sp, #0
 995              		.cfi_offset 14, -4
 996              		.cfi_offset 7, -8
 997              	.LCFI34:
ARM GAS  C:\Users\yguan5\AppData\Local\Temp\ccDbifVx.s 			page 43


 998              		.cfi_def_cfa_register 7
 999 0006 0346     		mov	r3, r0
 1000 0008 FB71     		strb	r3, [r7, #7]
1391:.\Generated_Source\PSoC5/CapSense_CSD.c ****     uint8 port = CapSense_CSD_portTable[sensor];
 1001              		.loc 1 1391 0
 1002 000a FA79     		ldrb	r2, [r7, #7]	@ zero_extendqisi2
 1003 000c 40F20003 		movw	r3, #:lower16:CapSense_CSD_portTable
 1004 0010 C0F20003 		movt	r3, #:upper16:CapSense_CSD_portTable
 1005 0014 9B5C     		ldrb	r3, [r3, r2]
 1006 0016 BB73     		strb	r3, [r7, #14]
1392:.\Generated_Source\PSoC5/CapSense_CSD.c ****     uint8 mask = CapSense_CSD_maskTable[sensor];
 1007              		.loc 1 1392 0
 1008 0018 FA79     		ldrb	r2, [r7, #7]	@ zero_extendqisi2
 1009 001a 40F20003 		movw	r3, #:lower16:CapSense_CSD_maskTable
 1010 001e C0F20003 		movt	r3, #:upper16:CapSense_CSD_maskTable
 1011 0022 9B5C     		ldrb	r3, [r3, r2]
 1012 0024 FB73     		strb	r3, [r7, #15]
1393:.\Generated_Source\PSoC5/CapSense_CSD.c ****     
1394:.\Generated_Source\PSoC5/CapSense_CSD.c ****     #if ((CapSense_CSD_DESIGN_TYPE == CapSense_CSD_TWO_CHANNELS_DESIGN) && \
1395:.\Generated_Source\PSoC5/CapSense_CSD.c ****          (CapSense_CSD_IS_COMPLEX_SCANSLOTS))
1396:.\Generated_Source\PSoC5/CapSense_CSD.c ****         uint8 amuxCh = CapSense_CSD_amuxIndex[sensor];
1397:.\Generated_Source\PSoC5/CapSense_CSD.c ****     #endif  /* ((CapSense_CSD_DESIGN_TYPE == CapSense_CSD_TWO_CHANNELS_DESIGN) && \
1398:.\Generated_Source\PSoC5/CapSense_CSD.c ****             *   (CapSense_CSD_IS_COMPLEX_SCANSLOTS))
1399:.\Generated_Source\PSoC5/CapSense_CSD.c ****             */
1400:.\Generated_Source\PSoC5/CapSense_CSD.c ****     
1401:.\Generated_Source\PSoC5/CapSense_CSD.c ****     /* Disconnect from AMUX */
1402:.\Generated_Source\PSoC5/CapSense_CSD.c ****     #if (CapSense_CSD_DESIGN_TYPE == CapSense_CSD_ONE_CHANNEL_DESIGN)
1403:.\Generated_Source\PSoC5/CapSense_CSD.c ****         #if (CapSense_CSD_IS_COMPLEX_SCANSLOTS)
1404:.\Generated_Source\PSoC5/CapSense_CSD.c ****             CapSense_CSD_AMuxCH0_Disconnect(CapSense_CSD_amuxIndex[sensor]);
1405:.\Generated_Source\PSoC5/CapSense_CSD.c ****         #else
1406:.\Generated_Source\PSoC5/CapSense_CSD.c ****             CapSense_CSD_AMuxCH0_Disconnect(sensor);
 1013              		.loc 1 1406 0
 1014 0026 FB79     		ldrb	r3, [r7, #7]	@ zero_extendqisi2
 1015 0028 1846     		mov	r0, r3
 1016 002a FFF7FEFF 		bl	CapSense_CSD_AMuxCH0_Unset
1407:.\Generated_Source\PSoC5/CapSense_CSD.c ****         #endif  /* CapSense_CSD_IS_COMPLEX_SCANSLOTS */
1408:.\Generated_Source\PSoC5/CapSense_CSD.c ****                 
1409:.\Generated_Source\PSoC5/CapSense_CSD.c ****     #else
1410:.\Generated_Source\PSoC5/CapSense_CSD.c ****         #if (CapSense_CSD_IS_COMPLEX_SCANSLOTS)
1411:.\Generated_Source\PSoC5/CapSense_CSD.c ****             if ((amuxCh & CapSense_CSD_CHANNEL1_FLAG) == 0u)
1412:.\Generated_Source\PSoC5/CapSense_CSD.c ****             {
1413:.\Generated_Source\PSoC5/CapSense_CSD.c ****                 CapSense_CSD_AMuxCH0_Disconnect(amuxCh);
1414:.\Generated_Source\PSoC5/CapSense_CSD.c ****             } 
1415:.\Generated_Source\PSoC5/CapSense_CSD.c ****             else
1416:.\Generated_Source\PSoC5/CapSense_CSD.c ****             {
1417:.\Generated_Source\PSoC5/CapSense_CSD.c ****                 amuxCh &= ~ CapSense_CSD_CHANNEL1_FLAG;
1418:.\Generated_Source\PSoC5/CapSense_CSD.c ****                 CapSense_CSD_AMuxCH1_Disconnect(amuxCh);
1419:.\Generated_Source\PSoC5/CapSense_CSD.c ****             }
1420:.\Generated_Source\PSoC5/CapSense_CSD.c ****             
1421:.\Generated_Source\PSoC5/CapSense_CSD.c ****         #else
1422:.\Generated_Source\PSoC5/CapSense_CSD.c ****             if (sensor < CapSense_CSD_TOTAL_SENSOR_COUNT__CH0) 
1423:.\Generated_Source\PSoC5/CapSense_CSD.c ****             {
1424:.\Generated_Source\PSoC5/CapSense_CSD.c ****                 CapSense_CSD_AMuxCH0_Disconnect(sensor);
1425:.\Generated_Source\PSoC5/CapSense_CSD.c ****             } 
1426:.\Generated_Source\PSoC5/CapSense_CSD.c ****             else
1427:.\Generated_Source\PSoC5/CapSense_CSD.c ****             {
1428:.\Generated_Source\PSoC5/CapSense_CSD.c ****                 CapSense_CSD_AMuxCH1_Disconnect(sensor - CapSense_CSD_TOTAL_SENSOR_COUNT__CH0);
ARM GAS  C:\Users\yguan5\AppData\Local\Temp\ccDbifVx.s 			page 44


1429:.\Generated_Source\PSoC5/CapSense_CSD.c ****             }
1430:.\Generated_Source\PSoC5/CapSense_CSD.c ****             
1431:.\Generated_Source\PSoC5/CapSense_CSD.c ****         #endif  /* CapSense_CSD_IS_COMPLEX_SCANSLOTS */
1432:.\Generated_Source\PSoC5/CapSense_CSD.c ****         
1433:.\Generated_Source\PSoC5/CapSense_CSD.c ****     #endif  /* CapSense_CSD_DESIGN_TYPE */
1434:.\Generated_Source\PSoC5/CapSense_CSD.c ****     
1435:.\Generated_Source\PSoC5/CapSense_CSD.c ****     /* Disconnect from DSI output */
1436:.\Generated_Source\PSoC5/CapSense_CSD.c **** 	if(port == 15u)
 1017              		.loc 1 1436 0
 1018 002e BB7B     		ldrb	r3, [r7, #14]	@ zero_extendqisi2
 1019 0030 0F2B     		cmp	r3, #15
 1020 0032 02D1     		bne	.L37
1437:.\Generated_Source\PSoC5/CapSense_CSD.c **** 	{
1438:.\Generated_Source\PSoC5/CapSense_CSD.c **** 		port = 7u;
 1021              		.loc 1 1438 0
 1022 0034 4FF00703 		mov	r3, #7
 1023 0038 BB73     		strb	r3, [r7, #14]
 1024              	.L37:
1439:.\Generated_Source\PSoC5/CapSense_CSD.c **** 	}
1440:.\Generated_Source\PSoC5/CapSense_CSD.c ****     *CapSense_CSD_csTable[port] &= ~mask;
 1025              		.loc 1 1440 0
 1026 003a BA7B     		ldrb	r2, [r7, #14]	@ zero_extendqisi2
 1027 003c 40F20003 		movw	r3, #:lower16:CapSense_CSD_csTable
 1028 0040 C0F20003 		movt	r3, #:upper16:CapSense_CSD_csTable
 1029 0044 53F82220 		ldr	r2, [r3, r2, lsl #2]
 1030 0048 B97B     		ldrb	r1, [r7, #14]	@ zero_extendqisi2
 1031 004a 40F20003 		movw	r3, #:lower16:CapSense_CSD_csTable
 1032 004e C0F20003 		movt	r3, #:upper16:CapSense_CSD_csTable
 1033 0052 53F82130 		ldr	r3, [r3, r1, lsl #2]
 1034 0056 1B78     		ldrb	r3, [r3, #0]	@ zero_extendqisi2
 1035 0058 1946     		mov	r1, r3
 1036 005a FB7B     		ldrb	r3, [r7, #15]	@ zero_extendqisi2
 1037 005c 6FEA0303 		mvn	r3, r3
 1038 0060 DBB2     		uxtb	r3, r3
 1039 0062 01EA0303 		and	r3, r1, r3
 1040 0066 DBB2     		uxtb	r3, r3
 1041 0068 DBB2     		uxtb	r3, r3
 1042 006a 1370     		strb	r3, [r2, #0]
1441:.\Generated_Source\PSoC5/CapSense_CSD.c ****     
1442:.\Generated_Source\PSoC5/CapSense_CSD.c ****     /* Set sensor to inactive state */
1443:.\Generated_Source\PSoC5/CapSense_CSD.c ****     #if (CapSense_CSD_CONNECT_INACTIVE_SNS == CapSense_CSD_CIS_GND)
1444:.\Generated_Source\PSoC5/CapSense_CSD.c ****         *CapSense_CSD_pcTable[sensor] = CapSense_CSD_PRT_PC_GND;
 1043              		.loc 1 1444 0
 1044 006c FA79     		ldrb	r2, [r7, #7]	@ zero_extendqisi2
 1045 006e 40F20003 		movw	r3, #:lower16:CapSense_CSD_pcTable
 1046 0072 C0F20003 		movt	r3, #:upper16:CapSense_CSD_pcTable
 1047 0076 53F82230 		ldr	r3, [r3, r2, lsl #2]
 1048 007a 4FF00802 		mov	r2, #8
 1049 007e 1A70     		strb	r2, [r3, #0]
1445:.\Generated_Source\PSoC5/CapSense_CSD.c ****     #elif (CapSense_CSD_CONNECT_INACTIVE_SNS == CapSense_CSD_CIS_HIGHZ)
1446:.\Generated_Source\PSoC5/CapSense_CSD.c ****         *CapSense_CSD_pcTable[sensor] = CapSense_CSD_PRT_PC_HIGHZ;
1447:.\Generated_Source\PSoC5/CapSense_CSD.c ****     #else
1448:.\Generated_Source\PSoC5/CapSense_CSD.c ****         *CapSense_CSD_pcTable[sensor] = CapSense_CSD_PRT_PC_SHIELD;
1449:.\Generated_Source\PSoC5/CapSense_CSD.c ****     #endif  /* (CapSense_CSD_CONNECT_INACTIVE_SNS == CapSense_CSD_CIS_GND) */
1450:.\Generated_Source\PSoC5/CapSense_CSD.c **** }
 1050              		.loc 1 1450 0
 1051 0080 07F11007 		add	r7, r7, #16
ARM GAS  C:\Users\yguan5\AppData\Local\Temp\ccDbifVx.s 			page 45


 1052 0084 BD46     		mov	sp, r7
 1053 0086 80BD     		pop	{r7, pc}
 1054              		.cfi_endproc
 1055              	.LFE12:
 1056              		.size	CapSense_CSD_DisableSensor, .-CapSense_CSD_DisableSensor
 1057              		.section	.text.CapSense_CSD_PreScan,"ax",%progbits
 1058              		.align	2
 1059              		.global	CapSense_CSD_PreScan
 1060              		.thumb
 1061              		.thumb_func
 1062              		.type	CapSense_CSD_PreScan, %function
 1063              	CapSense_CSD_PreScan:
 1064              	.LFB13:
1451:.\Generated_Source\PSoC5/CapSense_CSD.c **** 
1452:.\Generated_Source\PSoC5/CapSense_CSD.c **** 
1453:.\Generated_Source\PSoC5/CapSense_CSD.c **** /*******************************************************************************
1454:.\Generated_Source\PSoC5/CapSense_CSD.c **** * Function Name: CapSense_CSD_PreScan
1455:.\Generated_Source\PSoC5/CapSense_CSD.c **** ********************************************************************************
1456:.\Generated_Source\PSoC5/CapSense_CSD.c **** *
1457:.\Generated_Source\PSoC5/CapSense_CSD.c **** * Summary:
1458:.\Generated_Source\PSoC5/CapSense_CSD.c **** *  Set required settings, enable sensor, remove Vref from AMUX and start the 
1459:.\Generated_Source\PSoC5/CapSense_CSD.c **** *  scanning process of the sensor.
1460:.\Generated_Source\PSoC5/CapSense_CSD.c **** *
1461:.\Generated_Source\PSoC5/CapSense_CSD.c **** * Parameters:
1462:.\Generated_Source\PSoC5/CapSense_CSD.c **** *  sensor:  Sensor number.
1463:.\Generated_Source\PSoC5/CapSense_CSD.c **** *
1464:.\Generated_Source\PSoC5/CapSense_CSD.c **** * Return:
1465:.\Generated_Source\PSoC5/CapSense_CSD.c **** *  None
1466:.\Generated_Source\PSoC5/CapSense_CSD.c **** *
1467:.\Generated_Source\PSoC5/CapSense_CSD.c **** * Global Variables:
1468:.\Generated_Source\PSoC5/CapSense_CSD.c **** *  CapSense_CSD_rbTable[] - used to store pointers to PC pin registers for 
1469:.\Generated_Source\PSoC5/CapSense_CSD.c **** *  every bleed resistor (Rb). Only available when Current Source is External 
1470:.\Generated_Source\PSoC5/CapSense_CSD.c **** *  resistor.
1471:.\Generated_Source\PSoC5/CapSense_CSD.c **** *
1472:.\Generated_Source\PSoC5/CapSense_CSD.c **** *******************************************************************************/
1473:.\Generated_Source\PSoC5/CapSense_CSD.c **** void CapSense_CSD_PreScan(uint8 sensor) CYREENTRANT
1474:.\Generated_Source\PSoC5/CapSense_CSD.c **** {
 1065              		.loc 1 1474 0
 1066              		.cfi_startproc
 1067              		@ args = 0, pretend = 0, frame = 8
 1068              		@ frame_needed = 1, uses_anonymous_args = 0
 1069 0000 80B5     		push	{r7, lr}
 1070              	.LCFI35:
 1071              		.cfi_def_cfa_offset 8
 1072 0002 82B0     		sub	sp, sp, #8
 1073              	.LCFI36:
 1074              		.cfi_def_cfa_offset 16
 1075 0004 00AF     		add	r7, sp, #0
 1076              		.cfi_offset 14, -4
 1077              		.cfi_offset 7, -8
 1078              	.LCFI37:
 1079              		.cfi_def_cfa_register 7
 1080 0006 0346     		mov	r3, r0
 1081 0008 FB71     		strb	r3, [r7, #7]
1475:.\Generated_Source\PSoC5/CapSense_CSD.c ****     /* Set Sensor Settings */
1476:.\Generated_Source\PSoC5/CapSense_CSD.c ****     CapSense_CSD_SetScanSlotSettings(sensor);
 1082              		.loc 1 1476 0
ARM GAS  C:\Users\yguan5\AppData\Local\Temp\ccDbifVx.s 			page 46


 1083 000a FB79     		ldrb	r3, [r7, #7]	@ zero_extendqisi2
 1084 000c 1846     		mov	r0, r3
 1085 000e FFF7FEFF 		bl	CapSense_CSD_SetScanSlotSettings
1477:.\Generated_Source\PSoC5/CapSense_CSD.c ****     
1478:.\Generated_Source\PSoC5/CapSense_CSD.c ****     /* Place disable interrupts here to eliminate influence on start of scanning */
1479:.\Generated_Source\PSoC5/CapSense_CSD.c ****     /* `#START CapSense_CSD_PreScan_DisableInt` */
1480:.\Generated_Source\PSoC5/CapSense_CSD.c **** 
1481:.\Generated_Source\PSoC5/CapSense_CSD.c ****     /* `#END` */
1482:.\Generated_Source\PSoC5/CapSense_CSD.c ****     
1483:.\Generated_Source\PSoC5/CapSense_CSD.c ****     /* Resets digital and pre-charge clocks */
1484:.\Generated_Source\PSoC5/CapSense_CSD.c ****     CapSense_CSD_CONTROL_REG |= CapSense_CSD_CTRL_SYNC_EN;
 1086              		.loc 1 1484 0
 1087 0012 46F27743 		movw	r3, #:lower16:1073767543
 1088 0016 C4F20003 		movt	r3, #:upper16:1073767543
 1089 001a 46F27742 		movw	r2, #:lower16:1073767543
 1090 001e C4F20002 		movt	r2, #:upper16:1073767543
 1091 0022 1278     		ldrb	r2, [r2, #0]
 1092 0024 D2B2     		uxtb	r2, r2
 1093 0026 42F00102 		orr	r2, r2, #1
 1094 002a D2B2     		uxtb	r2, r2
 1095 002c 1A70     		strb	r2, [r3, #0]
1485:.\Generated_Source\PSoC5/CapSense_CSD.c ****         
1486:.\Generated_Source\PSoC5/CapSense_CSD.c ****     #if (CapSense_CSD_DESIGN_TYPE == CapSense_CSD_ONE_CHANNEL_DESIGN)
1487:.\Generated_Source\PSoC5/CapSense_CSD.c ****         #if (CapSense_CSD_CURRENT_SOURCE == CapSense_CSD_IDAC_SOURCE)
1488:.\Generated_Source\PSoC5/CapSense_CSD.c ****             /* Disable Vref from AMux */
1489:.\Generated_Source\PSoC5/CapSense_CSD.c ****             #if (CapSense_CSD_VREF_VDAC == CapSense_CSD_VREF_OPTIONS)
1490:.\Generated_Source\PSoC5/CapSense_CSD.c ****                 CapSense_CSD_AMuxCH0_Disconnect(CapSense_CSD_AMuxCH0_VREF_CHANNEL);
1491:.\Generated_Source\PSoC5/CapSense_CSD.c ****             #else
1492:.\Generated_Source\PSoC5/CapSense_CSD.c ****                 CapSense_CSD_BufCH0_CAPS_CFG0_REG &= ~CapSense_CSD_CSBUF_ENABLE;
 1096              		.loc 1 1492 0
 1097 002e 45F67203 		movw	r3, #:lower16:1073764466
 1098 0032 C4F20003 		movt	r3, #:upper16:1073764466
 1099 0036 45F67202 		movw	r2, #:lower16:1073764466
 1100 003a C4F20002 		movt	r2, #:upper16:1073764466
 1101 003e 1278     		ldrb	r2, [r2, #0]
 1102 0040 D2B2     		uxtb	r2, r2
 1103 0042 02F0FE02 		and	r2, r2, #254
 1104 0046 1A70     		strb	r2, [r3, #0]
1493:.\Generated_Source\PSoC5/CapSense_CSD.c ****             #endif  /* (CapSense_CSD_VREF_VDAC != CapSense_CSD_VREF_OPTIONS) */
1494:.\Generated_Source\PSoC5/CapSense_CSD.c **** 
1495:.\Generated_Source\PSoC5/CapSense_CSD.c ****             /* Enable Sensor */
1496:.\Generated_Source\PSoC5/CapSense_CSD.c ****             CapSense_CSD_EnableScanSlot(sensor);
 1105              		.loc 1 1496 0
 1106 0048 FB79     		ldrb	r3, [r7, #7]	@ zero_extendqisi2
 1107 004a 1846     		mov	r0, r3
 1108 004c FFF7FEFF 		bl	CapSense_CSD_EnableSensor
1497:.\Generated_Source\PSoC5/CapSense_CSD.c ****             
1498:.\Generated_Source\PSoC5/CapSense_CSD.c ****         #elif (CapSense_CSD_CURRENT_SOURCE == CapSense_CSD_IDAC_SINK)
1499:.\Generated_Source\PSoC5/CapSense_CSD.c ****             /* Connect IDAC */
1500:.\Generated_Source\PSoC5/CapSense_CSD.c ****             CapSense_CSD_AMuxCH0_Connect(CapSense_CSD_AMuxCH0_IDAC_CHANNEL);
1501:.\Generated_Source\PSoC5/CapSense_CSD.c ****             
1502:.\Generated_Source\PSoC5/CapSense_CSD.c ****             /* Enable Sensor */
1503:.\Generated_Source\PSoC5/CapSense_CSD.c ****             CapSense_CSD_EnableScanSlot(sensor);
1504:.\Generated_Source\PSoC5/CapSense_CSD.c ****                 
1505:.\Generated_Source\PSoC5/CapSense_CSD.c ****             /* Disable CapSense Buffer */
1506:.\Generated_Source\PSoC5/CapSense_CSD.c ****             CapSense_CSD_BufCH0_CAPS_CFG0_REG &= ~CapSense_CSD_CSBUF_ENABLE;
1507:.\Generated_Source\PSoC5/CapSense_CSD.c ****             
ARM GAS  C:\Users\yguan5\AppData\Local\Temp\ccDbifVx.s 			page 47


1508:.\Generated_Source\PSoC5/CapSense_CSD.c ****         #else
1509:.\Generated_Source\PSoC5/CapSense_CSD.c ****             /* Connect DSI output to Rb */
1510:.\Generated_Source\PSoC5/CapSense_CSD.c ****             *CapSense_CSD_rbTable[CapSense_CSD_RbCh0_cur] |= CapSense_CSD_BYP_MASK;
1511:.\Generated_Source\PSoC5/CapSense_CSD.c ****             
1512:.\Generated_Source\PSoC5/CapSense_CSD.c ****             /* Enable Sensor */
1513:.\Generated_Source\PSoC5/CapSense_CSD.c ****             CapSense_CSD_EnableScanSlot(sensor);
1514:.\Generated_Source\PSoC5/CapSense_CSD.c ****              
1515:.\Generated_Source\PSoC5/CapSense_CSD.c ****             /* Disable CapSense Buffer */
1516:.\Generated_Source\PSoC5/CapSense_CSD.c ****             CapSense_CSD_BufCH0_CAPS_CFG0_REG &= ~CapSense_CSD_CSBUF_ENABLE;
1517:.\Generated_Source\PSoC5/CapSense_CSD.c ****         
1518:.\Generated_Source\PSoC5/CapSense_CSD.c ****         #endif  /* (CapSense_CSD_CURRENT_SOURCE == CapSense_CSD_IDAC_SOURCE) */
1519:.\Generated_Source\PSoC5/CapSense_CSD.c ****         
1520:.\Generated_Source\PSoC5/CapSense_CSD.c ****     #else
1521:.\Generated_Source\PSoC5/CapSense_CSD.c **** 
1522:.\Generated_Source\PSoC5/CapSense_CSD.c ****         if((CapSense_CSD_CONTROL_REG & CapSense_CSD_CTRL_WINDOW_EN__CH0) != 0u)
1523:.\Generated_Source\PSoC5/CapSense_CSD.c ****         {
1524:.\Generated_Source\PSoC5/CapSense_CSD.c ****             #if (CapSense_CSD_CURRENT_SOURCE == CapSense_CSD_IDAC_SOURCE)
1525:.\Generated_Source\PSoC5/CapSense_CSD.c ****                 /* Disable Vref from AMux */
1526:.\Generated_Source\PSoC5/CapSense_CSD.c ****                 #if (CapSense_CSD_VREF_VDAC == CapSense_CSD_VREF_OPTIONS)
1527:.\Generated_Source\PSoC5/CapSense_CSD.c ****                     CapSense_CSD_AMuxCH0_Disconnect(CapSense_CSD_AMuxCH0_VREF_CHANNEL);
1528:.\Generated_Source\PSoC5/CapSense_CSD.c ****                 #else
1529:.\Generated_Source\PSoC5/CapSense_CSD.c ****                     CapSense_CSD_BufCH0_CAPS_CFG0_REG &= ~CapSense_CSD_CSBUF_ENABLE;
1530:.\Generated_Source\PSoC5/CapSense_CSD.c ****                 #endif  /* (CapSense_CSD_VREF_VDAC != CapSense_CSD_VREF_OPTIONS) */
1531:.\Generated_Source\PSoC5/CapSense_CSD.c ****                 
1532:.\Generated_Source\PSoC5/CapSense_CSD.c ****                 /* Enable Sensor */
1533:.\Generated_Source\PSoC5/CapSense_CSD.c ****                 CapSense_CSD_EnableScanSlot(sensor);
1534:.\Generated_Source\PSoC5/CapSense_CSD.c ****                 
1535:.\Generated_Source\PSoC5/CapSense_CSD.c ****             #elif (CapSense_CSD_CURRENT_SOURCE == CapSense_CSD_IDAC_SINK)
1536:.\Generated_Source\PSoC5/CapSense_CSD.c ****                 /* Connect IDAC */
1537:.\Generated_Source\PSoC5/CapSense_CSD.c ****                 CapSense_CSD_AMuxCH0_Connect(CapSense_CSD_AMuxCH0_IDAC_CHANNEL);
1538:.\Generated_Source\PSoC5/CapSense_CSD.c ****                 
1539:.\Generated_Source\PSoC5/CapSense_CSD.c ****                 /* Enable Sensor */
1540:.\Generated_Source\PSoC5/CapSense_CSD.c ****                 CapSense_CSD_EnableScanSlot(sensor);
1541:.\Generated_Source\PSoC5/CapSense_CSD.c ****                     
1542:.\Generated_Source\PSoC5/CapSense_CSD.c ****                 /* Disable Vref from AMux */
1543:.\Generated_Source\PSoC5/CapSense_CSD.c ****                 CapSense_CSD_BufCH0_CAPS_CFG0_REG &= ~CapSense_CSD_CSBUF_ENABLE;
1544:.\Generated_Source\PSoC5/CapSense_CSD.c ****                 
1545:.\Generated_Source\PSoC5/CapSense_CSD.c ****             #else
1546:.\Generated_Source\PSoC5/CapSense_CSD.c ****                 /* Connect DSI output to Rb */
1547:.\Generated_Source\PSoC5/CapSense_CSD.c ****                 *CapSense_CSD_rbTable[CapSense_CSD_RbCh0_cur] |= CapSense_CSD_BYP_MASK;
1548:.\Generated_Source\PSoC5/CapSense_CSD.c ****                 
1549:.\Generated_Source\PSoC5/CapSense_CSD.c ****                 /* Enable Sensor */
1550:.\Generated_Source\PSoC5/CapSense_CSD.c ****                 CapSense_CSD_EnableScanSlot(sensor);
1551:.\Generated_Source\PSoC5/CapSense_CSD.c ****                     
1552:.\Generated_Source\PSoC5/CapSense_CSD.c ****                 /* Disable Vref from AMux */
1553:.\Generated_Source\PSoC5/CapSense_CSD.c ****                 CapSense_CSD_BufCH0_CAPS_CFG0_REG &= ~CapSense_CSD_CSBUF_ENABLE;
1554:.\Generated_Source\PSoC5/CapSense_CSD.c ****             
1555:.\Generated_Source\PSoC5/CapSense_CSD.c ****             #endif  /* (CapSense_CSD_CURRENT_SOURCE == CapSense_CSD_IDAC_SOURCE) */
1556:.\Generated_Source\PSoC5/CapSense_CSD.c ****             
1557:.\Generated_Source\PSoC5/CapSense_CSD.c ****         }
1558:.\Generated_Source\PSoC5/CapSense_CSD.c ****         
1559:.\Generated_Source\PSoC5/CapSense_CSD.c ****         if((CapSense_CSD_CONTROL_REG & CapSense_CSD_CTRL_WINDOW_EN__CH1) != 0u)
1560:.\Generated_Source\PSoC5/CapSense_CSD.c ****         {
1561:.\Generated_Source\PSoC5/CapSense_CSD.c ****             sensor += CapSense_CSD_TOTAL_SENSOR_COUNT__CH0;
1562:.\Generated_Source\PSoC5/CapSense_CSD.c ****             
1563:.\Generated_Source\PSoC5/CapSense_CSD.c ****             #if (CapSense_CSD_CURRENT_SOURCE == CapSense_CSD_IDAC_SOURCE)
1564:.\Generated_Source\PSoC5/CapSense_CSD.c ****                 /* Disable Vref from AMux */
ARM GAS  C:\Users\yguan5\AppData\Local\Temp\ccDbifVx.s 			page 48


1565:.\Generated_Source\PSoC5/CapSense_CSD.c ****                 #if (CapSense_CSD_VREF_VDAC == CapSense_CSD_VREF_OPTIONS)
1566:.\Generated_Source\PSoC5/CapSense_CSD.c ****                    CapSense_CSD_AMuxCH1_Disconnect(CapSense_CSD_AMuxCH1_VREF_CHANNEL);
1567:.\Generated_Source\PSoC5/CapSense_CSD.c ****                 #else 
1568:.\Generated_Source\PSoC5/CapSense_CSD.c ****                     CapSense_CSD_BufCH1_CAPS_CFG0_REG &= ~CapSense_CSD_CSBUF_ENABLE;
1569:.\Generated_Source\PSoC5/CapSense_CSD.c ****                 #endif  /* (CapSense_CSD_VREF_VDAC == CapSense_CSD_VREF_OPTIONS) */
1570:.\Generated_Source\PSoC5/CapSense_CSD.c ****                 
1571:.\Generated_Source\PSoC5/CapSense_CSD.c ****                 /* Enable Sensor */
1572:.\Generated_Source\PSoC5/CapSense_CSD.c ****                 CapSense_CSD_EnableScanSlot(sensor);
1573:.\Generated_Source\PSoC5/CapSense_CSD.c ****                 
1574:.\Generated_Source\PSoC5/CapSense_CSD.c ****             #elif (CapSense_CSD_CURRENT_SOURCE == CapSense_CSD_IDAC_SINK)
1575:.\Generated_Source\PSoC5/CapSense_CSD.c ****                 /* Connect IDAC */
1576:.\Generated_Source\PSoC5/CapSense_CSD.c ****                 CapSense_CSD_AMuxCH1_Connect(CapSense_CSD_AMuxCH1_IDAC_CHANNEL);
1577:.\Generated_Source\PSoC5/CapSense_CSD.c ****                 
1578:.\Generated_Source\PSoC5/CapSense_CSD.c ****                 /* Enable Sensor */
1579:.\Generated_Source\PSoC5/CapSense_CSD.c ****                 CapSense_CSD_EnableScanSlot(sensor);
1580:.\Generated_Source\PSoC5/CapSense_CSD.c ****                     
1581:.\Generated_Source\PSoC5/CapSense_CSD.c ****                 /* Disable Vref from AMux */
1582:.\Generated_Source\PSoC5/CapSense_CSD.c ****                 CapSense_CSD_BufCH1_CAPS_CFG0_REG &= ~CapSense_CSD_CSBUF_ENABLE;
1583:.\Generated_Source\PSoC5/CapSense_CSD.c ****                 
1584:.\Generated_Source\PSoC5/CapSense_CSD.c ****             #else
1585:.\Generated_Source\PSoC5/CapSense_CSD.c ****                 /* Connect DSI output to Rb */
1586:.\Generated_Source\PSoC5/CapSense_CSD.c ****                 *CapSense_CSD_rbTable[CapSense_CSD_RbCh1_cur] |= CapSense_CSD_BYP_MASK;
1587:.\Generated_Source\PSoC5/CapSense_CSD.c ****                 
1588:.\Generated_Source\PSoC5/CapSense_CSD.c ****                 /* Enable Sensor */
1589:.\Generated_Source\PSoC5/CapSense_CSD.c ****                 CapSense_CSD_EnableScanSlot(sensor);
1590:.\Generated_Source\PSoC5/CapSense_CSD.c ****                 
1591:.\Generated_Source\PSoC5/CapSense_CSD.c ****                 /* Disable Vref from AMux */
1592:.\Generated_Source\PSoC5/CapSense_CSD.c ****                 CapSense_CSD_BufCH1_CAPS_CFG0_REG &= ~CapSense_CSD_CSBUF_ENABLE;
1593:.\Generated_Source\PSoC5/CapSense_CSD.c ****             
1594:.\Generated_Source\PSoC5/CapSense_CSD.c ****             #endif  /* (CapSense_CSD_CURRENT_SOURCE == CapSense_CSD_IDAC_SOURCE) */
1595:.\Generated_Source\PSoC5/CapSense_CSD.c ****         }
1596:.\Generated_Source\PSoC5/CapSense_CSD.c ****     
1597:.\Generated_Source\PSoC5/CapSense_CSD.c ****     #endif  /* (CapSense_CSD_DESIGN_TYPE == CapSense_CSD_ONE_CHANNEL_DESIGN) */
1598:.\Generated_Source\PSoC5/CapSense_CSD.c ****     
1599:.\Generated_Source\PSoC5/CapSense_CSD.c ****     /* Start measurament, pre-charge clocks are running and PRS as well */
1600:.\Generated_Source\PSoC5/CapSense_CSD.c ****     CapSense_CSD_CONTROL_REG |= CapSense_CSD_CTRL_START;
 1109              		.loc 1 1600 0
 1110 0050 46F27743 		movw	r3, #:lower16:1073767543
 1111 0054 C4F20003 		movt	r3, #:upper16:1073767543
 1112 0058 46F27742 		movw	r2, #:lower16:1073767543
 1113 005c C4F20002 		movt	r2, #:upper16:1073767543
 1114 0060 1278     		ldrb	r2, [r2, #0]
 1115 0062 D2B2     		uxtb	r2, r2
 1116 0064 42F00202 		orr	r2, r2, #2
 1117 0068 D2B2     		uxtb	r2, r2
 1118 006a 1A70     		strb	r2, [r3, #0]
1601:.\Generated_Source\PSoC5/CapSense_CSD.c ****     
1602:.\Generated_Source\PSoC5/CapSense_CSD.c ****     /* Place enable interrupts here to eliminate influence on start of scanning */
1603:.\Generated_Source\PSoC5/CapSense_CSD.c ****     /* `#START CapSense_CSD_PreScan_EnableInt` */
1604:.\Generated_Source\PSoC5/CapSense_CSD.c **** 
1605:.\Generated_Source\PSoC5/CapSense_CSD.c ****     /* `#END` */
1606:.\Generated_Source\PSoC5/CapSense_CSD.c **** }
 1119              		.loc 1 1606 0
 1120 006c 07F10807 		add	r7, r7, #8
 1121 0070 BD46     		mov	sp, r7
 1122 0072 80BD     		pop	{r7, pc}
 1123              		.cfi_endproc
ARM GAS  C:\Users\yguan5\AppData\Local\Temp\ccDbifVx.s 			page 49


 1124              	.LFE13:
 1125              		.size	CapSense_CSD_PreScan, .-CapSense_CSD_PreScan
 1126              		.section	.text.CapSense_CSD_PostScan,"ax",%progbits
 1127              		.align	2
 1128              		.global	CapSense_CSD_PostScan
 1129              		.thumb
 1130              		.thumb_func
 1131              		.type	CapSense_CSD_PostScan, %function
 1132              	CapSense_CSD_PostScan:
 1133              	.LFB14:
1607:.\Generated_Source\PSoC5/CapSense_CSD.c **** 
1608:.\Generated_Source\PSoC5/CapSense_CSD.c **** 
1609:.\Generated_Source\PSoC5/CapSense_CSD.c **** #if (CapSense_CSD_DESIGN_TYPE == CapSense_CSD_ONE_CHANNEL_DESIGN)
1610:.\Generated_Source\PSoC5/CapSense_CSD.c ****     /*******************************************************************************
1611:.\Generated_Source\PSoC5/CapSense_CSD.c ****     * Function Name: CapSense_CSD_PostScan
1612:.\Generated_Source\PSoC5/CapSense_CSD.c ****     ********************************************************************************
1613:.\Generated_Source\PSoC5/CapSense_CSD.c ****     *
1614:.\Generated_Source\PSoC5/CapSense_CSD.c ****     * Summary:
1615:.\Generated_Source\PSoC5/CapSense_CSD.c ****     *  Store results of measurament in CapSense_CSD_SensorResult[] array,
1616:.\Generated_Source\PSoC5/CapSense_CSD.c ****     *  sets scan sensor in none sampling state, turn off Idac(Current Source IDAC),
1617:.\Generated_Source\PSoC5/CapSense_CSD.c ****     *  disconnect IDAC(Sink mode) or bleed resistor (Rb) and apply Vref on AMUX.
1618:.\Generated_Source\PSoC5/CapSense_CSD.c ****     *  Only one channel designs.
1619:.\Generated_Source\PSoC5/CapSense_CSD.c ****     *
1620:.\Generated_Source\PSoC5/CapSense_CSD.c ****     * Parameters:
1621:.\Generated_Source\PSoC5/CapSense_CSD.c ****     *  sensor:  Sensor number.
1622:.\Generated_Source\PSoC5/CapSense_CSD.c ****     *
1623:.\Generated_Source\PSoC5/CapSense_CSD.c ****     * Return:
1624:.\Generated_Source\PSoC5/CapSense_CSD.c ****     *  None
1625:.\Generated_Source\PSoC5/CapSense_CSD.c ****     *
1626:.\Generated_Source\PSoC5/CapSense_CSD.c ****     * Global Variables:
1627:.\Generated_Source\PSoC5/CapSense_CSD.c ****     *  CapSense_CSD_SensorRaw[] - used to store sensors raw data.
1628:.\Generated_Source\PSoC5/CapSense_CSD.c ****     *
1629:.\Generated_Source\PSoC5/CapSense_CSD.c ****     * Reentrant:
1630:.\Generated_Source\PSoC5/CapSense_CSD.c ****     *  No
1631:.\Generated_Source\PSoC5/CapSense_CSD.c ****     *
1632:.\Generated_Source\PSoC5/CapSense_CSD.c ****     *******************************************************************************/
1633:.\Generated_Source\PSoC5/CapSense_CSD.c ****     void CapSense_CSD_PostScan(uint8 sensor) CYREENTRANT
1634:.\Generated_Source\PSoC5/CapSense_CSD.c ****     {
 1134              		.loc 1 1634 0
 1135              		.cfi_startproc
 1136              		@ args = 0, pretend = 0, frame = 8
 1137              		@ frame_needed = 1, uses_anonymous_args = 0
 1138 0000 80B5     		push	{r7, lr}
 1139              	.LCFI38:
 1140              		.cfi_def_cfa_offset 8
 1141 0002 82B0     		sub	sp, sp, #8
 1142              	.LCFI39:
 1143              		.cfi_def_cfa_offset 16
 1144 0004 00AF     		add	r7, sp, #0
 1145              		.cfi_offset 14, -4
 1146              		.cfi_offset 7, -8
 1147              	.LCFI40:
 1148              		.cfi_def_cfa_register 7
 1149 0006 0346     		mov	r3, r0
 1150 0008 FB71     		strb	r3, [r7, #7]
1635:.\Generated_Source\PSoC5/CapSense_CSD.c ****         /* Stop Capsensing and rearm sync */
1636:.\Generated_Source\PSoC5/CapSense_CSD.c ****         CapSense_CSD_CONTROL_REG &= ~(CapSense_CSD_CTRL_START | CapSense_CSD_CTRL_SYNC_EN);
ARM GAS  C:\Users\yguan5\AppData\Local\Temp\ccDbifVx.s 			page 50


 1151              		.loc 1 1636 0
 1152 000a 46F27743 		movw	r3, #:lower16:1073767543
 1153 000e C4F20003 		movt	r3, #:upper16:1073767543
 1154 0012 46F27742 		movw	r2, #:lower16:1073767543
 1155 0016 C4F20002 		movt	r2, #:upper16:1073767543
 1156 001a 1278     		ldrb	r2, [r2, #0]
 1157 001c D2B2     		uxtb	r2, r2
 1158 001e 02F0FC02 		and	r2, r2, #252
 1159 0022 1A70     		strb	r2, [r3, #0]
1637:.\Generated_Source\PSoC5/CapSense_CSD.c ****         
1638:.\Generated_Source\PSoC5/CapSense_CSD.c ****         /* Read SlotResult from Raw Counter */
1639:.\Generated_Source\PSoC5/CapSense_CSD.c ****         #if (CapSense_CSD_IMPLEMENTATION_CH0 == CapSense_CSD_MEASURE_IMPLEMENTATION_FF)
1640:.\Generated_Source\PSoC5/CapSense_CSD.c ****             CapSense_CSD_SensorRaw[sensor]  = CapSense_CSD_MEASURE_FULL_RANGE - 
1641:.\Generated_Source\PSoC5/CapSense_CSD.c ****                                                       CY_GET_REG16(CapSense_CSD_RAW_CH0_COUNTER_PTR
1642:.\Generated_Source\PSoC5/CapSense_CSD.c ****         #else
1643:.\Generated_Source\PSoC5/CapSense_CSD.c ****             CapSense_CSD_SensorRaw[sensor]  = ((uint16) CapSense_CSD_RAW_CH0_COUNTER_HI_REG << 8u);
 1160              		.loc 1 1643 0
 1161 0024 FA79     		ldrb	r2, [r7, #7]	@ zero_extendqisi2
 1162 0026 46F21343 		movw	r3, #:lower16:1073767443
 1163 002a C4F20003 		movt	r3, #:upper16:1073767443
 1164 002e 1B78     		ldrb	r3, [r3, #0]
 1165 0030 DBB2     		uxtb	r3, r3
 1166 0032 4FEA0323 		lsl	r3, r3, #8
 1167 0036 99B2     		uxth	r1, r3
 1168 0038 40F20003 		movw	r3, #:lower16:CapSense_CSD_SensorRaw
 1169 003c C0F20003 		movt	r3, #:upper16:CapSense_CSD_SensorRaw
 1170 0040 23F81210 		strh	r1, [r3, r2, lsl #1]	@ movhi
1644:.\Generated_Source\PSoC5/CapSense_CSD.c ****             CapSense_CSD_SensorRaw[sensor] |= (uint16) CapSense_CSD_RAW_CH0_COUNTER_LO_REG;
 1171              		.loc 1 1644 0
 1172 0044 FA79     		ldrb	r2, [r7, #7]	@ zero_extendqisi2
 1173 0046 F979     		ldrb	r1, [r7, #7]	@ zero_extendqisi2
 1174 0048 40F20003 		movw	r3, #:lower16:CapSense_CSD_SensorRaw
 1175 004c C0F20003 		movt	r3, #:upper16:CapSense_CSD_SensorRaw
 1176 0050 33F81110 		ldrh	r1, [r3, r1, lsl #1]
 1177 0054 46F20343 		movw	r3, #:lower16:1073767427
 1178 0058 C4F20003 		movt	r3, #:upper16:1073767427
 1179 005c 1B78     		ldrb	r3, [r3, #0]
 1180 005e DBB2     		uxtb	r3, r3
 1181 0060 41EA0303 		orr	r3, r1, r3
 1182 0064 99B2     		uxth	r1, r3
 1183 0066 40F20003 		movw	r3, #:lower16:CapSense_CSD_SensorRaw
 1184 006a C0F20003 		movt	r3, #:upper16:CapSense_CSD_SensorRaw
 1185 006e 23F81210 		strh	r1, [r3, r2, lsl #1]	@ movhi
1645:.\Generated_Source\PSoC5/CapSense_CSD.c ****             CapSense_CSD_SensorRaw[sensor]  = CapSense_CSD_MEASURE_FULL_RANGE -
 1186              		.loc 1 1645 0
 1187 0072 FA79     		ldrb	r2, [r7, #7]	@ zero_extendqisi2
1646:.\Generated_Source\PSoC5/CapSense_CSD.c ****                                                       CapSense_CSD_SensorRaw[sensor];
 1188              		.loc 1 1646 0
 1189 0074 F979     		ldrb	r1, [r7, #7]	@ zero_extendqisi2
 1190 0076 40F20003 		movw	r3, #:lower16:CapSense_CSD_SensorRaw
 1191 007a C0F20003 		movt	r3, #:upper16:CapSense_CSD_SensorRaw
 1192 007e 33F81130 		ldrh	r3, [r3, r1, lsl #1]
 1193              		.loc 1 1645 0
 1194 0082 6FEA0303 		mvn	r3, r3
 1195 0086 99B2     		uxth	r1, r3
 1196 0088 40F20003 		movw	r3, #:lower16:CapSense_CSD_SensorRaw
 1197 008c C0F20003 		movt	r3, #:upper16:CapSense_CSD_SensorRaw
ARM GAS  C:\Users\yguan5\AppData\Local\Temp\ccDbifVx.s 			page 51


 1198 0090 23F81210 		strh	r1, [r3, r2, lsl #1]	@ movhi
1647:.\Generated_Source\PSoC5/CapSense_CSD.c ****         #endif  /* (CapSense_CSD_IMPLEMENTATION == CapSense_CSD_MEASURE_IMPLEMENTATION_FF) */
1648:.\Generated_Source\PSoC5/CapSense_CSD.c ****         
1649:.\Generated_Source\PSoC5/CapSense_CSD.c ****         /* Disable Sensor */
1650:.\Generated_Source\PSoC5/CapSense_CSD.c ****         CapSense_CSD_DisableScanSlot(sensor);
 1199              		.loc 1 1650 0
 1200 0094 FB79     		ldrb	r3, [r7, #7]	@ zero_extendqisi2
 1201 0096 1846     		mov	r0, r3
 1202 0098 FFF7FEFF 		bl	CapSense_CSD_DisableSensor
1651:.\Generated_Source\PSoC5/CapSense_CSD.c ****         
1652:.\Generated_Source\PSoC5/CapSense_CSD.c ****         #if(CapSense_CSD_CURRENT_SOURCE)
1653:.\Generated_Source\PSoC5/CapSense_CSD.c ****             /* Turn off IDAC */
1654:.\Generated_Source\PSoC5/CapSense_CSD.c ****             CapSense_CSD_IdacCH0_SetValue(CapSense_CSD_TURN_OFF_IDAC);
 1203              		.loc 1 1654 0
 1204 009c 4FF00000 		mov	r0, #0
 1205 00a0 FFF7FEFF 		bl	CapSense_CSD_IdacCH0_SetValue
1655:.\Generated_Source\PSoC5/CapSense_CSD.c ****             #if (CapSense_CSD_CURRENT_SOURCE == CapSense_CSD_IDAC_SINK)
1656:.\Generated_Source\PSoC5/CapSense_CSD.c ****                 /* Disconnect IDAC */
1657:.\Generated_Source\PSoC5/CapSense_CSD.c ****                 CapSense_CSD_AMuxCH0_Disconnect(CapSense_CSD_AMuxCH0_IDAC_CHANNEL);
1658:.\Generated_Source\PSoC5/CapSense_CSD.c ****             #endif  /* (CapSense_CSD_CURRENT_SOURCE == CapSense_CSD_IDAC_SINK) */
1659:.\Generated_Source\PSoC5/CapSense_CSD.c ****         #else
1660:.\Generated_Source\PSoC5/CapSense_CSD.c ****             /* Disconnect DSI output from Rb */
1661:.\Generated_Source\PSoC5/CapSense_CSD.c ****             *CapSense_CSD_rbTable[CapSense_CSD_RbCh0_cur] &= ~CapSense_CSD_BYP_MASK; 
1662:.\Generated_Source\PSoC5/CapSense_CSD.c ****         #endif  /* (CapSense_CSD_CURRENT_SOURCE)*/
1663:.\Generated_Source\PSoC5/CapSense_CSD.c ****             
1664:.\Generated_Source\PSoC5/CapSense_CSD.c ****         /* Enable Vref on AMUX */
1665:.\Generated_Source\PSoC5/CapSense_CSD.c ****         #if (CapSense_CSD_VREF_OPTIONS == CapSense_CSD_VREF_VDAC)
1666:.\Generated_Source\PSoC5/CapSense_CSD.c ****             CapSense_CSD_AMuxCH0_Connect(CapSense_CSD_AMuxCH0_VREF_CHANNEL);
1667:.\Generated_Source\PSoC5/CapSense_CSD.c ****         #else
1668:.\Generated_Source\PSoC5/CapSense_CSD.c ****             CapSense_CSD_BufCH0_CAPS_CFG0_REG |= CapSense_CSD_CSBUF_ENABLE;
 1206              		.loc 1 1668 0
 1207 00a4 45F67203 		movw	r3, #:lower16:1073764466
 1208 00a8 C4F20003 		movt	r3, #:upper16:1073764466
 1209 00ac 45F67202 		movw	r2, #:lower16:1073764466
 1210 00b0 C4F20002 		movt	r2, #:upper16:1073764466
 1211 00b4 1278     		ldrb	r2, [r2, #0]
 1212 00b6 D2B2     		uxtb	r2, r2
 1213 00b8 42F00102 		orr	r2, r2, #1
 1214 00bc D2B2     		uxtb	r2, r2
 1215 00be 1A70     		strb	r2, [r3, #0]
1669:.\Generated_Source\PSoC5/CapSense_CSD.c ****         #endif  /* (CapSense_CSD_VREF_VDAC == CapSense_CSD_VREF_OPTIONS) */
1670:.\Generated_Source\PSoC5/CapSense_CSD.c ****     }
 1216              		.loc 1 1670 0
 1217 00c0 07F10807 		add	r7, r7, #8
 1218 00c4 BD46     		mov	sp, r7
 1219 00c6 80BD     		pop	{r7, pc}
 1220              		.cfi_endproc
 1221              	.LFE14:
 1222              		.size	CapSense_CSD_PostScan, .-CapSense_CSD_PostScan
 1223              		.section	.text.CapSense_CSD_SetPrescaler,"ax",%progbits
 1224              		.align	2
 1225              		.global	CapSense_CSD_SetPrescaler
 1226              		.thumb
 1227              		.thumb_func
 1228              		.type	CapSense_CSD_SetPrescaler, %function
 1229              	CapSense_CSD_SetPrescaler:
 1230              	.LFB15:
ARM GAS  C:\Users\yguan5\AppData\Local\Temp\ccDbifVx.s 			page 52


1671:.\Generated_Source\PSoC5/CapSense_CSD.c ****     
1672:.\Generated_Source\PSoC5/CapSense_CSD.c **** #else
1673:.\Generated_Source\PSoC5/CapSense_CSD.c **** 
1674:.\Generated_Source\PSoC5/CapSense_CSD.c ****     /*******************************************************************************
1675:.\Generated_Source\PSoC5/CapSense_CSD.c ****     * Function Name: CapSense_CSD_PostScan
1676:.\Generated_Source\PSoC5/CapSense_CSD.c ****     ********************************************************************************
1677:.\Generated_Source\PSoC5/CapSense_CSD.c ****     *
1678:.\Generated_Source\PSoC5/CapSense_CSD.c ****     * Summary:
1679:.\Generated_Source\PSoC5/CapSense_CSD.c ****     *  Store results of measurament in CapSense_CSD_SensorResult[] array,
1680:.\Generated_Source\PSoC5/CapSense_CSD.c ****     *  sets scan sensor in none sampling state, turn off Idac(Current Source IDAC),
1681:.\Generated_Source\PSoC5/CapSense_CSD.c ****     *  disconnect IDAC(Sink mode) or bleed resistor (Rb) and apply Vref on AMUX.
1682:.\Generated_Source\PSoC5/CapSense_CSD.c ****     *  Only used for channel 0 in two channes designs.
1683:.\Generated_Source\PSoC5/CapSense_CSD.c ****     *
1684:.\Generated_Source\PSoC5/CapSense_CSD.c ****     * Parameters:
1685:.\Generated_Source\PSoC5/CapSense_CSD.c ****     *  sensor:  Sensor number.
1686:.\Generated_Source\PSoC5/CapSense_CSD.c ****     *
1687:.\Generated_Source\PSoC5/CapSense_CSD.c ****     * Return:
1688:.\Generated_Source\PSoC5/CapSense_CSD.c ****     *  None
1689:.\Generated_Source\PSoC5/CapSense_CSD.c ****     *
1690:.\Generated_Source\PSoC5/CapSense_CSD.c ****     * Global Variables:
1691:.\Generated_Source\PSoC5/CapSense_CSD.c ****     *  CapSense_CSD_SensorRaw[] - used to store sensors raw data.
1692:.\Generated_Source\PSoC5/CapSense_CSD.c ****     *
1693:.\Generated_Source\PSoC5/CapSense_CSD.c ****     * Reentrant:
1694:.\Generated_Source\PSoC5/CapSense_CSD.c ****     *  No
1695:.\Generated_Source\PSoC5/CapSense_CSD.c ****     *
1696:.\Generated_Source\PSoC5/CapSense_CSD.c ****     *******************************************************************************/
1697:.\Generated_Source\PSoC5/CapSense_CSD.c ****     void CapSense_CSD_PostScanCh0(uint8 sensor) CYREENTRANT
1698:.\Generated_Source\PSoC5/CapSense_CSD.c ****     {
1699:.\Generated_Source\PSoC5/CapSense_CSD.c ****         if (((CapSense_CSD_CONTROL_REG & CapSense_CSD_CTRL_WINDOW_EN__CH0) == 0u) && 
1700:.\Generated_Source\PSoC5/CapSense_CSD.c ****             ((CapSense_CSD_CONTROL_REG & CapSense_CSD_CTRL_WINDOW_EN__CH1) == 0u)) 
1701:.\Generated_Source\PSoC5/CapSense_CSD.c ****         {
1702:.\Generated_Source\PSoC5/CapSense_CSD.c ****             /* Stop Capsensing and rearm sync */
1703:.\Generated_Source\PSoC5/CapSense_CSD.c ****             CapSense_CSD_CONTROL_REG &= ~(CapSense_CSD_CTRL_START | CapSense_CSD_CTRL_SYNC_EN);
1704:.\Generated_Source\PSoC5/CapSense_CSD.c ****         }
1705:.\Generated_Source\PSoC5/CapSense_CSD.c ****         
1706:.\Generated_Source\PSoC5/CapSense_CSD.c ****         /* Read SlotResult from Raw Counter */
1707:.\Generated_Source\PSoC5/CapSense_CSD.c ****         #if (CapSense_CSD_IMPLEMENTATION_CH0 == CapSense_CSD_MEASURE_IMPLEMENTATION_FF)
1708:.\Generated_Source\PSoC5/CapSense_CSD.c ****             CapSense_CSD_SensorRaw[sensor]  = CapSense_CSD_MEASURE_FULL_RANGE - 
1709:.\Generated_Source\PSoC5/CapSense_CSD.c ****                                                       CY_GET_REG16(CapSense_CSD_RAW_CH0_COUNTER_PTR
1710:.\Generated_Source\PSoC5/CapSense_CSD.c ****         #else
1711:.\Generated_Source\PSoC5/CapSense_CSD.c ****             CapSense_CSD_SensorRaw[sensor]  = ((uint16) CapSense_CSD_RAW_CH0_COUNTER_HI_REG << 8u);
1712:.\Generated_Source\PSoC5/CapSense_CSD.c ****             CapSense_CSD_SensorRaw[sensor] |= (uint16) CapSense_CSD_RAW_CH0_COUNTER_LO_REG;
1713:.\Generated_Source\PSoC5/CapSense_CSD.c ****             CapSense_CSD_SensorRaw[sensor]  = CapSense_CSD_MEASURE_FULL_RANGE - 
1714:.\Generated_Source\PSoC5/CapSense_CSD.c ****                                                       CapSense_CSD_SensorRaw[sensor];
1715:.\Generated_Source\PSoC5/CapSense_CSD.c ****         #endif  /* (CapSense_CSD_IMPLEMENTATION_CH0 == CapSense_CSD_MEASURE_IMPLEMENTATION_FF)*/
1716:.\Generated_Source\PSoC5/CapSense_CSD.c ****         
1717:.\Generated_Source\PSoC5/CapSense_CSD.c ****         /* Disable Sensor */
1718:.\Generated_Source\PSoC5/CapSense_CSD.c ****         CapSense_CSD_DisableScanSlot(sensor);
1719:.\Generated_Source\PSoC5/CapSense_CSD.c ****         
1720:.\Generated_Source\PSoC5/CapSense_CSD.c ****         #if (CapSense_CSD_CURRENT_SOURCE)
1721:.\Generated_Source\PSoC5/CapSense_CSD.c ****             /* Turn off IDAC */
1722:.\Generated_Source\PSoC5/CapSense_CSD.c ****             CapSense_CSD_IdacCH0_SetValue(CapSense_CSD_TURN_OFF_IDAC);
1723:.\Generated_Source\PSoC5/CapSense_CSD.c ****             #if (CapSense_CSD_CURRENT_SOURCE == CapSense_CSD_IDAC_SINK)
1724:.\Generated_Source\PSoC5/CapSense_CSD.c ****                 /* Disconnect IDAC */
1725:.\Generated_Source\PSoC5/CapSense_CSD.c ****                 CapSense_CSD_AMuxCH0_Disconnect(CapSense_CSD_AMuxCH0_IDAC_CHANNEL);
1726:.\Generated_Source\PSoC5/CapSense_CSD.c ****             #endif  /* (CapSense_CSD_CURRENT_SOURCE == CapSense_CSD_IDAC_SINK) */
1727:.\Generated_Source\PSoC5/CapSense_CSD.c ****         #else
ARM GAS  C:\Users\yguan5\AppData\Local\Temp\ccDbifVx.s 			page 53


1728:.\Generated_Source\PSoC5/CapSense_CSD.c ****             /* Disconnect DSI output from Rb */
1729:.\Generated_Source\PSoC5/CapSense_CSD.c ****             *CapSense_CSD_rbTable[CapSense_CSD_RbCh0_cur] &= ~CapSense_CSD_BYP_MASK; 
1730:.\Generated_Source\PSoC5/CapSense_CSD.c ****         #endif  /* (CapSense_CSD_CURRENT_SOURCE)*/
1731:.\Generated_Source\PSoC5/CapSense_CSD.c ****         
1732:.\Generated_Source\PSoC5/CapSense_CSD.c ****         /* Enable Vref on AMUX */
1733:.\Generated_Source\PSoC5/CapSense_CSD.c ****         #if (CapSense_CSD_VREF_OPTIONS == CapSense_CSD_VREF_VDAC)
1734:.\Generated_Source\PSoC5/CapSense_CSD.c ****             CapSense_CSD_AMuxCH0_Connect(CapSense_CSD_AMuxCH0_VREF_CHANNEL);
1735:.\Generated_Source\PSoC5/CapSense_CSD.c ****         #else
1736:.\Generated_Source\PSoC5/CapSense_CSD.c ****             CapSense_CSD_BufCH0_CAPS_CFG0_REG |= CapSense_CSD_CSBUF_ENABLE;
1737:.\Generated_Source\PSoC5/CapSense_CSD.c ****         #endif  /* (CapSense_CSD_VREF_VDAC == CapSense_CSD_VREF_OPTIONS) */
1738:.\Generated_Source\PSoC5/CapSense_CSD.c ****     }
1739:.\Generated_Source\PSoC5/CapSense_CSD.c ****     
1740:.\Generated_Source\PSoC5/CapSense_CSD.c ****     
1741:.\Generated_Source\PSoC5/CapSense_CSD.c ****     /*******************************************************************************
1742:.\Generated_Source\PSoC5/CapSense_CSD.c ****     * Function Name: CapSense_CSD_PostScanCh1
1743:.\Generated_Source\PSoC5/CapSense_CSD.c ****     ********************************************************************************
1744:.\Generated_Source\PSoC5/CapSense_CSD.c ****     *
1745:.\Generated_Source\PSoC5/CapSense_CSD.c ****     * Summary:
1746:.\Generated_Source\PSoC5/CapSense_CSD.c ****     *  Store results of measurament in CapSense_CSD_SensorResult[] array,
1747:.\Generated_Source\PSoC5/CapSense_CSD.c ****     *  sets scan sensor in none sampling state, turn off Idac(Current Source IDAC), 
1748:.\Generated_Source\PSoC5/CapSense_CSD.c ****     *  disconnect IDAC(Sink mode) or bleed resistor (Rb) and apply Vref on AMUX.
1749:.\Generated_Source\PSoC5/CapSense_CSD.c ****     *  Only used for channel 1 in two channes designs.
1750:.\Generated_Source\PSoC5/CapSense_CSD.c ****     *
1751:.\Generated_Source\PSoC5/CapSense_CSD.c ****     * Parameters:
1752:.\Generated_Source\PSoC5/CapSense_CSD.c ****     *  sensor:  Sensor number.
1753:.\Generated_Source\PSoC5/CapSense_CSD.c ****     *
1754:.\Generated_Source\PSoC5/CapSense_CSD.c ****     * Return:
1755:.\Generated_Source\PSoC5/CapSense_CSD.c ****     *  None
1756:.\Generated_Source\PSoC5/CapSense_CSD.c ****     *
1757:.\Generated_Source\PSoC5/CapSense_CSD.c ****     * Global Variables:
1758:.\Generated_Source\PSoC5/CapSense_CSD.c ****     *  CapSense_CSD_SensorRaw[] - used to store sensors raw data.
1759:.\Generated_Source\PSoC5/CapSense_CSD.c ****     *
1760:.\Generated_Source\PSoC5/CapSense_CSD.c ****     * Reentrant:
1761:.\Generated_Source\PSoC5/CapSense_CSD.c ****     *  No
1762:.\Generated_Source\PSoC5/CapSense_CSD.c ****     *
1763:.\Generated_Source\PSoC5/CapSense_CSD.c ****     *******************************************************************************/
1764:.\Generated_Source\PSoC5/CapSense_CSD.c ****     void CapSense_CSD_PostScanCh1(uint8 sensor) CYREENTRANT
1765:.\Generated_Source\PSoC5/CapSense_CSD.c ****     {
1766:.\Generated_Source\PSoC5/CapSense_CSD.c ****         if (((CapSense_CSD_CONTROL_REG & CapSense_CSD_CTRL_WINDOW_EN__CH0) == 0u) && 
1767:.\Generated_Source\PSoC5/CapSense_CSD.c ****             ((CapSense_CSD_CONTROL_REG & CapSense_CSD_CTRL_WINDOW_EN__CH1) == 0u))
1768:.\Generated_Source\PSoC5/CapSense_CSD.c ****         {
1769:.\Generated_Source\PSoC5/CapSense_CSD.c ****             /* Stop Capsensing and rearm sync */
1770:.\Generated_Source\PSoC5/CapSense_CSD.c ****             CapSense_CSD_CONTROL_REG &= ~(CapSense_CSD_CTRL_START | CapSense_CSD_CTRL_SYNC_EN);
1771:.\Generated_Source\PSoC5/CapSense_CSD.c ****         }
1772:.\Generated_Source\PSoC5/CapSense_CSD.c ****         
1773:.\Generated_Source\PSoC5/CapSense_CSD.c ****         /* Read SlotResult from Raw Counter */
1774:.\Generated_Source\PSoC5/CapSense_CSD.c ****         #if (CapSense_CSD_IMPLEMENTATION_CH1 == CapSense_CSD_MEASURE_IMPLEMENTATION_FF)
1775:.\Generated_Source\PSoC5/CapSense_CSD.c ****             CapSense_CSD_SensorRaw[sensor]  = CapSense_CSD_MEASURE_FULL_RANGE - 
1776:.\Generated_Source\PSoC5/CapSense_CSD.c ****                                                       CY_GET_REG16(CapSense_CSD_RAW_CH1_COUNTER_PTR
1777:.\Generated_Source\PSoC5/CapSense_CSD.c ****         #else
1778:.\Generated_Source\PSoC5/CapSense_CSD.c ****             CapSense_CSD_SensorRaw[sensor]  = ((uint16) CapSense_CSD_RAW_CH1_COUNTER_HI_REG << 8u);
1779:.\Generated_Source\PSoC5/CapSense_CSD.c ****             CapSense_CSD_SensorRaw[sensor] |= (uint16) CapSense_CSD_RAW_CH1_COUNTER_LO_REG;
1780:.\Generated_Source\PSoC5/CapSense_CSD.c ****             CapSense_CSD_SensorRaw[sensor]  = CapSense_CSD_MEASURE_FULL_RANGE - 
1781:.\Generated_Source\PSoC5/CapSense_CSD.c ****                                                       CapSense_CSD_SensorRaw[sensor];
1782:.\Generated_Source\PSoC5/CapSense_CSD.c ****         #endif  /* (CapSense_CSD_IMPLEMENTATION_CH1 == CapSense_CSD_MEASURE_IMPLEMENTATION_FF)*/
1783:.\Generated_Source\PSoC5/CapSense_CSD.c ****         
1784:.\Generated_Source\PSoC5/CapSense_CSD.c ****         /* Disable Sensor */
ARM GAS  C:\Users\yguan5\AppData\Local\Temp\ccDbifVx.s 			page 54


1785:.\Generated_Source\PSoC5/CapSense_CSD.c ****         CapSense_CSD_DisableScanSlot(sensor);
1786:.\Generated_Source\PSoC5/CapSense_CSD.c ****         
1787:.\Generated_Source\PSoC5/CapSense_CSD.c ****         #if (CapSense_CSD_CURRENT_SOURCE)
1788:.\Generated_Source\PSoC5/CapSense_CSD.c ****             /* Turn off IDAC */
1789:.\Generated_Source\PSoC5/CapSense_CSD.c ****             CapSense_CSD_IdacCH1_SetValue(CapSense_CSD_TURN_OFF_IDAC);
1790:.\Generated_Source\PSoC5/CapSense_CSD.c ****             #if (CapSense_CSD_CURRENT_SOURCE == CapSense_CSD_IDAC_SINK)
1791:.\Generated_Source\PSoC5/CapSense_CSD.c ****                 /* Disconnect IDAC */
1792:.\Generated_Source\PSoC5/CapSense_CSD.c ****                 CapSense_CSD_AMuxCH1_Disconnect(CapSense_CSD_AMuxCH1_IDAC_CHANNEL);
1793:.\Generated_Source\PSoC5/CapSense_CSD.c ****             #endif  /* (CapSense_CSD_CURRENT_SOURCE == CapSense_CSD_IDAC_SINK) */
1794:.\Generated_Source\PSoC5/CapSense_CSD.c ****         #else
1795:.\Generated_Source\PSoC5/CapSense_CSD.c ****             /* Disconnect DSI output from Rb */
1796:.\Generated_Source\PSoC5/CapSense_CSD.c ****             *CapSense_CSD_rbTable[CapSense_CSD_RbCh1_cur] &= ~CapSense_CSD_BYP_MASK; 
1797:.\Generated_Source\PSoC5/CapSense_CSD.c ****         #endif  /* (CapSense_CSD_CURRENT_SOURCE)*/
1798:.\Generated_Source\PSoC5/CapSense_CSD.c **** 
1799:.\Generated_Source\PSoC5/CapSense_CSD.c ****         /* Enable Vref on AMUX */
1800:.\Generated_Source\PSoC5/CapSense_CSD.c ****         #if (CapSense_CSD_VREF_OPTIONS == CapSense_CSD_VREF_VDAC)
1801:.\Generated_Source\PSoC5/CapSense_CSD.c ****             CapSense_CSD_AMuxCH1_Connect(CapSense_CSD_AMuxCH1_VREF_CHANNEL);
1802:.\Generated_Source\PSoC5/CapSense_CSD.c ****         #else
1803:.\Generated_Source\PSoC5/CapSense_CSD.c ****             CapSense_CSD_BufCH1_CAPS_CFG0_REG |= CapSense_CSD_CSBUF_ENABLE;
1804:.\Generated_Source\PSoC5/CapSense_CSD.c ****         #endif  /* (CapSense_CSD_VREF_VDAC == CapSense_CSD_VREF_OPTIONS) */
1805:.\Generated_Source\PSoC5/CapSense_CSD.c ****     }
1806:.\Generated_Source\PSoC5/CapSense_CSD.c ****     
1807:.\Generated_Source\PSoC5/CapSense_CSD.c **** #endif  /* CapSense_CSD_DESIGN_TYPE */
1808:.\Generated_Source\PSoC5/CapSense_CSD.c **** 
1809:.\Generated_Source\PSoC5/CapSense_CSD.c **** 
1810:.\Generated_Source\PSoC5/CapSense_CSD.c **** #if (CapSense_CSD_CURRENT_SOURCE == CapSense_CSD_EXTERNAL_RB)
1811:.\Generated_Source\PSoC5/CapSense_CSD.c ****     /*******************************************************************************
1812:.\Generated_Source\PSoC5/CapSense_CSD.c ****     * Function Name:  CapSense_CSD_InitRb
1813:.\Generated_Source\PSoC5/CapSense_CSD.c ****     ********************************************************************************
1814:.\Generated_Source\PSoC5/CapSense_CSD.c ****     *
1815:.\Generated_Source\PSoC5/CapSense_CSD.c ****     * Summary:
1816:.\Generated_Source\PSoC5/CapSense_CSD.c ****     *  Sets all Rbleed resistor to High-Z mode. The first Rbleed resistor is active
1817:.\Generated_Source\PSoC5/CapSense_CSD.c ****     *  while next measure.
1818:.\Generated_Source\PSoC5/CapSense_CSD.c ****     *  This function is available only if Current Source is External Resistor.
1819:.\Generated_Source\PSoC5/CapSense_CSD.c ****     *
1820:.\Generated_Source\PSoC5/CapSense_CSD.c ****     * Parameters:
1821:.\Generated_Source\PSoC5/CapSense_CSD.c ****     *  None
1822:.\Generated_Source\PSoC5/CapSense_CSD.c ****     *
1823:.\Generated_Source\PSoC5/CapSense_CSD.c ****     * Return:
1824:.\Generated_Source\PSoC5/CapSense_CSD.c ****     *  None
1825:.\Generated_Source\PSoC5/CapSense_CSD.c ****     *
1826:.\Generated_Source\PSoC5/CapSense_CSD.c ****     ********************************************************************************/
1827:.\Generated_Source\PSoC5/CapSense_CSD.c ****     void CapSense_CSD_InitRb(void) 
1828:.\Generated_Source\PSoC5/CapSense_CSD.c ****     {
1829:.\Generated_Source\PSoC5/CapSense_CSD.c ****         uint8 i;
1830:.\Generated_Source\PSoC5/CapSense_CSD.c ****         
1831:.\Generated_Source\PSoC5/CapSense_CSD.c ****         /* Disable all Rb */
1832:.\Generated_Source\PSoC5/CapSense_CSD.c ****         for(i=0; i < CapSense_CSD_TOTAL_RB_NUMBER; i++)
1833:.\Generated_Source\PSoC5/CapSense_CSD.c ****         {
1834:.\Generated_Source\PSoC5/CapSense_CSD.c ****             /* Make High-Z */
1835:.\Generated_Source\PSoC5/CapSense_CSD.c ****             *CapSense_CSD_rbTable[i] = CapSense_CSD_PRT_PC_HIGHZ;
1836:.\Generated_Source\PSoC5/CapSense_CSD.c ****         }
1837:.\Generated_Source\PSoC5/CapSense_CSD.c ****     }
1838:.\Generated_Source\PSoC5/CapSense_CSD.c ****     
1839:.\Generated_Source\PSoC5/CapSense_CSD.c ****     
1840:.\Generated_Source\PSoC5/CapSense_CSD.c ****     /*******************************************************************************
1841:.\Generated_Source\PSoC5/CapSense_CSD.c ****     * Function Name: CapSense_CSD_SetRBleed
ARM GAS  C:\Users\yguan5\AppData\Local\Temp\ccDbifVx.s 			page 55


1842:.\Generated_Source\PSoC5/CapSense_CSD.c ****     ********************************************************************************
1843:.\Generated_Source\PSoC5/CapSense_CSD.c ****     *
1844:.\Generated_Source\PSoC5/CapSense_CSD.c ****     * Summary:
1845:.\Generated_Source\PSoC5/CapSense_CSD.c ****     *  Sets the pin to use for the bleed resistor (Rb) connection. This function
1846:.\Generated_Source\PSoC5/CapSense_CSD.c ****     *  can be called at runtime to select the current Rb pin setting from those 
1847:.\Generated_Source\PSoC5/CapSense_CSD.c ****     *  defined customizer. The function overwrites the component parameter setting. 
1848:.\Generated_Source\PSoC5/CapSense_CSD.c ****     *  This function is available only if Current Source is External Resistor.
1849:.\Generated_Source\PSoC5/CapSense_CSD.c ****     * 
1850:.\Generated_Source\PSoC5/CapSense_CSD.c ****     * Parameters:
1851:.\Generated_Source\PSoC5/CapSense_CSD.c ****     *  rbleed:  Ordering number for bleed resistor terminal defined in CapSense
1852:.\Generated_Source\PSoC5/CapSense_CSD.c ****     *  customizer.
1853:.\Generated_Source\PSoC5/CapSense_CSD.c ****     *
1854:.\Generated_Source\PSoC5/CapSense_CSD.c ****     * Return:
1855:.\Generated_Source\PSoC5/CapSense_CSD.c ****     *  None
1856:.\Generated_Source\PSoC5/CapSense_CSD.c ****     *
1857:.\Generated_Source\PSoC5/CapSense_CSD.c ****     * Global Variables:
1858:.\Generated_Source\PSoC5/CapSense_CSD.c ****     *  CapSense_CSD_RbCh0_cur - used to store current number of active 
1859:.\Generated_Source\PSoC5/CapSense_CSD.c ****     *  bleed resistor (Rb) of channel 0.
1860:.\Generated_Source\PSoC5/CapSense_CSD.c ****     *  CapSense_CSD_RbCh1_cur - used to store current number of active 
1861:.\Generated_Source\PSoC5/CapSense_CSD.c ****     *  bleed resistor (Rb) of channel 1.
1862:.\Generated_Source\PSoC5/CapSense_CSD.c ****     *  The active bleed resistor (Rb) pin will be used while next measurement  
1863:.\Generated_Source\PSoC5/CapSense_CSD.c ****     *  cycle.
1864:.\Generated_Source\PSoC5/CapSense_CSD.c ****     *
1865:.\Generated_Source\PSoC5/CapSense_CSD.c ****     * Reentrant:
1866:.\Generated_Source\PSoC5/CapSense_CSD.c ****     *  No
1867:.\Generated_Source\PSoC5/CapSense_CSD.c ****     *
1868:.\Generated_Source\PSoC5/CapSense_CSD.c ****     *******************************************************************************/
1869:.\Generated_Source\PSoC5/CapSense_CSD.c ****     void CapSense_CSD_SetRBleed(uint8 rbleed) 
1870:.\Generated_Source\PSoC5/CapSense_CSD.c ****     {
1871:.\Generated_Source\PSoC5/CapSense_CSD.c ****         #if (CapSense_CSD_DESIGN_TYPE == CapSense_CSD_ONE_CHANNEL_DESIGN)
1872:.\Generated_Source\PSoC5/CapSense_CSD.c ****             CapSense_CSD_RbCh0_cur = rbleed;
1873:.\Generated_Source\PSoC5/CapSense_CSD.c ****             
1874:.\Generated_Source\PSoC5/CapSense_CSD.c ****         #else
1875:.\Generated_Source\PSoC5/CapSense_CSD.c ****             if(rbleed < CapSense_CSD_TOTAL_RB_NUMBER__CH0)
1876:.\Generated_Source\PSoC5/CapSense_CSD.c ****             {
1877:.\Generated_Source\PSoC5/CapSense_CSD.c ****                 CapSense_CSD_RbCh0_cur = rbleed;
1878:.\Generated_Source\PSoC5/CapSense_CSD.c ****             }
1879:.\Generated_Source\PSoC5/CapSense_CSD.c ****             else
1880:.\Generated_Source\PSoC5/CapSense_CSD.c ****             {
1881:.\Generated_Source\PSoC5/CapSense_CSD.c ****                 CapSense_CSD_RbCh1_cur = (rbleed - CapSense_CSD_TOTAL_RB_NUMBER__CH0);   
1882:.\Generated_Source\PSoC5/CapSense_CSD.c ****             }
1883:.\Generated_Source\PSoC5/CapSense_CSD.c ****     
1884:.\Generated_Source\PSoC5/CapSense_CSD.c ****         #endif  /* CapSense_CSD_DESIGN_TYPE == CapSense_CSD_ONE_CHANNEL_DESIGN */ 
1885:.\Generated_Source\PSoC5/CapSense_CSD.c ****     }
1886:.\Generated_Source\PSoC5/CapSense_CSD.c **** #endif /* CapSense_CSD_CURRENT_SOURCE == CapSense_CSD_EXTERNAL_RB */ 
1887:.\Generated_Source\PSoC5/CapSense_CSD.c **** 
1888:.\Generated_Source\PSoC5/CapSense_CSD.c **** #if (CapSense_CSD_PRESCALER_OPTIONS)
1889:.\Generated_Source\PSoC5/CapSense_CSD.c ****     /*******************************************************************************
1890:.\Generated_Source\PSoC5/CapSense_CSD.c ****     * Function Name: CapSense_CSD_SetPrescaler
1891:.\Generated_Source\PSoC5/CapSense_CSD.c ****     ********************************************************************************
1892:.\Generated_Source\PSoC5/CapSense_CSD.c ****     *
1893:.\Generated_Source\PSoC5/CapSense_CSD.c ****     * Summary:
1894:.\Generated_Source\PSoC5/CapSense_CSD.c ****     *  Sets analog switch divider.
1895:.\Generated_Source\PSoC5/CapSense_CSD.c ****     *
1896:.\Generated_Source\PSoC5/CapSense_CSD.c ****     * Parameters:
1897:.\Generated_Source\PSoC5/CapSense_CSD.c ****     *  prescaler:  Sets prescaler divider values.
1898:.\Generated_Source\PSoC5/CapSense_CSD.c ****     *
ARM GAS  C:\Users\yguan5\AppData\Local\Temp\ccDbifVx.s 			page 56


1899:.\Generated_Source\PSoC5/CapSense_CSD.c ****     * Return:
1900:.\Generated_Source\PSoC5/CapSense_CSD.c ****     *  None
1901:.\Generated_Source\PSoC5/CapSense_CSD.c ****     *
1902:.\Generated_Source\PSoC5/CapSense_CSD.c ****     *******************************************************************************/
1903:.\Generated_Source\PSoC5/CapSense_CSD.c ****     void CapSense_CSD_SetPrescaler(uint8 prescaler) CYREENTRANT
1904:.\Generated_Source\PSoC5/CapSense_CSD.c ****     {
 1231              		.loc 1 1904 0
 1232              		.cfi_startproc
 1233              		@ args = 0, pretend = 0, frame = 8
 1234              		@ frame_needed = 1, uses_anonymous_args = 0
 1235              		@ link register save eliminated.
 1236 0000 80B4     		push	{r7}
 1237              	.LCFI41:
 1238              		.cfi_def_cfa_offset 4
 1239 0002 83B0     		sub	sp, sp, #12
 1240              	.LCFI42:
 1241              		.cfi_def_cfa_offset 16
 1242 0004 00AF     		add	r7, sp, #0
 1243              		.cfi_offset 7, -4
 1244              	.LCFI43:
 1245              		.cfi_def_cfa_register 7
 1246 0006 0346     		mov	r3, r0
 1247 0008 FB71     		strb	r3, [r7, #7]
1905:.\Generated_Source\PSoC5/CapSense_CSD.c ****         /* Set Prescaler */
1906:.\Generated_Source\PSoC5/CapSense_CSD.c ****         #if (CapSense_CSD_PRESCALER_OPTIONS == CapSense_CSD_PRESCALER_UDB)
1907:.\Generated_Source\PSoC5/CapSense_CSD.c ****             CapSense_CSD_PRESCALER_PERIOD_REG = prescaler;
 1248              		.loc 1 1907 0
 1249 000a 46F22653 		movw	r3, #:lower16:1073767718
 1250 000e C4F20003 		movt	r3, #:upper16:1073767718
 1251 0012 FA79     		ldrb	r2, [r7, #7]
 1252 0014 1A70     		strb	r2, [r3, #0]
1908:.\Generated_Source\PSoC5/CapSense_CSD.c ****             CapSense_CSD_PRESCALER_COMPARE_REG = (prescaler >> 0x01u);
 1253              		.loc 1 1908 0
 1254 0016 46F23653 		movw	r3, #:lower16:1073767734
 1255 001a C4F20003 		movt	r3, #:upper16:1073767734
 1256 001e FA79     		ldrb	r2, [r7, #7]	@ zero_extendqisi2
 1257 0020 4FEA5202 		lsr	r2, r2, #1
 1258 0024 D2B2     		uxtb	r2, r2
 1259 0026 1A70     		strb	r2, [r3, #0]
1909:.\Generated_Source\PSoC5/CapSense_CSD.c ****         #elif (CapSense_CSD_PRESCALER_OPTIONS == CapSense_CSD_PRESCALER_FF)
1910:.\Generated_Source\PSoC5/CapSense_CSD.c ****             CY_SET_REG16(CapSense_CSD_PRESCALER_PERIOD_PTR, (uint16) prescaler);
1911:.\Generated_Source\PSoC5/CapSense_CSD.c ****             CY_SET_REG16(CapSense_CSD_PRESCALER_COMPARE_PTR, (uint16) (prescaler >> 0x01u));
1912:.\Generated_Source\PSoC5/CapSense_CSD.c ****         #else
1913:.\Generated_Source\PSoC5/CapSense_CSD.c ****             /* Do nothing = config without prescaler */
1914:.\Generated_Source\PSoC5/CapSense_CSD.c ****         #endif  /* (CapSense_CSD_PRESCALER_OPTIONS == CapSense_CSD_PRESCALER_UDB) */
1915:.\Generated_Source\PSoC5/CapSense_CSD.c ****     }
 1260              		.loc 1 1915 0
 1261 0028 07F10C07 		add	r7, r7, #12
 1262 002c BD46     		mov	sp, r7
 1263 002e 80BC     		pop	{r7}
 1264 0030 7047     		bx	lr
 1265              		.cfi_endproc
 1266              	.LFE15:
 1267              		.size	CapSense_CSD_SetPrescaler, .-CapSense_CSD_SetPrescaler
 1268 0032 00BF     		.section	.text.CapSense_CSD_GetPrescaler,"ax",%progbits
 1269              		.align	2
 1270              		.global	CapSense_CSD_GetPrescaler
ARM GAS  C:\Users\yguan5\AppData\Local\Temp\ccDbifVx.s 			page 57


 1271              		.thumb
 1272              		.thumb_func
 1273              		.type	CapSense_CSD_GetPrescaler, %function
 1274              	CapSense_CSD_GetPrescaler:
 1275              	.LFB16:
1916:.\Generated_Source\PSoC5/CapSense_CSD.c **** 
1917:.\Generated_Source\PSoC5/CapSense_CSD.c **** 
1918:.\Generated_Source\PSoC5/CapSense_CSD.c ****     /*******************************************************************************
1919:.\Generated_Source\PSoC5/CapSense_CSD.c ****     * Function Name: CapSense_CSD_GetPrescaler
1920:.\Generated_Source\PSoC5/CapSense_CSD.c ****     ********************************************************************************
1921:.\Generated_Source\PSoC5/CapSense_CSD.c ****     *
1922:.\Generated_Source\PSoC5/CapSense_CSD.c ****     * Summary:
1923:.\Generated_Source\PSoC5/CapSense_CSD.c ****     *  Gets analog switch divider.
1924:.\Generated_Source\PSoC5/CapSense_CSD.c ****     *
1925:.\Generated_Source\PSoC5/CapSense_CSD.c ****     * Parameters:
1926:.\Generated_Source\PSoC5/CapSense_CSD.c ****     *  None
1927:.\Generated_Source\PSoC5/CapSense_CSD.c ****     *
1928:.\Generated_Source\PSoC5/CapSense_CSD.c ****     * Return:
1929:.\Generated_Source\PSoC5/CapSense_CSD.c ****     *   Returns the prescaler divider value.
1930:.\Generated_Source\PSoC5/CapSense_CSD.c ****     *
1931:.\Generated_Source\PSoC5/CapSense_CSD.c ****     *******************************************************************************/
1932:.\Generated_Source\PSoC5/CapSense_CSD.c ****     uint8 CapSense_CSD_GetPrescaler(void) 
1933:.\Generated_Source\PSoC5/CapSense_CSD.c ****     {
 1276              		.loc 1 1933 0
 1277              		.cfi_startproc
 1278              		@ args = 0, pretend = 0, frame = 8
 1279              		@ frame_needed = 1, uses_anonymous_args = 0
 1280              		@ link register save eliminated.
 1281 0000 80B4     		push	{r7}
 1282              	.LCFI44:
 1283              		.cfi_def_cfa_offset 4
 1284 0002 83B0     		sub	sp, sp, #12
 1285              	.LCFI45:
 1286              		.cfi_def_cfa_offset 16
 1287 0004 00AF     		add	r7, sp, #0
 1288              		.cfi_offset 7, -4
 1289              	.LCFI46:
 1290              		.cfi_def_cfa_register 7
1934:.\Generated_Source\PSoC5/CapSense_CSD.c ****         uint8 prescaler = 0u;
 1291              		.loc 1 1934 0
 1292 0006 4FF00003 		mov	r3, #0
 1293 000a FB71     		strb	r3, [r7, #7]
1935:.\Generated_Source\PSoC5/CapSense_CSD.c **** 
1936:.\Generated_Source\PSoC5/CapSense_CSD.c ****         /* Get Prescaler */
1937:.\Generated_Source\PSoC5/CapSense_CSD.c ****         #if (CapSense_CSD_PRESCALER_OPTIONS == CapSense_CSD_PRESCALER_UDB)
1938:.\Generated_Source\PSoC5/CapSense_CSD.c ****             prescaler = CapSense_CSD_PRESCALER_PERIOD_REG;
 1294              		.loc 1 1938 0
 1295 000c 46F22653 		movw	r3, #:lower16:1073767718
 1296 0010 C4F20003 		movt	r3, #:upper16:1073767718
 1297 0014 1B78     		ldrb	r3, [r3, #0]
 1298 0016 FB71     		strb	r3, [r7, #7]
1939:.\Generated_Source\PSoC5/CapSense_CSD.c ****             
1940:.\Generated_Source\PSoC5/CapSense_CSD.c ****         #elif (CapSense_CSD_PRESCALER_OPTIONS == CapSense_CSD_PRESCALER_FF)
1941:.\Generated_Source\PSoC5/CapSense_CSD.c ****             prescaler = (uint8) CY_GET_REG16(CapSense_CSD_PRESCALER_PERIOD_PTR);
1942:.\Generated_Source\PSoC5/CapSense_CSD.c ****             
1943:.\Generated_Source\PSoC5/CapSense_CSD.c ****         #else
1944:.\Generated_Source\PSoC5/CapSense_CSD.c ****             /* Do nothing = config without prescaler */
ARM GAS  C:\Users\yguan5\AppData\Local\Temp\ccDbifVx.s 			page 58


1945:.\Generated_Source\PSoC5/CapSense_CSD.c ****         #endif  /* (CapSense_CSD_PRESCALER_OPTIONS == CapSense_CSD_PRESCALER_UDB) */
1946:.\Generated_Source\PSoC5/CapSense_CSD.c ****         
1947:.\Generated_Source\PSoC5/CapSense_CSD.c ****         return prescaler;
 1299              		.loc 1 1947 0
 1300 0018 FB79     		ldrb	r3, [r7, #7]	@ zero_extendqisi2
1948:.\Generated_Source\PSoC5/CapSense_CSD.c ****     }
 1301              		.loc 1 1948 0
 1302 001a 1846     		mov	r0, r3
 1303 001c 07F10C07 		add	r7, r7, #12
 1304 0020 BD46     		mov	sp, r7
 1305 0022 80BC     		pop	{r7}
 1306 0024 7047     		bx	lr
 1307              		.cfi_endproc
 1308              	.LFE16:
 1309              		.size	CapSense_CSD_GetPrescaler, .-CapSense_CSD_GetPrescaler
 1310 0026 00BF     		.section	.text.CapSense_CSD_SetScanSpeed,"ax",%progbits
 1311              		.align	2
 1312              		.global	CapSense_CSD_SetScanSpeed
 1313              		.thumb
 1314              		.thumb_func
 1315              		.type	CapSense_CSD_SetScanSpeed, %function
 1316              	CapSense_CSD_SetScanSpeed:
 1317              	.LFB17:
1949:.\Generated_Source\PSoC5/CapSense_CSD.c **** #endif  /* CapSense_CSD_PRESCALER_OPTIONS */
1950:.\Generated_Source\PSoC5/CapSense_CSD.c **** 
1951:.\Generated_Source\PSoC5/CapSense_CSD.c **** 
1952:.\Generated_Source\PSoC5/CapSense_CSD.c **** /*******************************************************************************
1953:.\Generated_Source\PSoC5/CapSense_CSD.c **** * Function Name: CapSense_CSD_SetScanSpeed
1954:.\Generated_Source\PSoC5/CapSense_CSD.c **** ********************************************************************************
1955:.\Generated_Source\PSoC5/CapSense_CSD.c **** *
1956:.\Generated_Source\PSoC5/CapSense_CSD.c **** * Summary:
1957:.\Generated_Source\PSoC5/CapSense_CSD.c **** *  Sets ScanSpeed divider.
1958:.\Generated_Source\PSoC5/CapSense_CSD.c **** *
1959:.\Generated_Source\PSoC5/CapSense_CSD.c **** * Parameters:
1960:.\Generated_Source\PSoC5/CapSense_CSD.c **** *  scanspeed:  Sets ScanSpeed divider.
1961:.\Generated_Source\PSoC5/CapSense_CSD.c **** *
1962:.\Generated_Source\PSoC5/CapSense_CSD.c **** * Return:
1963:.\Generated_Source\PSoC5/CapSense_CSD.c **** *  None
1964:.\Generated_Source\PSoC5/CapSense_CSD.c **** *
1965:.\Generated_Source\PSoC5/CapSense_CSD.c **** *******************************************************************************/
1966:.\Generated_Source\PSoC5/CapSense_CSD.c **** void CapSense_CSD_SetScanSpeed(uint8 scanspeed) 
1967:.\Generated_Source\PSoC5/CapSense_CSD.c **** {
 1318              		.loc 1 1967 0
 1319              		.cfi_startproc
 1320              		@ args = 0, pretend = 0, frame = 8
 1321              		@ frame_needed = 1, uses_anonymous_args = 0
 1322              		@ link register save eliminated.
 1323 0000 80B4     		push	{r7}
 1324              	.LCFI47:
 1325              		.cfi_def_cfa_offset 4
 1326 0002 83B0     		sub	sp, sp, #12
 1327              	.LCFI48:
 1328              		.cfi_def_cfa_offset 16
 1329 0004 00AF     		add	r7, sp, #0
 1330              		.cfi_offset 7, -4
 1331              	.LCFI49:
 1332              		.cfi_def_cfa_register 7
ARM GAS  C:\Users\yguan5\AppData\Local\Temp\ccDbifVx.s 			page 59


 1333 0006 0346     		mov	r3, r0
 1334 0008 FB71     		strb	r3, [r7, #7]
1968:.\Generated_Source\PSoC5/CapSense_CSD.c ****     CapSense_CSD_SCANSPEED_PERIOD_REG = scanspeed; 
 1335              		.loc 1 1968 0
 1336 000a 46F28653 		movw	r3, #:lower16:1073767814
 1337 000e C4F20003 		movt	r3, #:upper16:1073767814
 1338 0012 FA79     		ldrb	r2, [r7, #7]
 1339 0014 1A70     		strb	r2, [r3, #0]
1969:.\Generated_Source\PSoC5/CapSense_CSD.c **** }
 1340              		.loc 1 1969 0
 1341 0016 07F10C07 		add	r7, r7, #12
 1342 001a BD46     		mov	sp, r7
 1343 001c 80BC     		pop	{r7}
 1344 001e 7047     		bx	lr
 1345              		.cfi_endproc
 1346              	.LFE17:
 1347              		.size	CapSense_CSD_SetScanSpeed, .-CapSense_CSD_SetScanSpeed
 1348              		.text
 1349              	.Letext0: