ARM GAS  C:\Users\yguan5\AppData\Local\Temp\ccX3ogeL.s 			page 1


   1              		.syntax unified
   2              		.cpu cortex-m3
   3              		.fpu softvfp
   4              		.eabi_attribute 20, 1
   5              		.eabi_attribute 21, 1
   6              		.eabi_attribute 23, 3
   7              		.eabi_attribute 24, 1
   8              		.eabi_attribute 25, 1
   9              		.eabi_attribute 26, 1
  10              		.eabi_attribute 30, 6
  11              		.eabi_attribute 18, 4
  12              		.thumb
  13              		.file	"CapSense_CSD_CSHL.c"
  14              		.section	.debug_abbrev,"",%progbits
  15              	.Ldebug_abbrev0:
  16              		.section	.debug_info,"",%progbits
  17              	.Ldebug_info0:
  18              		.section	.debug_line,"",%progbits
  19              	.Ldebug_line0:
  20 0000 3D020000 		.text
  20      02006A00 
  20      00000201 
  20      FB0E0D00 
  20      01010101 
  21              	.Ltext0:
  22              		.cfi_sections	.debug_frame
  23              		.global	CapSense_CSD_SensorBaseline
  24              		.bss
  25              		.align	2
  26              		.type	CapSense_CSD_SensorBaseline, %object
  27              		.size	CapSense_CSD_SensorBaseline, 14
  28              	CapSense_CSD_SensorBaseline:
  29 0000 00000000 		.space	14
  29      00000000 
  29      00000000 
  29      0000
  30              		.global	CapSense_CSD_SensorBaselineLow
  31 000e 0000     		.align	2
  32              		.type	CapSense_CSD_SensorBaselineLow, %object
  33              		.size	CapSense_CSD_SensorBaselineLow, 7
  34              	CapSense_CSD_SensorBaselineLow:
  35 0010 00000000 		.space	7
  35      000000
  36              		.global	CapSense_CSD_SensorSignal
  37 0017 00       		.align	2
  38              		.type	CapSense_CSD_SensorSignal, %object
  39              		.size	CapSense_CSD_SensorSignal, 7
  40              	CapSense_CSD_SensorSignal:
  41 0018 00000000 		.space	7
  41      000000
  42              		.global	CapSense_CSD_SensorOnMask
  43 001f 00       		.align	2
  44              		.type	CapSense_CSD_SensorOnMask, %object
  45              		.size	CapSense_CSD_SensorOnMask, 1
  46              	CapSense_CSD_SensorOnMask:
  47 0020 00       		.space	1
  48              		.comm	CapSense_CSD_LowBaselineResetCnt,7,4
ARM GAS  C:\Users\yguan5\AppData\Local\Temp\ccX3ogeL.s 			page 2


  49 0021 000000   		.align	2
  50              	CapSense_CSD_centroid:
  51 0024 000000   		.space	3
  52              		.global	CapSense_CSD_fingerThreshold
  53              		.section	.rodata
  54              		.align	2
  55              		.type	CapSense_CSD_fingerThreshold, %object
  56              		.size	CapSense_CSD_fingerThreshold, 3
  57              	CapSense_CSD_fingerThreshold:
  58 0000 64       		.byte	100
  59 0001 64       		.byte	100
  60 0002 64       		.byte	100
  61              		.global	CapSense_CSD_noiseThreshold
  62 0003 00       		.align	2
  63              		.type	CapSense_CSD_noiseThreshold, %object
  64              		.size	CapSense_CSD_noiseThreshold, 3
  65              	CapSense_CSD_noiseThreshold:
  66 0004 14       		.byte	20
  67 0005 14       		.byte	20
  68 0006 14       		.byte	20
  69              		.global	CapSense_CSD_hysteresis
  70 0007 00       		.align	2
  71              		.type	CapSense_CSD_hysteresis, %object
  72              		.size	CapSense_CSD_hysteresis, 3
  73              	CapSense_CSD_hysteresis:
  74 0008 00       		.byte	0
  75 0009 0A       		.byte	10
  76 000a 0A       		.byte	10
  77              		.global	CapSense_CSD_debounce
  78 000b 00       		.align	2
  79              		.type	CapSense_CSD_debounce, %object
  80              		.size	CapSense_CSD_debounce, 3
  81              	CapSense_CSD_debounce:
  82 000c 01       		.byte	1
  83 000d 05       		.byte	5
  84 000e 05       		.byte	5
  85              		.global	CapSense_CSD_debounceCounter
  86              		.bss
  87 0027 00       		.align	2
  88              		.type	CapSense_CSD_debounceCounter, %object
  89              		.size	CapSense_CSD_debounceCounter, 3
  90              	CapSense_CSD_debounceCounter:
  91 0028 000000   		.space	3
  92              		.global	CapSense_CSD_rawDataIndex
  93 002b 00       		.section	.rodata
  94 000f 00       		.align	2
  95              		.type	CapSense_CSD_rawDataIndex, %object
  96              		.size	CapSense_CSD_rawDataIndex, 3
  97              	CapSense_CSD_rawDataIndex:
  98 0010 02       		.byte	2
  99 0011 00       		.byte	0
 100 0012 01       		.byte	1
 101              		.global	CapSense_CSD_numberOfSensors
 102 0013 00       		.align	2
 103              		.type	CapSense_CSD_numberOfSensors, %object
 104              		.size	CapSense_CSD_numberOfSensors, 3
 105              	CapSense_CSD_numberOfSensors:
ARM GAS  C:\Users\yguan5\AppData\Local\Temp\ccX3ogeL.s 			page 3


 106 0014 05       		.byte	5
 107 0015 01       		.byte	1
 108 0016 01       		.byte	1
 109              		.global	CapSense_CSD_centroidMult
 110 0017 00       		.align	2
 111              		.type	CapSense_CSD_centroidMult, %object
 112              		.size	CapSense_CSD_centroidMult, 2
 113              	CapSense_CSD_centroidMult:
 114 0018 0019     		.short	6400
 115              		.section	.text.CapSense_CSD_BaseInit,"ax",%progbits
 116              		.align	2
 117              		.global	CapSense_CSD_BaseInit
 118              		.thumb
 119              		.thumb_func
 120              		.type	CapSense_CSD_BaseInit, %function
 121              	CapSense_CSD_BaseInit:
 122              	.LFB0:
 123              		.file 1 ".\\Generated_Source\\PSoC5\\CapSense_CSD_CSHL.c"
   1:.\Generated_Source\PSoC5/CapSense_CSD_CSHL.c **** /*******************************************************************************
   2:.\Generated_Source\PSoC5/CapSense_CSD_CSHL.c **** * File Name: CapSense_CSD_CSHL.c
   3:.\Generated_Source\PSoC5/CapSense_CSD_CSHL.c **** * Version 3.30
   4:.\Generated_Source\PSoC5/CapSense_CSD_CSHL.c **** *
   5:.\Generated_Source\PSoC5/CapSense_CSD_CSHL.c **** * Description:
   6:.\Generated_Source\PSoC5/CapSense_CSD_CSHL.c **** *  This file provides the source code to the High Level APIs for the CapSesne
   7:.\Generated_Source\PSoC5/CapSense_CSD_CSHL.c **** *  CSD component.
   8:.\Generated_Source\PSoC5/CapSense_CSD_CSHL.c **** *
   9:.\Generated_Source\PSoC5/CapSense_CSD_CSHL.c **** * Note:
  10:.\Generated_Source\PSoC5/CapSense_CSD_CSHL.c **** *
  11:.\Generated_Source\PSoC5/CapSense_CSD_CSHL.c **** ********************************************************************************
  12:.\Generated_Source\PSoC5/CapSense_CSD_CSHL.c **** * Copyright 2008-2012, Cypress Semiconductor Corporation.  All rights reserved.
  13:.\Generated_Source\PSoC5/CapSense_CSD_CSHL.c **** * You may use this file only in accordance with the license, terms, conditions,
  14:.\Generated_Source\PSoC5/CapSense_CSD_CSHL.c **** * disclaimers, and limitations in the end user license agreement accompanying
  15:.\Generated_Source\PSoC5/CapSense_CSD_CSHL.c **** * the software package with which this file was provided.
  16:.\Generated_Source\PSoC5/CapSense_CSD_CSHL.c **** *******************************************************************************/
  17:.\Generated_Source\PSoC5/CapSense_CSD_CSHL.c **** 
  18:.\Generated_Source\PSoC5/CapSense_CSD_CSHL.c **** #include "CapSense_CSD_CSHL.h"
  19:.\Generated_Source\PSoC5/CapSense_CSD_CSHL.c **** 
  20:.\Generated_Source\PSoC5/CapSense_CSD_CSHL.c **** /* SmartSense functions */
  21:.\Generated_Source\PSoC5/CapSense_CSD_CSHL.c **** #if (CapSense_CSD_TUNING_METHOD == CapSense_CSD_AUTO_TUNING)
  22:.\Generated_Source\PSoC5/CapSense_CSD_CSHL.c ****     extern void CapSense_CSD_CalculateThresholds(uint8 SensorNumber)
  23:.\Generated_Source\PSoC5/CapSense_CSD_CSHL.c ****            ;
  24:.\Generated_Source\PSoC5/CapSense_CSD_CSHL.c **** #endif /* (CapSense_CSD_TUNING_METHOD == CapSense_CSD_AUTO_TUNING) */
  25:.\Generated_Source\PSoC5/CapSense_CSD_CSHL.c **** 
  26:.\Generated_Source\PSoC5/CapSense_CSD_CSHL.c **** /* Median filter function prototype */
  27:.\Generated_Source\PSoC5/CapSense_CSD_CSHL.c **** #if ( (CapSense_CSD_RAW_FILTER_MASK & CapSense_CSD_MEDIAN_FILTER) || \
  28:.\Generated_Source\PSoC5/CapSense_CSD_CSHL.c ****       (CapSense_CSD_POS_FILTERS_MASK & CapSense_CSD_MEDIAN_FILTER) )
  29:.\Generated_Source\PSoC5/CapSense_CSD_CSHL.c ****     uint16 CapSense_CSD_MedianFilter(uint16 x1, uint16 x2, uint16 x3)
  30:.\Generated_Source\PSoC5/CapSense_CSD_CSHL.c ****     ;
  31:.\Generated_Source\PSoC5/CapSense_CSD_CSHL.c **** #endif /* CapSense_CSD_RAW_FILTER_MASK && CapSense_CSD_POS_FILTERS_MASK */
  32:.\Generated_Source\PSoC5/CapSense_CSD_CSHL.c **** 
  33:.\Generated_Source\PSoC5/CapSense_CSD_CSHL.c **** /* Averaging filter function prototype */
  34:.\Generated_Source\PSoC5/CapSense_CSD_CSHL.c **** #if ( (CapSense_CSD_RAW_FILTER_MASK & CapSense_CSD_AVERAGING_FILTER) || \
  35:.\Generated_Source\PSoC5/CapSense_CSD_CSHL.c ****       (CapSense_CSD_POS_FILTERS_MASK & CapSense_CSD_AVERAGING_FILTER) )
  36:.\Generated_Source\PSoC5/CapSense_CSD_CSHL.c ****     uint16 CapSense_CSD_AveragingFilter(uint16 x1, uint16 x2, uint16 x3)
  37:.\Generated_Source\PSoC5/CapSense_CSD_CSHL.c ****     ;
  38:.\Generated_Source\PSoC5/CapSense_CSD_CSHL.c **** #endif /* CapSense_CSD_RAW_FILTER_MASK && CapSense_CSD_POS_FILTERS_MASK */
  39:.\Generated_Source\PSoC5/CapSense_CSD_CSHL.c **** 
ARM GAS  C:\Users\yguan5\AppData\Local\Temp\ccX3ogeL.s 			page 4


  40:.\Generated_Source\PSoC5/CapSense_CSD_CSHL.c **** /* IIR2Filter(1/2prev + 1/2cur) filter function prototype */
  41:.\Generated_Source\PSoC5/CapSense_CSD_CSHL.c **** #if ( (CapSense_CSD_RAW_FILTER_MASK & CapSense_CSD_IIR2_FILTER) || \
  42:.\Generated_Source\PSoC5/CapSense_CSD_CSHL.c ****       (CapSense_CSD_POS_FILTERS_MASK & CapSense_CSD_IIR2_FILTER) )
  43:.\Generated_Source\PSoC5/CapSense_CSD_CSHL.c ****     uint16 CapSense_CSD_IIR2Filter(uint16 x1, uint16 x2) ;
  44:.\Generated_Source\PSoC5/CapSense_CSD_CSHL.c **** #endif /* CapSense_CSD_RAW_FILTER_MASK && CapSense_CSD_POS_FILTERS_MASK */
  45:.\Generated_Source\PSoC5/CapSense_CSD_CSHL.c **** 
  46:.\Generated_Source\PSoC5/CapSense_CSD_CSHL.c **** /* IIR4Filter(3/4prev + 1/4cur) filter function prototype */
  47:.\Generated_Source\PSoC5/CapSense_CSD_CSHL.c **** #if ( (CapSense_CSD_RAW_FILTER_MASK & CapSense_CSD_IIR4_FILTER) || \
  48:.\Generated_Source\PSoC5/CapSense_CSD_CSHL.c ****       (CapSense_CSD_POS_FILTERS_MASK & CapSense_CSD_IIR4_FILTER) )
  49:.\Generated_Source\PSoC5/CapSense_CSD_CSHL.c ****     uint16 CapSense_CSD_IIR4Filter(uint16 x1, uint16 x2) ;
  50:.\Generated_Source\PSoC5/CapSense_CSD_CSHL.c **** #endif /* CapSense_CSD_RAW_FILTER_MASK && CapSense_CSD_POS_FILTERS_MASK */
  51:.\Generated_Source\PSoC5/CapSense_CSD_CSHL.c **** 
  52:.\Generated_Source\PSoC5/CapSense_CSD_CSHL.c **** /* IIR8Filter(7/8prev + 1/8cur) filter function prototype - RawCounts only */
  53:.\Generated_Source\PSoC5/CapSense_CSD_CSHL.c **** #if (CapSense_CSD_RAW_FILTER_MASK & CapSense_CSD_IIR8_FILTER)
  54:.\Generated_Source\PSoC5/CapSense_CSD_CSHL.c ****     uint16 CapSense_CSD_IIR8Filter(uint16 x1, uint16 x2) ;
  55:.\Generated_Source\PSoC5/CapSense_CSD_CSHL.c **** #endif /* CapSense_CSD_RAW_FILTER_MASK */
  56:.\Generated_Source\PSoC5/CapSense_CSD_CSHL.c **** 
  57:.\Generated_Source\PSoC5/CapSense_CSD_CSHL.c **** /* IIR16Filter(15/16prev + 1/16cur) filter function prototype - RawCounts only */
  58:.\Generated_Source\PSoC5/CapSense_CSD_CSHL.c **** #if (CapSense_CSD_RAW_FILTER_MASK & CapSense_CSD_IIR16_FILTER)
  59:.\Generated_Source\PSoC5/CapSense_CSD_CSHL.c ****     uint16 CapSense_CSD_IIR16Filter(uint16 x1, uint16 x2) ;
  60:.\Generated_Source\PSoC5/CapSense_CSD_CSHL.c **** #endif /* CapSense_CSD_RAW_FILTER_MASK */
  61:.\Generated_Source\PSoC5/CapSense_CSD_CSHL.c **** 
  62:.\Generated_Source\PSoC5/CapSense_CSD_CSHL.c **** /* JitterFilter filter function prototype */
  63:.\Generated_Source\PSoC5/CapSense_CSD_CSHL.c **** #if ( (CapSense_CSD_RAW_FILTER_MASK & CapSense_CSD_JITTER_FILTER) || \
  64:.\Generated_Source\PSoC5/CapSense_CSD_CSHL.c ****       (CapSense_CSD_POS_FILTERS_MASK & CapSense_CSD_JITTER_FILTER) )
  65:.\Generated_Source\PSoC5/CapSense_CSD_CSHL.c ****     uint16 CapSense_CSD_JitterFilter(uint16 x1, uint16 x2) ;
  66:.\Generated_Source\PSoC5/CapSense_CSD_CSHL.c **** #endif /* CapSense_CSD_RAW_FILTER_MASK && CapSense_CSD_POS_FILTERS_MASK */
  67:.\Generated_Source\PSoC5/CapSense_CSD_CSHL.c **** 
  68:.\Generated_Source\PSoC5/CapSense_CSD_CSHL.c **** /* Storage of filters data */
  69:.\Generated_Source\PSoC5/CapSense_CSD_CSHL.c **** #if ( (CapSense_CSD_RAW_FILTER_MASK & CapSense_CSD_MEDIAN_FILTER) || \
  70:.\Generated_Source\PSoC5/CapSense_CSD_CSHL.c ****       (CapSense_CSD_RAW_FILTER_MASK & CapSense_CSD_AVERAGING_FILTER) )
  71:.\Generated_Source\PSoC5/CapSense_CSD_CSHL.c **** 
  72:.\Generated_Source\PSoC5/CapSense_CSD_CSHL.c ****     uint16 CapSense_CSD_rawFilterData1[CapSense_CSD_TOTAL_SENSOR_COUNT];
  73:.\Generated_Source\PSoC5/CapSense_CSD_CSHL.c ****     uint16 CapSense_CSD_rawFilterData2[CapSense_CSD_TOTAL_SENSOR_COUNT];
  74:.\Generated_Source\PSoC5/CapSense_CSD_CSHL.c **** 
  75:.\Generated_Source\PSoC5/CapSense_CSD_CSHL.c **** #elif ( (CapSense_CSD_RAW_FILTER_MASK & CapSense_CSD_IIR2_FILTER)   || \
  76:.\Generated_Source\PSoC5/CapSense_CSD_CSHL.c ****         (CapSense_CSD_RAW_FILTER_MASK & CapSense_CSD_IIR4_FILTER)   || \
  77:.\Generated_Source\PSoC5/CapSense_CSD_CSHL.c ****         (CapSense_CSD_RAW_FILTER_MASK & CapSense_CSD_JITTER_FILTER) || \
  78:.\Generated_Source\PSoC5/CapSense_CSD_CSHL.c ****         (CapSense_CSD_RAW_FILTER_MASK & CapSense_CSD_IIR8_FILTER)   || \
  79:.\Generated_Source\PSoC5/CapSense_CSD_CSHL.c ****         (CapSense_CSD_RAW_FILTER_MASK & CapSense_CSD_IIR16_FILTER) )
  80:.\Generated_Source\PSoC5/CapSense_CSD_CSHL.c ****         
  81:.\Generated_Source\PSoC5/CapSense_CSD_CSHL.c ****     uint16 CapSense_CSD_rawFilterData1[CapSense_CSD_TOTAL_SENSOR_COUNT];
  82:.\Generated_Source\PSoC5/CapSense_CSD_CSHL.c **** 
  83:.\Generated_Source\PSoC5/CapSense_CSD_CSHL.c **** #else
  84:.\Generated_Source\PSoC5/CapSense_CSD_CSHL.c ****     /* No Raw filters */
  85:.\Generated_Source\PSoC5/CapSense_CSD_CSHL.c **** #endif  /* ( (CapSense_CSD_RAW_FILTER_MASK & CapSense_CSD_MEDIAN_FILTER) || \
  86:.\Generated_Source\PSoC5/CapSense_CSD_CSHL.c ****         *    (CapSense_CSD_RAW_FILTER_MASK & CapSense_CSD_AVERAGING_FILTER) )
  87:.\Generated_Source\PSoC5/CapSense_CSD_CSHL.c ****         */
  88:.\Generated_Source\PSoC5/CapSense_CSD_CSHL.c **** 
  89:.\Generated_Source\PSoC5/CapSense_CSD_CSHL.c **** extern uint16 CapSense_CSD_SensorRaw[CapSense_CSD_TOTAL_SENSOR_COUNT];
  90:.\Generated_Source\PSoC5/CapSense_CSD_CSHL.c **** extern uint8 CapSense_CSD_SensorEnableMask[(((CapSense_CSD_TOTAL_SENSOR_COUNT - 1u) / 8u) + 1u)];
  91:.\Generated_Source\PSoC5/CapSense_CSD_CSHL.c **** extern const uint8 CYCODE CapSense_CSD_widgetNumber[];
  92:.\Generated_Source\PSoC5/CapSense_CSD_CSHL.c **** 
  93:.\Generated_Source\PSoC5/CapSense_CSD_CSHL.c **** uint16 CapSense_CSD_SensorBaseline[CapSense_CSD_TOTAL_SENSOR_COUNT] = {0u};
  94:.\Generated_Source\PSoC5/CapSense_CSD_CSHL.c **** uint8 CapSense_CSD_SensorBaselineLow[CapSense_CSD_TOTAL_SENSOR_COUNT] = {0u};
  95:.\Generated_Source\PSoC5/CapSense_CSD_CSHL.c **** uint8 CapSense_CSD_SensorSignal[CapSense_CSD_TOTAL_SENSOR_COUNT] = {0u};
  96:.\Generated_Source\PSoC5/CapSense_CSD_CSHL.c **** uint8 CapSense_CSD_SensorOnMask[(((CapSense_CSD_TOTAL_SENSOR_COUNT - 1u) / 8u) + 1u)] = {0u};
ARM GAS  C:\Users\yguan5\AppData\Local\Temp\ccX3ogeL.s 			page 5


  97:.\Generated_Source\PSoC5/CapSense_CSD_CSHL.c **** 
  98:.\Generated_Source\PSoC5/CapSense_CSD_CSHL.c **** uint8 CapSense_CSD_LowBaselineResetCnt[CapSense_CSD_TOTAL_SENSOR_COUNT];
  99:.\Generated_Source\PSoC5/CapSense_CSD_CSHL.c **** 
 100:.\Generated_Source\PSoC5/CapSense_CSD_CSHL.c **** /* Helps while centroid calulation */
 101:.\Generated_Source\PSoC5/CapSense_CSD_CSHL.c **** #if (CapSense_CSD_TOTAL_CENTROIDS_COUNT)
 102:.\Generated_Source\PSoC5/CapSense_CSD_CSHL.c ****     static uint8 CapSense_CSD_centroid[3];
 103:.\Generated_Source\PSoC5/CapSense_CSD_CSHL.c **** #endif  /* (CapSense_CSD_TOTAL_CENTROIDS_COUNT) */
 104:.\Generated_Source\PSoC5/CapSense_CSD_CSHL.c **** 
 105:.\Generated_Source\PSoC5/CapSense_CSD_CSHL.c **** const uint8 CYCODE CapSense_CSD_fingerThreshold[] = {
 106:.\Generated_Source\PSoC5/CapSense_CSD_CSHL.c ****     100u, 100u, 100u, 
 107:.\Generated_Source\PSoC5/CapSense_CSD_CSHL.c **** };
 108:.\Generated_Source\PSoC5/CapSense_CSD_CSHL.c **** 
 109:.\Generated_Source\PSoC5/CapSense_CSD_CSHL.c **** const uint8 CYCODE CapSense_CSD_noiseThreshold[] = {
 110:.\Generated_Source\PSoC5/CapSense_CSD_CSHL.c ****     20u, 20u, 20u, 
 111:.\Generated_Source\PSoC5/CapSense_CSD_CSHL.c **** };
 112:.\Generated_Source\PSoC5/CapSense_CSD_CSHL.c **** 
 113:.\Generated_Source\PSoC5/CapSense_CSD_CSHL.c **** const uint8 CYCODE CapSense_CSD_hysteresis[] = {
 114:.\Generated_Source\PSoC5/CapSense_CSD_CSHL.c ****     0u, 10u, 10u, 
 115:.\Generated_Source\PSoC5/CapSense_CSD_CSHL.c **** };
 116:.\Generated_Source\PSoC5/CapSense_CSD_CSHL.c **** 
 117:.\Generated_Source\PSoC5/CapSense_CSD_CSHL.c **** const uint8 CYCODE CapSense_CSD_debounce[] = {
 118:.\Generated_Source\PSoC5/CapSense_CSD_CSHL.c ****     1u, 5u, 5u, 
 119:.\Generated_Source\PSoC5/CapSense_CSD_CSHL.c **** };
 120:.\Generated_Source\PSoC5/CapSense_CSD_CSHL.c **** 
 121:.\Generated_Source\PSoC5/CapSense_CSD_CSHL.c **** uint8 CapSense_CSD_debounceCounter[] = {
 122:.\Generated_Source\PSoC5/CapSense_CSD_CSHL.c ****     0u, 0u, 0u, 
 123:.\Generated_Source\PSoC5/CapSense_CSD_CSHL.c **** };
 124:.\Generated_Source\PSoC5/CapSense_CSD_CSHL.c **** 
 125:.\Generated_Source\PSoC5/CapSense_CSD_CSHL.c **** const uint8 CYCODE CapSense_CSD_rawDataIndex[] = {
 126:.\Generated_Source\PSoC5/CapSense_CSD_CSHL.c ****     2u, /* LinearSlider0__LS */
 127:.\Generated_Source\PSoC5/CapSense_CSD_CSHL.c ****     0u, /* Button0__BTN */
 128:.\Generated_Source\PSoC5/CapSense_CSD_CSHL.c ****     1u, /* Button1__BTN */
 129:.\Generated_Source\PSoC5/CapSense_CSD_CSHL.c **** 
 130:.\Generated_Source\PSoC5/CapSense_CSD_CSHL.c **** };
 131:.\Generated_Source\PSoC5/CapSense_CSD_CSHL.c **** 
 132:.\Generated_Source\PSoC5/CapSense_CSD_CSHL.c **** const uint8 CYCODE CapSense_CSD_numberOfSensors[] = {
 133:.\Generated_Source\PSoC5/CapSense_CSD_CSHL.c ****     5u, /* LinearSlider0__LS */
 134:.\Generated_Source\PSoC5/CapSense_CSD_CSHL.c ****     1u, /* Button0__BTN */
 135:.\Generated_Source\PSoC5/CapSense_CSD_CSHL.c ****     1u, /* Button1__BTN */
 136:.\Generated_Source\PSoC5/CapSense_CSD_CSHL.c **** 
 137:.\Generated_Source\PSoC5/CapSense_CSD_CSHL.c **** };
 138:.\Generated_Source\PSoC5/CapSense_CSD_CSHL.c **** 
 139:.\Generated_Source\PSoC5/CapSense_CSD_CSHL.c **** const uint16 CYCODE CapSense_CSD_centroidMult[] = {
 140:.\Generated_Source\PSoC5/CapSense_CSD_CSHL.c ****     6400u, 
 141:.\Generated_Source\PSoC5/CapSense_CSD_CSHL.c **** };
 142:.\Generated_Source\PSoC5/CapSense_CSD_CSHL.c **** 
 143:.\Generated_Source\PSoC5/CapSense_CSD_CSHL.c **** 
 144:.\Generated_Source\PSoC5/CapSense_CSD_CSHL.c **** 
 145:.\Generated_Source\PSoC5/CapSense_CSD_CSHL.c **** 
 146:.\Generated_Source\PSoC5/CapSense_CSD_CSHL.c **** /*******************************************************************************
 147:.\Generated_Source\PSoC5/CapSense_CSD_CSHL.c **** * Function Name: CapSense_CSD_BaseInit
 148:.\Generated_Source\PSoC5/CapSense_CSD_CSHL.c **** ********************************************************************************
 149:.\Generated_Source\PSoC5/CapSense_CSD_CSHL.c **** *
 150:.\Generated_Source\PSoC5/CapSense_CSD_CSHL.c **** * Summary:
 151:.\Generated_Source\PSoC5/CapSense_CSD_CSHL.c **** *  Loads the CapSense_CSD_SensorBaseline[sensor] array element with an 
 152:.\Generated_Source\PSoC5/CapSense_CSD_CSHL.c **** *  initial value which is equal to raw count value. 
 153:.\Generated_Source\PSoC5/CapSense_CSD_CSHL.c **** *  Resets to zero CapSense_CSD_SensorBaselineLow[senesor] and 
ARM GAS  C:\Users\yguan5\AppData\Local\Temp\ccX3ogeL.s 			page 6


 154:.\Generated_Source\PSoC5/CapSense_CSD_CSHL.c **** *  CapSense_CSD_SensorSignal[sensor] array element.
 155:.\Generated_Source\PSoC5/CapSense_CSD_CSHL.c **** *  Loads CapSense_CSD_debounceCounter[sensor] array element with initial 
 156:.\Generated_Source\PSoC5/CapSense_CSD_CSHL.c **** *  value equal CapSense_CSD_debounce[].
 157:.\Generated_Source\PSoC5/CapSense_CSD_CSHL.c **** *  Loads the CapSense_CSD_rawFilterData2[sensor] and 
 158:.\Generated_Source\PSoC5/CapSense_CSD_CSHL.c **** *  CapSense_CSD_rawFilterData2[sensor] array element with an 
 159:.\Generated_Source\PSoC5/CapSense_CSD_CSHL.c **** *  initial value which is equal raw count value if raw data filter is enabled.
 160:.\Generated_Source\PSoC5/CapSense_CSD_CSHL.c **** *
 161:.\Generated_Source\PSoC5/CapSense_CSD_CSHL.c **** * Parameters:
 162:.\Generated_Source\PSoC5/CapSense_CSD_CSHL.c **** *  sensor:  Sensor number.
 163:.\Generated_Source\PSoC5/CapSense_CSD_CSHL.c **** *
 164:.\Generated_Source\PSoC5/CapSense_CSD_CSHL.c **** * Return:
 165:.\Generated_Source\PSoC5/CapSense_CSD_CSHL.c **** *  None
 166:.\Generated_Source\PSoC5/CapSense_CSD_CSHL.c **** *
 167:.\Generated_Source\PSoC5/CapSense_CSD_CSHL.c **** * Global Variables:
 168:.\Generated_Source\PSoC5/CapSense_CSD_CSHL.c **** *  CapSense_CSD_SensorBaseline[]    - used to store baseline value.
 169:.\Generated_Source\PSoC5/CapSense_CSD_CSHL.c **** *  CapSense_CSD_SensorBaselineLow[] - used to store fraction byte of 
 170:.\Generated_Source\PSoC5/CapSense_CSD_CSHL.c **** *  baseline value.
 171:.\Generated_Source\PSoC5/CapSense_CSD_CSHL.c **** *  CapSense_CSD_SensorSignal[]      - used to store diffence between 
 172:.\Generated_Source\PSoC5/CapSense_CSD_CSHL.c **** *  current value of raw data and previous value of baseline.
 173:.\Generated_Source\PSoC5/CapSense_CSD_CSHL.c **** *  CapSense_CSD_debounceCounter[]   - used to store current debounce 
 174:.\Generated_Source\PSoC5/CapSense_CSD_CSHL.c **** *  counter of sensor. Widget which has this parameter are buttons, matrix 
 175:.\Generated_Source\PSoC5/CapSense_CSD_CSHL.c **** *  buttons, proximity, guard. All other widgets haven't debounce parameter
 176:.\Generated_Source\PSoC5/CapSense_CSD_CSHL.c **** *  and use the last element of this array with value 0 (it means no debounce).
 177:.\Generated_Source\PSoC5/CapSense_CSD_CSHL.c **** *  CapSense_CSD_rawFilterData1[]    - used to store previous sample of 
 178:.\Generated_Source\PSoC5/CapSense_CSD_CSHL.c **** *  any enabled raw data filter.
 179:.\Generated_Source\PSoC5/CapSense_CSD_CSHL.c **** *  CapSense_CSD_rawFilterData2[]    - used to store before previous sample
 180:.\Generated_Source\PSoC5/CapSense_CSD_CSHL.c **** *  of enabled raw data filter. Only required for median or average filters.
 181:.\Generated_Source\PSoC5/CapSense_CSD_CSHL.c **** *
 182:.\Generated_Source\PSoC5/CapSense_CSD_CSHL.c **** * Reentrant:
 183:.\Generated_Source\PSoC5/CapSense_CSD_CSHL.c **** *  No
 184:.\Generated_Source\PSoC5/CapSense_CSD_CSHL.c **** *
 185:.\Generated_Source\PSoC5/CapSense_CSD_CSHL.c **** *******************************************************************************/
 186:.\Generated_Source\PSoC5/CapSense_CSD_CSHL.c **** void CapSense_CSD_BaseInit(uint8 sensor) 
 187:.\Generated_Source\PSoC5/CapSense_CSD_CSHL.c **** {
 124              		.loc 1 187 0
 125              		.cfi_startproc
 126              		@ args = 0, pretend = 0, frame = 16
 127              		@ frame_needed = 1, uses_anonymous_args = 0
 128              		@ link register save eliminated.
 129 0000 80B4     		push	{r7}
 130              	.LCFI0:
 131              		.cfi_def_cfa_offset 4
 132 0002 85B0     		sub	sp, sp, #20
 133              	.LCFI1:
 134              		.cfi_def_cfa_offset 24
 135 0004 00AF     		add	r7, sp, #0
 136              		.cfi_offset 7, -4
 137              	.LCFI2:
 138              		.cfi_def_cfa_register 7
 139 0006 0346     		mov	r3, r0
 140 0008 FB71     		strb	r3, [r7, #7]
 188:.\Generated_Source\PSoC5/CapSense_CSD_CSHL.c ****     #if ((CapSense_CSD_TOTAL_BUTTONS_COUNT) || (CapSense_CSD_TOTAL_MATRIX_BUTTONS_COUNT) || \
 189:.\Generated_Source\PSoC5/CapSense_CSD_CSHL.c ****          (CapSense_CSD_TOTAL_GENERICS_COUNT))
 190:.\Generated_Source\PSoC5/CapSense_CSD_CSHL.c ****         uint8 widget = CapSense_CSD_widgetNumber[sensor];
 141              		.loc 1 190 0
 142 000a FA79     		ldrb	r2, [r7, #7]	@ zero_extendqisi2
 143 000c 40F20003 		movw	r3, #:lower16:CapSense_CSD_widgetNumber
ARM GAS  C:\Users\yguan5\AppData\Local\Temp\ccX3ogeL.s 			page 7


 144 0010 C0F20003 		movt	r3, #:upper16:CapSense_CSD_widgetNumber
 145 0014 9B5C     		ldrb	r3, [r3, r2]
 146 0016 FB73     		strb	r3, [r7, #15]
 191:.\Generated_Source\PSoC5/CapSense_CSD_CSHL.c ****     #endif /* ((CapSense_CSD_TOTAL_MATRIX_BUTTONS_COUNT) || (CapSense_CSD_TOTAL_MATRIX_BUTTONS_COUN
 192:.\Generated_Source\PSoC5/CapSense_CSD_CSHL.c ****     
 193:.\Generated_Source\PSoC5/CapSense_CSD_CSHL.c ****     #if (CapSense_CSD_TOTAL_MATRIX_BUTTONS_COUNT)
 194:.\Generated_Source\PSoC5/CapSense_CSD_CSHL.c ****         uint8 debounceIndex;
 195:.\Generated_Source\PSoC5/CapSense_CSD_CSHL.c ****     #endif  /* (CapSense_CSD_TOTAL_MATRIX_BUTTONS_COUNT) */
 196:.\Generated_Source\PSoC5/CapSense_CSD_CSHL.c ****     
 197:.\Generated_Source\PSoC5/CapSense_CSD_CSHL.c ****     #if (CapSense_CSD_TOTAL_GENERICS_COUNT)
 198:.\Generated_Source\PSoC5/CapSense_CSD_CSHL.c ****         /* Exclude generic widget */
 199:.\Generated_Source\PSoC5/CapSense_CSD_CSHL.c ****         if(widget < CapSense_CSD_END_OF_WIDGETS_INDEX)
 200:.\Generated_Source\PSoC5/CapSense_CSD_CSHL.c ****         {
 201:.\Generated_Source\PSoC5/CapSense_CSD_CSHL.c ****     #endif  /* CapSense_CSD_TOTAL_GENERICS_COUNT */
 202:.\Generated_Source\PSoC5/CapSense_CSD_CSHL.c ****     
 203:.\Generated_Source\PSoC5/CapSense_CSD_CSHL.c ****     /* Initialize Baseline */
 204:.\Generated_Source\PSoC5/CapSense_CSD_CSHL.c ****     CapSense_CSD_SensorBaseline[sensor] = CapSense_CSD_SensorRaw[sensor];
 147              		.loc 1 204 0
 148 0018 FA79     		ldrb	r2, [r7, #7]	@ zero_extendqisi2
 149 001a F979     		ldrb	r1, [r7, #7]	@ zero_extendqisi2
 150 001c 40F20003 		movw	r3, #:lower16:CapSense_CSD_SensorRaw
 151 0020 C0F20003 		movt	r3, #:upper16:CapSense_CSD_SensorRaw
 152 0024 33F81110 		ldrh	r1, [r3, r1, lsl #1]
 153 0028 40F20003 		movw	r3, #:lower16:CapSense_CSD_SensorBaseline
 154 002c C0F20003 		movt	r3, #:upper16:CapSense_CSD_SensorBaseline
 155 0030 23F81210 		strh	r1, [r3, r2, lsl #1]	@ movhi
 205:.\Generated_Source\PSoC5/CapSense_CSD_CSHL.c ****     CapSense_CSD_SensorBaselineLow[sensor] = 0u;
 156              		.loc 1 205 0
 157 0034 FA79     		ldrb	r2, [r7, #7]	@ zero_extendqisi2
 158 0036 40F20003 		movw	r3, #:lower16:CapSense_CSD_SensorBaselineLow
 159 003a C0F20003 		movt	r3, #:upper16:CapSense_CSD_SensorBaselineLow
 160 003e 4FF00001 		mov	r1, #0
 161 0042 9954     		strb	r1, [r3, r2]
 206:.\Generated_Source\PSoC5/CapSense_CSD_CSHL.c ****     CapSense_CSD_SensorSignal[sensor] = 0u;
 162              		.loc 1 206 0
 163 0044 FA79     		ldrb	r2, [r7, #7]	@ zero_extendqisi2
 164 0046 40F20003 		movw	r3, #:lower16:CapSense_CSD_SensorSignal
 165 004a C0F20003 		movt	r3, #:upper16:CapSense_CSD_SensorSignal
 166 004e 4FF00001 		mov	r1, #0
 167 0052 9954     		strb	r1, [r3, r2]
 207:.\Generated_Source\PSoC5/CapSense_CSD_CSHL.c ****         
 208:.\Generated_Source\PSoC5/CapSense_CSD_CSHL.c ****     if(widget > CapSense_CSD_END_OF_TOUCH_PAD_INDEX)
 168              		.loc 1 208 0
 169 0054 FB7B     		ldrb	r3, [r7, #15]	@ zero_extendqisi2
 170 0056 002B     		cmp	r3, #0
 171 0058 0DD0     		beq	.L3
 209:.\Generated_Source\PSoC5/CapSense_CSD_CSHL.c ****     {
 210:.\Generated_Source\PSoC5/CapSense_CSD_CSHL.c ****         CapSense_CSD_debounceCounter[widget - (CapSense_CSD_END_OF_TOUCH_PAD_INDEX + 1)] =  CapSens
 172              		.loc 1 210 0
 173 005a FB7B     		ldrb	r3, [r7, #15]	@ zero_extendqisi2
 174 005c 03F1FF32 		add	r2, r3, #-1
 175 0060 F97B     		ldrb	r1, [r7, #15]	@ zero_extendqisi2
 176 0062 40F20003 		movw	r3, #:lower16:CapSense_CSD_debounce
 177 0066 C0F20003 		movt	r3, #:upper16:CapSense_CSD_debounce
 178 006a 595C     		ldrb	r1, [r3, r1]	@ zero_extendqisi2
 179 006c 40F20003 		movw	r3, #:lower16:CapSense_CSD_debounceCounter
 180 0070 C0F20003 		movt	r3, #:upper16:CapSense_CSD_debounceCounter
ARM GAS  C:\Users\yguan5\AppData\Local\Temp\ccX3ogeL.s 			page 8


 181 0074 9954     		strb	r1, [r3, r2]
 182              	.L3:
 211:.\Generated_Source\PSoC5/CapSense_CSD_CSHL.c ****     }
 212:.\Generated_Source\PSoC5/CapSense_CSD_CSHL.c **** 
 213:.\Generated_Source\PSoC5/CapSense_CSD_CSHL.c ****     
 214:.\Generated_Source\PSoC5/CapSense_CSD_CSHL.c ****     #if ((CapSense_CSD_RAW_FILTER_MASK & CapSense_CSD_MEDIAN_FILTER) ||\
 215:.\Generated_Source\PSoC5/CapSense_CSD_CSHL.c ****          (CapSense_CSD_RAW_FILTER_MASK & CapSense_CSD_AVERAGING_FILTER))
 216:.\Generated_Source\PSoC5/CapSense_CSD_CSHL.c **** 
 217:.\Generated_Source\PSoC5/CapSense_CSD_CSHL.c ****         CapSense_CSD_rawFilterData1[sensor] = CapSense_CSD_SensorRaw[sensor];
 218:.\Generated_Source\PSoC5/CapSense_CSD_CSHL.c ****         CapSense_CSD_rawFilterData2[sensor] = CapSense_CSD_SensorRaw[sensor];
 219:.\Generated_Source\PSoC5/CapSense_CSD_CSHL.c ****     
 220:.\Generated_Source\PSoC5/CapSense_CSD_CSHL.c ****     #elif ((CapSense_CSD_RAW_FILTER_MASK & CapSense_CSD_IIR2_FILTER) ||\
 221:.\Generated_Source\PSoC5/CapSense_CSD_CSHL.c ****            (CapSense_CSD_RAW_FILTER_MASK & CapSense_CSD_IIR4_FILTER) ||\
 222:.\Generated_Source\PSoC5/CapSense_CSD_CSHL.c ****            (CapSense_CSD_RAW_FILTER_MASK & CapSense_CSD_JITTER_FILTER) ||\
 223:.\Generated_Source\PSoC5/CapSense_CSD_CSHL.c ****            (CapSense_CSD_RAW_FILTER_MASK & CapSense_CSD_IIR8_FILTER) ||\
 224:.\Generated_Source\PSoC5/CapSense_CSD_CSHL.c ****            (CapSense_CSD_RAW_FILTER_MASK & CapSense_CSD_IIR16_FILTER))
 225:.\Generated_Source\PSoC5/CapSense_CSD_CSHL.c ****             
 226:.\Generated_Source\PSoC5/CapSense_CSD_CSHL.c ****         CapSense_CSD_rawFilterData1[sensor] = CapSense_CSD_SensorRaw[sensor];
 227:.\Generated_Source\PSoC5/CapSense_CSD_CSHL.c ****     
 228:.\Generated_Source\PSoC5/CapSense_CSD_CSHL.c ****     #else
 229:.\Generated_Source\PSoC5/CapSense_CSD_CSHL.c ****         /* No Raw filters */
 230:.\Generated_Source\PSoC5/CapSense_CSD_CSHL.c ****     #endif  /* ((CapSense_CSD_RAW_FILTER_MASK & CapSense_CSD_MEDIAN_FILTER) || \
 231:.\Generated_Source\PSoC5/CapSense_CSD_CSHL.c ****             *   (CapSense_CSD_RAW_FILTER_MASK & CapSense_CSD_AVERAGING_FILTER))
 232:.\Generated_Source\PSoC5/CapSense_CSD_CSHL.c ****             */
 233:.\Generated_Source\PSoC5/CapSense_CSD_CSHL.c ****     
 234:.\Generated_Source\PSoC5/CapSense_CSD_CSHL.c ****     #if (CapSense_CSD_TOTAL_GENERICS_COUNT)
 235:.\Generated_Source\PSoC5/CapSense_CSD_CSHL.c ****         /* Exclude generic widget */
 236:.\Generated_Source\PSoC5/CapSense_CSD_CSHL.c ****         }
 237:.\Generated_Source\PSoC5/CapSense_CSD_CSHL.c ****     #endif  /* CapSense_CSD_TOTAL_GENERICS_COUNT */
 238:.\Generated_Source\PSoC5/CapSense_CSD_CSHL.c **** }
 183              		.loc 1 238 0
 184 0076 07F11407 		add	r7, r7, #20
 185 007a BD46     		mov	sp, r7
 186 007c 80BC     		pop	{r7}
 187 007e 7047     		bx	lr
 188              		.cfi_endproc
 189              	.LFE0:
 190              		.size	CapSense_CSD_BaseInit, .-CapSense_CSD_BaseInit
 191              		.section	.text.CapSense_CSD_InitializeSensorBaseline,"ax",%progbits
 192              		.align	2
 193              		.global	CapSense_CSD_InitializeSensorBaseline
 194              		.thumb
 195              		.thumb_func
 196              		.type	CapSense_CSD_InitializeSensorBaseline, %function
 197              	CapSense_CSD_InitializeSensorBaseline:
 198              	.LFB1:
 239:.\Generated_Source\PSoC5/CapSense_CSD_CSHL.c **** 
 240:.\Generated_Source\PSoC5/CapSense_CSD_CSHL.c **** 
 241:.\Generated_Source\PSoC5/CapSense_CSD_CSHL.c **** /*******************************************************************************
 242:.\Generated_Source\PSoC5/CapSense_CSD_CSHL.c **** * Function Name: CapSense_CSD_InitializeSensorBaseline
 243:.\Generated_Source\PSoC5/CapSense_CSD_CSHL.c **** ********************************************************************************
 244:.\Generated_Source\PSoC5/CapSense_CSD_CSHL.c **** *
 245:.\Generated_Source\PSoC5/CapSense_CSD_CSHL.c **** * Summary:
 246:.\Generated_Source\PSoC5/CapSense_CSD_CSHL.c **** *  Loads the CapSense_CSD_SensorBaseline[sensor] array element with an 
 247:.\Generated_Source\PSoC5/CapSense_CSD_CSHL.c **** *  initial value by scanning the selected sensor (one channel design) or pair 
 248:.\Generated_Source\PSoC5/CapSense_CSD_CSHL.c **** *  of sensors (two channels designs). The raw count value is copied into the 
 249:.\Generated_Source\PSoC5/CapSense_CSD_CSHL.c **** *  baseline array for each sensor. The raw data filters are initialized if 
ARM GAS  C:\Users\yguan5\AppData\Local\Temp\ccX3ogeL.s 			page 9


 250:.\Generated_Source\PSoC5/CapSense_CSD_CSHL.c **** *  enabled.
 251:.\Generated_Source\PSoC5/CapSense_CSD_CSHL.c **** *
 252:.\Generated_Source\PSoC5/CapSense_CSD_CSHL.c **** * Parameters:
 253:.\Generated_Source\PSoC5/CapSense_CSD_CSHL.c **** *  sensor:  Sensor number.
 254:.\Generated_Source\PSoC5/CapSense_CSD_CSHL.c **** *
 255:.\Generated_Source\PSoC5/CapSense_CSD_CSHL.c **** * Return:
 256:.\Generated_Source\PSoC5/CapSense_CSD_CSHL.c **** *  None
 257:.\Generated_Source\PSoC5/CapSense_CSD_CSHL.c **** *
 258:.\Generated_Source\PSoC5/CapSense_CSD_CSHL.c **** * Reentrant:
 259:.\Generated_Source\PSoC5/CapSense_CSD_CSHL.c **** *  No
 260:.\Generated_Source\PSoC5/CapSense_CSD_CSHL.c **** *
 261:.\Generated_Source\PSoC5/CapSense_CSD_CSHL.c **** *******************************************************************************/
 262:.\Generated_Source\PSoC5/CapSense_CSD_CSHL.c **** void CapSense_CSD_InitializeSensorBaseline(uint8 sensor)
 263:.\Generated_Source\PSoC5/CapSense_CSD_CSHL.c ****                           
 264:.\Generated_Source\PSoC5/CapSense_CSD_CSHL.c **** {
 199              		.loc 1 264 0
 200              		.cfi_startproc
 201              		@ args = 0, pretend = 0, frame = 8
 202              		@ frame_needed = 1, uses_anonymous_args = 0
 203 0000 80B5     		push	{r7, lr}
 204              	.LCFI3:
 205              		.cfi_def_cfa_offset 8
 206 0002 82B0     		sub	sp, sp, #8
 207              	.LCFI4:
 208              		.cfi_def_cfa_offset 16
 209 0004 00AF     		add	r7, sp, #0
 210              		.cfi_offset 14, -4
 211              		.cfi_offset 7, -8
 212              	.LCFI5:
 213              		.cfi_def_cfa_register 7
 214 0006 0346     		mov	r3, r0
 215 0008 FB71     		strb	r3, [r7, #7]
 265:.\Generated_Source\PSoC5/CapSense_CSD_CSHL.c ****     /* Scan sensor */
 266:.\Generated_Source\PSoC5/CapSense_CSD_CSHL.c ****     CapSense_CSD_ScanSensor(sensor);
 216              		.loc 1 266 0
 217 000a FB79     		ldrb	r3, [r7, #7]	@ zero_extendqisi2
 218 000c 1846     		mov	r0, r3
 219 000e FFF7FEFF 		bl	CapSense_CSD_ScanSensor
 220              	.L5:
 267:.\Generated_Source\PSoC5/CapSense_CSD_CSHL.c ****     while(CapSense_CSD_IsBusy() != 0u) {;}
 221              		.loc 1 267 0
 222 0012 FFF7FEFF 		bl	CapSense_CSD_IsBusy
 223 0016 0346     		mov	r3, r0
 224 0018 002B     		cmp	r3, #0
 225 001a FAD1     		bne	.L5
 268:.\Generated_Source\PSoC5/CapSense_CSD_CSHL.c ****     
 269:.\Generated_Source\PSoC5/CapSense_CSD_CSHL.c ****     #if (CapSense_CSD_DESIGN_TYPE == CapSense_CSD_ONE_CHANNEL_DESIGN)
 270:.\Generated_Source\PSoC5/CapSense_CSD_CSHL.c ****         /* Initialize Baseline, Signal and debounce counters */       
 271:.\Generated_Source\PSoC5/CapSense_CSD_CSHL.c ****         CapSense_CSD_BaseInit(sensor);
 226              		.loc 1 271 0
 227 001c FB79     		ldrb	r3, [r7, #7]	@ zero_extendqisi2
 228 001e 1846     		mov	r0, r3
 229 0020 FFF7FEFF 		bl	CapSense_CSD_BaseInit
 272:.\Generated_Source\PSoC5/CapSense_CSD_CSHL.c ****         
 273:.\Generated_Source\PSoC5/CapSense_CSD_CSHL.c ****     #else
 274:.\Generated_Source\PSoC5/CapSense_CSD_CSHL.c ****     
 275:.\Generated_Source\PSoC5/CapSense_CSD_CSHL.c ****         if(sensor < CapSense_CSD_TOTAL_SENSOR_COUNT__CH0)
ARM GAS  C:\Users\yguan5\AppData\Local\Temp\ccX3ogeL.s 			page 10


 276:.\Generated_Source\PSoC5/CapSense_CSD_CSHL.c ****         {
 277:.\Generated_Source\PSoC5/CapSense_CSD_CSHL.c ****             /* Initialize Baseline, Signal and debounce counters */ 
 278:.\Generated_Source\PSoC5/CapSense_CSD_CSHL.c ****             CapSense_CSD_BaseInit(sensor);
 279:.\Generated_Source\PSoC5/CapSense_CSD_CSHL.c ****         }
 280:.\Generated_Source\PSoC5/CapSense_CSD_CSHL.c ****         
 281:.\Generated_Source\PSoC5/CapSense_CSD_CSHL.c ****         if(sensor < CapSense_CSD_TOTAL_SENSOR_COUNT__CH1)
 282:.\Generated_Source\PSoC5/CapSense_CSD_CSHL.c ****         {
 283:.\Generated_Source\PSoC5/CapSense_CSD_CSHL.c ****             /* Initialize Baseline, Signal and debounce counters */
 284:.\Generated_Source\PSoC5/CapSense_CSD_CSHL.c ****             CapSense_CSD_BaseInit(sensor + CapSense_CSD_TOTAL_SENSOR_COUNT__CH0);
 285:.\Generated_Source\PSoC5/CapSense_CSD_CSHL.c ****         }
 286:.\Generated_Source\PSoC5/CapSense_CSD_CSHL.c ****     
 287:.\Generated_Source\PSoC5/CapSense_CSD_CSHL.c ****     #endif  /* (CapSense_CSD_DESIGN_TYPE == CapSense_CSD_ONE_CHANNEL_DESIGN) */
 288:.\Generated_Source\PSoC5/CapSense_CSD_CSHL.c **** }
 230              		.loc 1 288 0
 231 0024 07F10807 		add	r7, r7, #8
 232 0028 BD46     		mov	sp, r7
 233 002a 80BD     		pop	{r7, pc}
 234              		.cfi_endproc
 235              	.LFE1:
 236              		.size	CapSense_CSD_InitializeSensorBaseline, .-CapSense_CSD_InitializeSensorBaseline
 237              		.section	.text.CapSense_CSD_InitializeAllBaselines,"ax",%progbits
 238              		.align	2
 239              		.global	CapSense_CSD_InitializeAllBaselines
 240              		.thumb
 241              		.thumb_func
 242              		.type	CapSense_CSD_InitializeAllBaselines, %function
 243              	CapSense_CSD_InitializeAllBaselines:
 244              	.LFB2:
 289:.\Generated_Source\PSoC5/CapSense_CSD_CSHL.c **** 
 290:.\Generated_Source\PSoC5/CapSense_CSD_CSHL.c **** 
 291:.\Generated_Source\PSoC5/CapSense_CSD_CSHL.c **** /*******************************************************************************
 292:.\Generated_Source\PSoC5/CapSense_CSD_CSHL.c **** * Function Name: CapSense_CSD_InitializeAllBaselines
 293:.\Generated_Source\PSoC5/CapSense_CSD_CSHL.c **** ********************************************************************************
 294:.\Generated_Source\PSoC5/CapSense_CSD_CSHL.c **** *
 295:.\Generated_Source\PSoC5/CapSense_CSD_CSHL.c **** * Summary:
 296:.\Generated_Source\PSoC5/CapSense_CSD_CSHL.c **** *  Uses the CapSense_CSD_InitializeSensorBaseline function to loads the 
 297:.\Generated_Source\PSoC5/CapSense_CSD_CSHL.c **** *  CapSense_CSD_SensorBaseline[] array with an initial values by scanning 
 298:.\Generated_Source\PSoC5/CapSense_CSD_CSHL.c **** *  all sensors. The raw count values are copied into the baseline array for 
 299:.\Generated_Source\PSoC5/CapSense_CSD_CSHL.c **** *  all sensors. The raw data filters are initialized if enabled.
 300:.\Generated_Source\PSoC5/CapSense_CSD_CSHL.c **** *
 301:.\Generated_Source\PSoC5/CapSense_CSD_CSHL.c **** * Parameters:
 302:.\Generated_Source\PSoC5/CapSense_CSD_CSHL.c **** *  None
 303:.\Generated_Source\PSoC5/CapSense_CSD_CSHL.c **** *
 304:.\Generated_Source\PSoC5/CapSense_CSD_CSHL.c **** * Return:
 305:.\Generated_Source\PSoC5/CapSense_CSD_CSHL.c **** *  None
 306:.\Generated_Source\PSoC5/CapSense_CSD_CSHL.c **** *
 307:.\Generated_Source\PSoC5/CapSense_CSD_CSHL.c **** * Reentrant:
 308:.\Generated_Source\PSoC5/CapSense_CSD_CSHL.c **** *  No
 309:.\Generated_Source\PSoC5/CapSense_CSD_CSHL.c **** *
 310:.\Generated_Source\PSoC5/CapSense_CSD_CSHL.c **** *******************************************************************************/
 311:.\Generated_Source\PSoC5/CapSense_CSD_CSHL.c **** void CapSense_CSD_InitializeAllBaselines(void)
 312:.\Generated_Source\PSoC5/CapSense_CSD_CSHL.c ****                           
 313:.\Generated_Source\PSoC5/CapSense_CSD_CSHL.c **** {
 245              		.loc 1 313 0
 246              		.cfi_startproc
 247              		@ args = 0, pretend = 0, frame = 8
 248              		@ frame_needed = 1, uses_anonymous_args = 0
ARM GAS  C:\Users\yguan5\AppData\Local\Temp\ccX3ogeL.s 			page 11


 249 0000 80B5     		push	{r7, lr}
 250              	.LCFI6:
 251              		.cfi_def_cfa_offset 8
 252 0002 82B0     		sub	sp, sp, #8
 253              	.LCFI7:
 254              		.cfi_def_cfa_offset 16
 255 0004 00AF     		add	r7, sp, #0
 256              		.cfi_offset 14, -4
 257              		.cfi_offset 7, -8
 258              	.LCFI8:
 259              		.cfi_def_cfa_register 7
 314:.\Generated_Source\PSoC5/CapSense_CSD_CSHL.c ****     uint8 i;
 315:.\Generated_Source\PSoC5/CapSense_CSD_CSHL.c ****     
 316:.\Generated_Source\PSoC5/CapSense_CSD_CSHL.c ****     /* The baseline initialize by sensor of sensor pair */
 317:.\Generated_Source\PSoC5/CapSense_CSD_CSHL.c ****     for(i = 0u; i < CapSense_CSD_TOTAL_SCANSLOT_COUNT; i++)
 260              		.loc 1 317 0
 261 0006 4FF00003 		mov	r3, #0
 262 000a FB71     		strb	r3, [r7, #7]
 263 000c 07E0     		b	.L8
 264              	.L9:
 318:.\Generated_Source\PSoC5/CapSense_CSD_CSHL.c ****     {
 319:.\Generated_Source\PSoC5/CapSense_CSD_CSHL.c ****         CapSense_CSD_InitializeSensorBaseline(i);
 265              		.loc 1 319 0
 266 000e FB79     		ldrb	r3, [r7, #7]	@ zero_extendqisi2
 267 0010 1846     		mov	r0, r3
 268 0012 FFF7FEFF 		bl	CapSense_CSD_InitializeSensorBaseline
 269              		.loc 1 317 0
 270 0016 FB79     		ldrb	r3, [r7, #7]
 271 0018 03F10103 		add	r3, r3, #1
 272 001c FB71     		strb	r3, [r7, #7]
 273              	.L8:
 274 001e FB79     		ldrb	r3, [r7, #7]	@ zero_extendqisi2
 275 0020 062B     		cmp	r3, #6
 276 0022 F4D9     		bls	.L9
 320:.\Generated_Source\PSoC5/CapSense_CSD_CSHL.c ****     }
 321:.\Generated_Source\PSoC5/CapSense_CSD_CSHL.c **** }
 277              		.loc 1 321 0
 278 0024 07F10807 		add	r7, r7, #8
 279 0028 BD46     		mov	sp, r7
 280 002a 80BD     		pop	{r7, pc}
 281              		.cfi_endproc
 282              	.LFE2:
 283              		.size	CapSense_CSD_InitializeAllBaselines, .-CapSense_CSD_InitializeAllBaselines
 284              		.section	.text.CapSense_CSD_InitializeEnabledBaselines,"ax",%progbits
 285              		.align	2
 286              		.global	CapSense_CSD_InitializeEnabledBaselines
 287              		.thumb
 288              		.thumb_func
 289              		.type	CapSense_CSD_InitializeEnabledBaselines, %function
 290              	CapSense_CSD_InitializeEnabledBaselines:
 291              	.LFB3:
 322:.\Generated_Source\PSoC5/CapSense_CSD_CSHL.c **** 
 323:.\Generated_Source\PSoC5/CapSense_CSD_CSHL.c **** 
 324:.\Generated_Source\PSoC5/CapSense_CSD_CSHL.c **** /*******************************************************************************
 325:.\Generated_Source\PSoC5/CapSense_CSD_CSHL.c **** * Function Name: CapSense_CSD_InitializeEnabledBaselines
 326:.\Generated_Source\PSoC5/CapSense_CSD_CSHL.c **** ********************************************************************************
 327:.\Generated_Source\PSoC5/CapSense_CSD_CSHL.c **** *
ARM GAS  C:\Users\yguan5\AppData\Local\Temp\ccX3ogeL.s 			page 12


 328:.\Generated_Source\PSoC5/CapSense_CSD_CSHL.c **** * Summary:
 329:.\Generated_Source\PSoC5/CapSense_CSD_CSHL.c **** *  Scans all enabled widgets and the raw count values are copied into the 
 330:.\Generated_Source\PSoC5/CapSense_CSD_CSHL.c **** *  baseline array for all sensors enabled in scanning process. Baselines 
 331:.\Generated_Source\PSoC5/CapSense_CSD_CSHL.c **** *  initialize with zero values for sensors disabled from scanning process. 
 332:.\Generated_Source\PSoC5/CapSense_CSD_CSHL.c **** *  The raw data filters are initialized if enabled.
 333:.\Generated_Source\PSoC5/CapSense_CSD_CSHL.c **** *
 334:.\Generated_Source\PSoC5/CapSense_CSD_CSHL.c **** * Parameters:
 335:.\Generated_Source\PSoC5/CapSense_CSD_CSHL.c **** *  None
 336:.\Generated_Source\PSoC5/CapSense_CSD_CSHL.c **** *
 337:.\Generated_Source\PSoC5/CapSense_CSD_CSHL.c **** * Return:
 338:.\Generated_Source\PSoC5/CapSense_CSD_CSHL.c **** *  None
 339:.\Generated_Source\PSoC5/CapSense_CSD_CSHL.c **** *
 340:.\Generated_Source\PSoC5/CapSense_CSD_CSHL.c **** * Reentrant:
 341:.\Generated_Source\PSoC5/CapSense_CSD_CSHL.c **** *  No
 342:.\Generated_Source\PSoC5/CapSense_CSD_CSHL.c **** *
 343:.\Generated_Source\PSoC5/CapSense_CSD_CSHL.c **** *******************************************************************************/
 344:.\Generated_Source\PSoC5/CapSense_CSD_CSHL.c **** void CapSense_CSD_InitializeEnabledBaselines(void)
 345:.\Generated_Source\PSoC5/CapSense_CSD_CSHL.c ****                              
 346:.\Generated_Source\PSoC5/CapSense_CSD_CSHL.c **** {
 292              		.loc 1 346 0
 293              		.cfi_startproc
 294              		@ args = 0, pretend = 0, frame = 8
 295              		@ frame_needed = 1, uses_anonymous_args = 0
 296 0000 80B5     		push	{r7, lr}
 297              	.LCFI9:
 298              		.cfi_def_cfa_offset 8
 299 0002 82B0     		sub	sp, sp, #8
 300              	.LCFI10:
 301              		.cfi_def_cfa_offset 16
 302 0004 00AF     		add	r7, sp, #0
 303              		.cfi_offset 14, -4
 304              		.cfi_offset 7, -8
 305              	.LCFI11:
 306              		.cfi_def_cfa_register 7
 347:.\Generated_Source\PSoC5/CapSense_CSD_CSHL.c ****     uint8 i;
 348:.\Generated_Source\PSoC5/CapSense_CSD_CSHL.c ****     uint8 pos;
 349:.\Generated_Source\PSoC5/CapSense_CSD_CSHL.c ****     uint8 enMask;
 350:.\Generated_Source\PSoC5/CapSense_CSD_CSHL.c ****     
 351:.\Generated_Source\PSoC5/CapSense_CSD_CSHL.c ****     CapSense_CSD_ScanEnabledWidgets();
 307              		.loc 1 351 0
 308 0006 FFF7FEFF 		bl	CapSense_CSD_ScanEnabledWidgets
 309              	.L12:
 352:.\Generated_Source\PSoC5/CapSense_CSD_CSHL.c ****     while(CapSense_CSD_IsBusy() != 0u){;}
 310              		.loc 1 352 0
 311 000a FFF7FEFF 		bl	CapSense_CSD_IsBusy
 312 000e 0346     		mov	r3, r0
 313 0010 002B     		cmp	r3, #0
 314 0012 FAD1     		bne	.L12
 353:.\Generated_Source\PSoC5/CapSense_CSD_CSHL.c ****     
 354:.\Generated_Source\PSoC5/CapSense_CSD_CSHL.c ****     for(i = 0u; i < CapSense_CSD_TOTAL_SENSOR_COUNT; i++)
 315              		.loc 1 354 0
 316 0014 4FF00003 		mov	r3, #0
 317 0018 7B71     		strb	r3, [r7, #5]
 318 001a 28E0     		b	.L13
 319              	.L15:
 355:.\Generated_Source\PSoC5/CapSense_CSD_CSHL.c ****     {
 356:.\Generated_Source\PSoC5/CapSense_CSD_CSHL.c ****         pos = (i >> 3u);
ARM GAS  C:\Users\yguan5\AppData\Local\Temp\ccX3ogeL.s 			page 13


 320              		.loc 1 356 0
 321 001c 7B79     		ldrb	r3, [r7, #5]	@ zero_extendqisi2
 322 001e 4FEAD303 		lsr	r3, r3, #3
 323 0022 BB71     		strb	r3, [r7, #6]
 357:.\Generated_Source\PSoC5/CapSense_CSD_CSHL.c ****         enMask = 0x01u << (i & 0x07u);
 324              		.loc 1 357 0
 325 0024 7B79     		ldrb	r3, [r7, #5]	@ zero_extendqisi2
 326 0026 03F00703 		and	r3, r3, #7
 327 002a 4FF00102 		mov	r2, #1
 328 002e 02FA03F3 		lsl	r3, r2, r3
 329 0032 FB71     		strb	r3, [r7, #7]
 358:.\Generated_Source\PSoC5/CapSense_CSD_CSHL.c ****         
 359:.\Generated_Source\PSoC5/CapSense_CSD_CSHL.c ****         /* Clear raw data if sensor is disabled from scanning process */
 360:.\Generated_Source\PSoC5/CapSense_CSD_CSHL.c ****         if((CapSense_CSD_SensorEnableMask[pos] & enMask) == 0u)
 330              		.loc 1 360 0
 331 0034 BA79     		ldrb	r2, [r7, #6]	@ zero_extendqisi2
 332 0036 40F20003 		movw	r3, #:lower16:CapSense_CSD_SensorEnableMask
 333 003a C0F20003 		movt	r3, #:upper16:CapSense_CSD_SensorEnableMask
 334 003e 9A5C     		ldrb	r2, [r3, r2]	@ zero_extendqisi2
 335 0040 FB79     		ldrb	r3, [r7, #7]
 336 0042 02EA0303 		and	r3, r2, r3
 337 0046 DBB2     		uxtb	r3, r3
 338 0048 002B     		cmp	r3, #0
 339 004a 08D1     		bne	.L14
 361:.\Generated_Source\PSoC5/CapSense_CSD_CSHL.c ****         {
 362:.\Generated_Source\PSoC5/CapSense_CSD_CSHL.c ****             CapSense_CSD_SensorRaw[i] = 0u;
 340              		.loc 1 362 0
 341 004c 7A79     		ldrb	r2, [r7, #5]	@ zero_extendqisi2
 342 004e 40F20003 		movw	r3, #:lower16:CapSense_CSD_SensorRaw
 343 0052 C0F20003 		movt	r3, #:upper16:CapSense_CSD_SensorRaw
 344 0056 4FF00001 		mov	r1, #0
 345 005a 23F81210 		strh	r1, [r3, r2, lsl #1]	@ movhi
 346              	.L14:
 363:.\Generated_Source\PSoC5/CapSense_CSD_CSHL.c ****         }
 364:.\Generated_Source\PSoC5/CapSense_CSD_CSHL.c ****         
 365:.\Generated_Source\PSoC5/CapSense_CSD_CSHL.c ****         /* Initialize baselines */
 366:.\Generated_Source\PSoC5/CapSense_CSD_CSHL.c ****         CapSense_CSD_BaseInit(i);
 347              		.loc 1 366 0
 348 005e 7B79     		ldrb	r3, [r7, #5]	@ zero_extendqisi2
 349 0060 1846     		mov	r0, r3
 350 0062 FFF7FEFF 		bl	CapSense_CSD_BaseInit
 351              		.loc 1 354 0
 352 0066 7B79     		ldrb	r3, [r7, #5]
 353 0068 03F10103 		add	r3, r3, #1
 354 006c 7B71     		strb	r3, [r7, #5]
 355              	.L13:
 356 006e 7B79     		ldrb	r3, [r7, #5]	@ zero_extendqisi2
 357 0070 062B     		cmp	r3, #6
 358 0072 D3D9     		bls	.L15
 367:.\Generated_Source\PSoC5/CapSense_CSD_CSHL.c ****     }
 368:.\Generated_Source\PSoC5/CapSense_CSD_CSHL.c **** }  
 359              		.loc 1 368 0
 360 0074 07F10807 		add	r7, r7, #8
 361 0078 BD46     		mov	sp, r7
 362 007a 80BD     		pop	{r7, pc}
 363              		.cfi_endproc
 364              	.LFE3:
ARM GAS  C:\Users\yguan5\AppData\Local\Temp\ccX3ogeL.s 			page 14


 365              		.size	CapSense_CSD_InitializeEnabledBaselines, .-CapSense_CSD_InitializeEnabledBaselines
 366              		.section	.text.CapSense_CSD_UpdateSensorBaseline,"ax",%progbits
 367              		.align	2
 368              		.global	CapSense_CSD_UpdateSensorBaseline
 369              		.thumb
 370              		.thumb_func
 371              		.type	CapSense_CSD_UpdateSensorBaseline, %function
 372              	CapSense_CSD_UpdateSensorBaseline:
 373              	.LFB4:
 369:.\Generated_Source\PSoC5/CapSense_CSD_CSHL.c **** 
 370:.\Generated_Source\PSoC5/CapSense_CSD_CSHL.c **** 
 371:.\Generated_Source\PSoC5/CapSense_CSD_CSHL.c **** /*******************************************************************************
 372:.\Generated_Source\PSoC5/CapSense_CSD_CSHL.c **** * Function Name: CapSense_CSD_UpdateSensorBaseline
 373:.\Generated_Source\PSoC5/CapSense_CSD_CSHL.c **** ********************************************************************************
 374:.\Generated_Source\PSoC5/CapSense_CSD_CSHL.c **** *
 375:.\Generated_Source\PSoC5/CapSense_CSD_CSHL.c **** * Summary:
 376:.\Generated_Source\PSoC5/CapSense_CSD_CSHL.c **** *  Updates the CapSense_CSD_SensorBaseline[sensor] array element using the 
 377:.\Generated_Source\PSoC5/CapSense_CSD_CSHL.c **** *  LP filter with k = 256. The signal calculates the difference of count by 
 378:.\Generated_Source\PSoC5/CapSense_CSD_CSHL.c **** *  subtracting the previous baseline from the current raw count value and stores
 379:.\Generated_Source\PSoC5/CapSense_CSD_CSHL.c **** *  it in CapSense_CSD_SensorSignal[sensor]. 
 380:.\Generated_Source\PSoC5/CapSense_CSD_CSHL.c **** *  If auto reset option is enabled the baseline updated regards noise threshold. 
 381:.\Generated_Source\PSoC5/CapSense_CSD_CSHL.c **** *  If auto reset option is disabled the baseline stops updating if signal is 
 382:.\Generated_Source\PSoC5/CapSense_CSD_CSHL.c **** *  greater that zero and baseline loads with raw count value if signal is less 
 383:.\Generated_Source\PSoC5/CapSense_CSD_CSHL.c **** *  that noise threshold.
 384:.\Generated_Source\PSoC5/CapSense_CSD_CSHL.c **** *  Raw data filters are applied to the values if enabled before baseline 
 385:.\Generated_Source\PSoC5/CapSense_CSD_CSHL.c **** *  calculation.
 386:.\Generated_Source\PSoC5/CapSense_CSD_CSHL.c **** *
 387:.\Generated_Source\PSoC5/CapSense_CSD_CSHL.c **** * Parameters:
 388:.\Generated_Source\PSoC5/CapSense_CSD_CSHL.c **** *  sensor:  Sensor number.
 389:.\Generated_Source\PSoC5/CapSense_CSD_CSHL.c **** *
 390:.\Generated_Source\PSoC5/CapSense_CSD_CSHL.c **** * Return:
 391:.\Generated_Source\PSoC5/CapSense_CSD_CSHL.c **** *  None
 392:.\Generated_Source\PSoC5/CapSense_CSD_CSHL.c **** *
 393:.\Generated_Source\PSoC5/CapSense_CSD_CSHL.c **** * Global Variables:
 394:.\Generated_Source\PSoC5/CapSense_CSD_CSHL.c **** *  CapSense_CSD_SensorBaseline[]    - used to store baseline value.
 395:.\Generated_Source\PSoC5/CapSense_CSD_CSHL.c **** *  CapSense_CSD_SensorBaselineLow[] - used to store fraction byte of 
 396:.\Generated_Source\PSoC5/CapSense_CSD_CSHL.c **** *  baseline value.
 397:.\Generated_Source\PSoC5/CapSense_CSD_CSHL.c **** *  CapSense_CSD_SensorSignal[]      - used to store diffence between 
 398:.\Generated_Source\PSoC5/CapSense_CSD_CSHL.c **** *  current value of raw data and previous value of baseline.
 399:.\Generated_Source\PSoC5/CapSense_CSD_CSHL.c **** *  CapSense_CSD_rawFilterData1[]    - used to store previous sample of 
 400:.\Generated_Source\PSoC5/CapSense_CSD_CSHL.c **** *  any enabled raw data filter.
 401:.\Generated_Source\PSoC5/CapSense_CSD_CSHL.c **** *  CapSense_CSD_rawFilterData2[]    - used to store before previous sample
 402:.\Generated_Source\PSoC5/CapSense_CSD_CSHL.c **** *  of enabled raw data filter. Only required for median or average filters.
 403:.\Generated_Source\PSoC5/CapSense_CSD_CSHL.c **** *
 404:.\Generated_Source\PSoC5/CapSense_CSD_CSHL.c **** * Reentrant:
 405:.\Generated_Source\PSoC5/CapSense_CSD_CSHL.c **** *  No
 406:.\Generated_Source\PSoC5/CapSense_CSD_CSHL.c **** *
 407:.\Generated_Source\PSoC5/CapSense_CSD_CSHL.c **** *******************************************************************************/
 408:.\Generated_Source\PSoC5/CapSense_CSD_CSHL.c ****  void CapSense_CSD_UpdateSensorBaseline(uint8 sensor)
 409:.\Generated_Source\PSoC5/CapSense_CSD_CSHL.c ****                                  
 410:.\Generated_Source\PSoC5/CapSense_CSD_CSHL.c **** {
 374              		.loc 1 410 0
 375              		.cfi_startproc
 376              		@ args = 0, pretend = 0, frame = 24
 377              		@ frame_needed = 1, uses_anonymous_args = 0
 378 0000 80B5     		push	{r7, lr}
 379              	.LCFI12:
ARM GAS  C:\Users\yguan5\AppData\Local\Temp\ccX3ogeL.s 			page 15


 380              		.cfi_def_cfa_offset 8
 381 0002 86B0     		sub	sp, sp, #24
 382              	.LCFI13:
 383              		.cfi_def_cfa_offset 32
 384 0004 00AF     		add	r7, sp, #0
 385              		.cfi_offset 14, -4
 386              		.cfi_offset 7, -8
 387              	.LCFI14:
 388              		.cfi_def_cfa_register 7
 389 0006 0346     		mov	r3, r0
 390 0008 FB71     		strb	r3, [r7, #7]
 411:.\Generated_Source\PSoC5/CapSense_CSD_CSHL.c ****     uint32 calc;
 412:.\Generated_Source\PSoC5/CapSense_CSD_CSHL.c ****     uint16 tempRaw;
 413:.\Generated_Source\PSoC5/CapSense_CSD_CSHL.c ****     uint16 filteredRawData;
 414:.\Generated_Source\PSoC5/CapSense_CSD_CSHL.c ****     uint8 widget = CapSense_CSD_widgetNumber[sensor];
 391              		.loc 1 414 0
 392 000a FA79     		ldrb	r2, [r7, #7]	@ zero_extendqisi2
 393 000c 40F20003 		movw	r3, #:lower16:CapSense_CSD_widgetNumber
 394 0010 C0F20003 		movt	r3, #:upper16:CapSense_CSD_widgetNumber
 395 0014 9B5C     		ldrb	r3, [r3, r2]
 396 0016 BB75     		strb	r3, [r7, #22]
 415:.\Generated_Source\PSoC5/CapSense_CSD_CSHL.c ****     uint8 noiseThreshold = CapSense_CSD_noiseThreshold[widget];
 397              		.loc 1 415 0
 398 0018 BA7D     		ldrb	r2, [r7, #22]	@ zero_extendqisi2
 399 001a 40F20003 		movw	r3, #:lower16:CapSense_CSD_noiseThreshold
 400 001e C0F20003 		movt	r3, #:upper16:CapSense_CSD_noiseThreshold
 401 0022 9B5C     		ldrb	r3, [r3, r2]
 402 0024 FB75     		strb	r3, [r7, #23]
 416:.\Generated_Source\PSoC5/CapSense_CSD_CSHL.c ****     
 417:.\Generated_Source\PSoC5/CapSense_CSD_CSHL.c ****     #if (CapSense_CSD_TOTAL_GENERICS_COUNT)
 418:.\Generated_Source\PSoC5/CapSense_CSD_CSHL.c ****         /* Exclude generic widget */
 419:.\Generated_Source\PSoC5/CapSense_CSD_CSHL.c ****         if(widget < CapSense_CSD_END_OF_WIDGETS_INDEX)
 420:.\Generated_Source\PSoC5/CapSense_CSD_CSHL.c ****         {
 421:.\Generated_Source\PSoC5/CapSense_CSD_CSHL.c ****     #endif  /* CapSense_CSD_TOTAL_GENERICS_COUNT */
 422:.\Generated_Source\PSoC5/CapSense_CSD_CSHL.c ****     
 423:.\Generated_Source\PSoC5/CapSense_CSD_CSHL.c ****     filteredRawData = CapSense_CSD_SensorRaw[sensor];
 403              		.loc 1 423 0
 404 0026 FA79     		ldrb	r2, [r7, #7]	@ zero_extendqisi2
 405 0028 40F20003 		movw	r3, #:lower16:CapSense_CSD_SensorRaw
 406 002c C0F20003 		movt	r3, #:upper16:CapSense_CSD_SensorRaw
 407 0030 33F81230 		ldrh	r3, [r3, r2, lsl #1]	@ movhi
 408 0034 BB82     		strh	r3, [r7, #20]	@ movhi
 424:.\Generated_Source\PSoC5/CapSense_CSD_CSHL.c ****     
 425:.\Generated_Source\PSoC5/CapSense_CSD_CSHL.c ****     #if (CapSense_CSD_RAW_FILTER_MASK & CapSense_CSD_MEDIAN_FILTER)
 426:.\Generated_Source\PSoC5/CapSense_CSD_CSHL.c ****         tempRaw = filteredRawData;
 427:.\Generated_Source\PSoC5/CapSense_CSD_CSHL.c ****         filteredRawData = CapSense_CSD_MedianFilter(filteredRawData, CapSense_CSD_rawFilterData1[se
 428:.\Generated_Source\PSoC5/CapSense_CSD_CSHL.c ****                                                         CapSense_CSD_rawFilterData2[sensor]);
 429:.\Generated_Source\PSoC5/CapSense_CSD_CSHL.c ****         CapSense_CSD_rawFilterData2[sensor] = CapSense_CSD_rawFilterData1[sensor];
 430:.\Generated_Source\PSoC5/CapSense_CSD_CSHL.c ****         CapSense_CSD_rawFilterData1[sensor] = tempRaw;
 431:.\Generated_Source\PSoC5/CapSense_CSD_CSHL.c ****         
 432:.\Generated_Source\PSoC5/CapSense_CSD_CSHL.c ****     #elif (CapSense_CSD_RAW_FILTER_MASK & CapSense_CSD_AVERAGING_FILTER)
 433:.\Generated_Source\PSoC5/CapSense_CSD_CSHL.c ****         tempRaw = filteredRawData;
 434:.\Generated_Source\PSoC5/CapSense_CSD_CSHL.c ****         filteredRawData = CapSense_CSD_AveragingFilter(filteredRawData, CapSense_CSD_rawFilterData1
 435:.\Generated_Source\PSoC5/CapSense_CSD_CSHL.c ****                                                            CapSense_CSD_rawFilterData2[sensor]);
 436:.\Generated_Source\PSoC5/CapSense_CSD_CSHL.c ****         CapSense_CSD_rawFilterData2[sensor] = CapSense_CSD_rawFilterData1[sensor];
 437:.\Generated_Source\PSoC5/CapSense_CSD_CSHL.c ****         CapSense_CSD_rawFilterData1[sensor] = tempRaw;
 438:.\Generated_Source\PSoC5/CapSense_CSD_CSHL.c ****         
ARM GAS  C:\Users\yguan5\AppData\Local\Temp\ccX3ogeL.s 			page 16


 439:.\Generated_Source\PSoC5/CapSense_CSD_CSHL.c ****     #elif (CapSense_CSD_RAW_FILTER_MASK & CapSense_CSD_IIR2_FILTER)
 440:.\Generated_Source\PSoC5/CapSense_CSD_CSHL.c ****         filteredRawData = CapSense_CSD_IIR2Filter(filteredRawData, CapSense_CSD_rawFilterData1[sens
 441:.\Generated_Source\PSoC5/CapSense_CSD_CSHL.c ****         CapSense_CSD_rawFilterData1[sensor] = filteredRawData;
 442:.\Generated_Source\PSoC5/CapSense_CSD_CSHL.c ****         
 443:.\Generated_Source\PSoC5/CapSense_CSD_CSHL.c ****     #elif (CapSense_CSD_RAW_FILTER_MASK & CapSense_CSD_IIR4_FILTER)
 444:.\Generated_Source\PSoC5/CapSense_CSD_CSHL.c ****         filteredRawData = CapSense_CSD_IIR4Filter(filteredRawData, CapSense_CSD_rawFilterData1[sens
 445:.\Generated_Source\PSoC5/CapSense_CSD_CSHL.c ****         CapSense_CSD_rawFilterData1[sensor] = filteredRawData;
 446:.\Generated_Source\PSoC5/CapSense_CSD_CSHL.c ****             
 447:.\Generated_Source\PSoC5/CapSense_CSD_CSHL.c ****     #elif (CapSense_CSD_RAW_FILTER_MASK & CapSense_CSD_JITTER_FILTER)
 448:.\Generated_Source\PSoC5/CapSense_CSD_CSHL.c ****         filteredRawData = CapSense_CSD_JitterFilter(filteredRawData, CapSense_CSD_rawFilterData1[se
 449:.\Generated_Source\PSoC5/CapSense_CSD_CSHL.c ****         CapSense_CSD_rawFilterData1[sensor] = filteredRawData;
 450:.\Generated_Source\PSoC5/CapSense_CSD_CSHL.c ****         
 451:.\Generated_Source\PSoC5/CapSense_CSD_CSHL.c ****     #elif (CapSense_CSD_RAW_FILTER_MASK & CapSense_CSD_IIR8_FILTER)
 452:.\Generated_Source\PSoC5/CapSense_CSD_CSHL.c ****         filteredRawData = CapSense_CSD_IIR8Filter(filteredRawData, CapSense_CSD_rawFilterData1[sens
 453:.\Generated_Source\PSoC5/CapSense_CSD_CSHL.c ****         CapSense_CSD_rawFilterData1[sensor] = filteredRawData;
 454:.\Generated_Source\PSoC5/CapSense_CSD_CSHL.c ****         
 455:.\Generated_Source\PSoC5/CapSense_CSD_CSHL.c ****     #elif (CapSense_CSD_RAW_FILTER_MASK & CapSense_CSD_IIR16_FILTER)
 456:.\Generated_Source\PSoC5/CapSense_CSD_CSHL.c ****         filteredRawData = CapSense_CSD_IIR16Filter(filteredRawData, CapSense_CSD_rawFilterData1[sen
 457:.\Generated_Source\PSoC5/CapSense_CSD_CSHL.c ****         CapSense_CSD_rawFilterData1[sensor] = filteredRawData;
 458:.\Generated_Source\PSoC5/CapSense_CSD_CSHL.c ****         
 459:.\Generated_Source\PSoC5/CapSense_CSD_CSHL.c ****     #else
 460:.\Generated_Source\PSoC5/CapSense_CSD_CSHL.c ****         /* No Raw filters */
 461:.\Generated_Source\PSoC5/CapSense_CSD_CSHL.c ****     #endif  /* (CapSense_CSD_RAW_FILTER_MASK & CapSense_CSD_MEDIAN_FILTER) */
 462:.\Generated_Source\PSoC5/CapSense_CSD_CSHL.c ****     
 463:.\Generated_Source\PSoC5/CapSense_CSD_CSHL.c ****     #if (CapSense_CSD_TUNING_METHOD == CapSense_CSD_AUTO_TUNING)
 464:.\Generated_Source\PSoC5/CapSense_CSD_CSHL.c ****         CapSense_CSD_CalculateThresholds(sensor);
 465:.\Generated_Source\PSoC5/CapSense_CSD_CSHL.c ****     #endif /* (CapSense_CSD_TUNING_METHOD == CapSense_CSD_AUTO_TUNING) */
 466:.\Generated_Source\PSoC5/CapSense_CSD_CSHL.c **** 
 467:.\Generated_Source\PSoC5/CapSense_CSD_CSHL.c **** 
 468:.\Generated_Source\PSoC5/CapSense_CSD_CSHL.c ****     /* Baseline calculation */
 469:.\Generated_Source\PSoC5/CapSense_CSD_CSHL.c ****     /* Calculate difference RawData[cur] - Baseline[prev] */
 470:.\Generated_Source\PSoC5/CapSense_CSD_CSHL.c ****     if(filteredRawData >= CapSense_CSD_SensorBaseline[sensor])
 409              		.loc 1 470 0
 410 0036 FA79     		ldrb	r2, [r7, #7]	@ zero_extendqisi2
 411 0038 40F20003 		movw	r3, #:lower16:CapSense_CSD_SensorBaseline
 412 003c C0F20003 		movt	r3, #:upper16:CapSense_CSD_SensorBaseline
 413 0040 33F81230 		ldrh	r3, [r3, r2, lsl #1]
 414 0044 BA8A     		ldrh	r2, [r7, #20]
 415 0046 9A42     		cmp	r2, r3
 416 0048 0ED3     		bcc	.L18
 471:.\Generated_Source\PSoC5/CapSense_CSD_CSHL.c ****     {
 472:.\Generated_Source\PSoC5/CapSense_CSD_CSHL.c ****         tempRaw = filteredRawData - CapSense_CSD_SensorBaseline[sensor];
 417              		.loc 1 472 0
 418 004a FA79     		ldrb	r2, [r7, #7]	@ zero_extendqisi2
 419 004c 40F20003 		movw	r3, #:lower16:CapSense_CSD_SensorBaseline
 420 0050 C0F20003 		movt	r3, #:upper16:CapSense_CSD_SensorBaseline
 421 0054 33F81230 		ldrh	r3, [r3, r2, lsl #1]
 422 0058 BA8A     		ldrh	r2, [r7, #20]	@ movhi
 423 005a C3EB0203 		rsb	r3, r3, r2
 424 005e 7B82     		strh	r3, [r7, #18]	@ movhi
 473:.\Generated_Source\PSoC5/CapSense_CSD_CSHL.c ****         widget = 1u;    /* Positive difference - Calculate the Signal */
 425              		.loc 1 473 0
 426 0060 4FF00103 		mov	r3, #1
 427 0064 BB75     		strb	r3, [r7, #22]
 428 0066 0DE0     		b	.L19
 429              	.L18:
 474:.\Generated_Source\PSoC5/CapSense_CSD_CSHL.c ****     }
ARM GAS  C:\Users\yguan5\AppData\Local\Temp\ccX3ogeL.s 			page 17


 475:.\Generated_Source\PSoC5/CapSense_CSD_CSHL.c ****     else
 476:.\Generated_Source\PSoC5/CapSense_CSD_CSHL.c ****     {
 477:.\Generated_Source\PSoC5/CapSense_CSD_CSHL.c ****         tempRaw = CapSense_CSD_SensorBaseline[sensor] - filteredRawData;
 430              		.loc 1 477 0
 431 0068 FA79     		ldrb	r2, [r7, #7]	@ zero_extendqisi2
 432 006a 40F20003 		movw	r3, #:lower16:CapSense_CSD_SensorBaseline
 433 006e C0F20003 		movt	r3, #:upper16:CapSense_CSD_SensorBaseline
 434 0072 33F81220 		ldrh	r2, [r3, r2, lsl #1]
 435 0076 BB8A     		ldrh	r3, [r7, #20]	@ movhi
 436 0078 C3EB0203 		rsb	r3, r3, r2
 437 007c 7B82     		strh	r3, [r7, #18]	@ movhi
 478:.\Generated_Source\PSoC5/CapSense_CSD_CSHL.c ****         widget = 0u;    /* Negative difference - Do NOT calculate the Signal */
 438              		.loc 1 478 0
 439 007e 4FF00003 		mov	r3, #0
 440 0082 BB75     		strb	r3, [r7, #22]
 441              	.L19:
 479:.\Generated_Source\PSoC5/CapSense_CSD_CSHL.c ****     }
 480:.\Generated_Source\PSoC5/CapSense_CSD_CSHL.c **** 
 481:.\Generated_Source\PSoC5/CapSense_CSD_CSHL.c ****     if((widget == 0u) && (tempRaw > (uint16) CapSense_CSD_NEGATIVE_NOISE_THRESHOLD))
 442              		.loc 1 481 0
 443 0084 BB7D     		ldrb	r3, [r7, #22]	@ zero_extendqisi2
 444 0086 002B     		cmp	r3, #0
 445 0088 26D1     		bne	.L20
 446 008a 7B8A     		ldrh	r3, [r7, #18]
 447 008c 142B     		cmp	r3, #20
 448 008e 23D9     		bls	.L20
 482:.\Generated_Source\PSoC5/CapSense_CSD_CSHL.c ****     {
 483:.\Generated_Source\PSoC5/CapSense_CSD_CSHL.c ****         if(CapSense_CSD_LowBaselineResetCnt[sensor] >= CapSense_CSD_LOW_BASELINE_RESET)
 449              		.loc 1 483 0
 450 0090 FA79     		ldrb	r2, [r7, #7]	@ zero_extendqisi2
 451 0092 40F20003 		movw	r3, #:lower16:CapSense_CSD_LowBaselineResetCnt
 452 0096 C0F20003 		movt	r3, #:upper16:CapSense_CSD_LowBaselineResetCnt
 453 009a 9B5C     		ldrb	r3, [r3, r2]	@ zero_extendqisi2
 454 009c 042B     		cmp	r3, #4
 455 009e 0CD9     		bls	.L21
 484:.\Generated_Source\PSoC5/CapSense_CSD_CSHL.c ****         {
 485:.\Generated_Source\PSoC5/CapSense_CSD_CSHL.c ****             CapSense_CSD_BaseInit(sensor);
 456              		.loc 1 485 0
 457 00a0 FB79     		ldrb	r3, [r7, #7]	@ zero_extendqisi2
 458 00a2 1846     		mov	r0, r3
 459 00a4 FFF7FEFF 		bl	CapSense_CSD_BaseInit
 486:.\Generated_Source\PSoC5/CapSense_CSD_CSHL.c ****             CapSense_CSD_LowBaselineResetCnt[sensor] = 0;
 460              		.loc 1 486 0
 461 00a8 FA79     		ldrb	r2, [r7, #7]	@ zero_extendqisi2
 462 00aa 40F20003 		movw	r3, #:lower16:CapSense_CSD_LowBaselineResetCnt
 463 00ae C0F20003 		movt	r3, #:upper16:CapSense_CSD_LowBaselineResetCnt
 464 00b2 4FF00001 		mov	r1, #0
 465 00b6 9954     		strb	r1, [r3, r2]
 466              		.loc 1 481 0
 467 00b8 56E0     		b	.L23
 468              	.L21:
 487:.\Generated_Source\PSoC5/CapSense_CSD_CSHL.c ****         }
 488:.\Generated_Source\PSoC5/CapSense_CSD_CSHL.c ****         else
 489:.\Generated_Source\PSoC5/CapSense_CSD_CSHL.c ****         {
 490:.\Generated_Source\PSoC5/CapSense_CSD_CSHL.c ****             CapSense_CSD_LowBaselineResetCnt[sensor]++;
 469              		.loc 1 490 0
 470 00ba FA79     		ldrb	r2, [r7, #7]	@ zero_extendqisi2
ARM GAS  C:\Users\yguan5\AppData\Local\Temp\ccX3ogeL.s 			page 18


 471 00bc 40F20003 		movw	r3, #:lower16:CapSense_CSD_LowBaselineResetCnt
 472 00c0 C0F20003 		movt	r3, #:upper16:CapSense_CSD_LowBaselineResetCnt
 473 00c4 9B5C     		ldrb	r3, [r3, r2]	@ zero_extendqisi2
 474 00c6 03F10103 		add	r3, r3, #1
 475 00ca D9B2     		uxtb	r1, r3
 476 00cc 40F20003 		movw	r3, #:lower16:CapSense_CSD_LowBaselineResetCnt
 477 00d0 C0F20003 		movt	r3, #:upper16:CapSense_CSD_LowBaselineResetCnt
 478 00d4 9954     		strb	r1, [r3, r2]
 479              		.loc 1 481 0
 480 00d6 47E0     		b	.L23
 481              	.L20:
 491:.\Generated_Source\PSoC5/CapSense_CSD_CSHL.c ****         }
 492:.\Generated_Source\PSoC5/CapSense_CSD_CSHL.c ****     }
 493:.\Generated_Source\PSoC5/CapSense_CSD_CSHL.c ****     else
 494:.\Generated_Source\PSoC5/CapSense_CSD_CSHL.c ****     {
 495:.\Generated_Source\PSoC5/CapSense_CSD_CSHL.c ****         #if (CapSense_CSD_AUTO_RESET == CapSense_CSD_AUTO_RESET_DISABLE)
 496:.\Generated_Source\PSoC5/CapSense_CSD_CSHL.c ****             /* Update Baseline if lower that noiseThreshold */
 497:.\Generated_Source\PSoC5/CapSense_CSD_CSHL.c ****             if ( (tempRaw <= (uint16) noiseThreshold) || 
 482              		.loc 1 497 0
 483 00d8 FB7D     		ldrb	r3, [r7, #23]	@ zero_extendqisi2
 484 00da 7A8A     		ldrh	r2, [r7, #18]
 485 00dc 9A42     		cmp	r2, r3
 486 00de 05D9     		bls	.L24
 487 00e0 7B8A     		ldrh	r3, [r7, #18]
 488 00e2 132B     		cmp	r3, #19
 489 00e4 40D8     		bhi	.L23
 490 00e6 BB7D     		ldrb	r3, [r7, #22]	@ zero_extendqisi2
 491 00e8 002B     		cmp	r3, #0
 492 00ea 3DD1     		bne	.L23
 493              	.L24:
 498:.\Generated_Source\PSoC5/CapSense_CSD_CSHL.c ****                  ((tempRaw < (uint16) CapSense_CSD_NEGATIVE_NOISE_THRESHOLD)
 499:.\Generated_Source\PSoC5/CapSense_CSD_CSHL.c ****                    && widget == 0))
 500:.\Generated_Source\PSoC5/CapSense_CSD_CSHL.c ****             {
 501:.\Generated_Source\PSoC5/CapSense_CSD_CSHL.c ****         #endif /* (CapSense_CSD_AUTO_RESET == CapSense_CSD_AUTO_RESET_DISABLE) */
 502:.\Generated_Source\PSoC5/CapSense_CSD_CSHL.c ****                 /* Make full Baseline 23 bits */
 503:.\Generated_Source\PSoC5/CapSense_CSD_CSHL.c ****                 calc = (uint32) CapSense_CSD_SensorBaseline[sensor] << 8u;
 494              		.loc 1 503 0
 495 00ec FA79     		ldrb	r2, [r7, #7]	@ zero_extendqisi2
 496 00ee 40F20003 		movw	r3, #:lower16:CapSense_CSD_SensorBaseline
 497 00f2 C0F20003 		movt	r3, #:upper16:CapSense_CSD_SensorBaseline
 498 00f6 33F81230 		ldrh	r3, [r3, r2, lsl #1]
 499 00fa 4FEA0323 		lsl	r3, r3, #8
 500 00fe FB60     		str	r3, [r7, #12]
 504:.\Generated_Source\PSoC5/CapSense_CSD_CSHL.c ****                 calc |= (uint32) CapSense_CSD_SensorBaselineLow[sensor];
 501              		.loc 1 504 0
 502 0100 FA79     		ldrb	r2, [r7, #7]	@ zero_extendqisi2
 503 0102 40F20003 		movw	r3, #:lower16:CapSense_CSD_SensorBaselineLow
 504 0106 C0F20003 		movt	r3, #:upper16:CapSense_CSD_SensorBaselineLow
 505 010a 9B5C     		ldrb	r3, [r3, r2]	@ zero_extendqisi2
 506 010c FA68     		ldr	r2, [r7, #12]
 507 010e 42EA0303 		orr	r3, r2, r3
 508 0112 FB60     		str	r3, [r7, #12]
 505:.\Generated_Source\PSoC5/CapSense_CSD_CSHL.c **** 
 506:.\Generated_Source\PSoC5/CapSense_CSD_CSHL.c ****                 /* Add Raw Data to Baseline */
 507:.\Generated_Source\PSoC5/CapSense_CSD_CSHL.c ****                 calc += filteredRawData;
 509              		.loc 1 507 0
 510 0114 BB8A     		ldrh	r3, [r7, #20]
ARM GAS  C:\Users\yguan5\AppData\Local\Temp\ccX3ogeL.s 			page 19


 511 0116 FA68     		ldr	r2, [r7, #12]
 512 0118 1344     		add	r3, r2, r3
 513 011a FB60     		str	r3, [r7, #12]
 508:.\Generated_Source\PSoC5/CapSense_CSD_CSHL.c **** 
 509:.\Generated_Source\PSoC5/CapSense_CSD_CSHL.c ****                 /* Sub the high Baseline */
 510:.\Generated_Source\PSoC5/CapSense_CSD_CSHL.c ****                 calc -= CapSense_CSD_SensorBaseline[sensor];
 514              		.loc 1 510 0
 515 011c FA79     		ldrb	r2, [r7, #7]	@ zero_extendqisi2
 516 011e 40F20003 		movw	r3, #:lower16:CapSense_CSD_SensorBaseline
 517 0122 C0F20003 		movt	r3, #:upper16:CapSense_CSD_SensorBaseline
 518 0126 33F81230 		ldrh	r3, [r3, r2, lsl #1]
 519 012a FA68     		ldr	r2, [r7, #12]
 520 012c C3EB0203 		rsb	r3, r3, r2
 521 0130 FB60     		str	r3, [r7, #12]
 511:.\Generated_Source\PSoC5/CapSense_CSD_CSHL.c **** 
 512:.\Generated_Source\PSoC5/CapSense_CSD_CSHL.c ****                 /* Put Baseline and BaselineLow */
 513:.\Generated_Source\PSoC5/CapSense_CSD_CSHL.c ****                 CapSense_CSD_SensorBaseline[sensor] = ((uint16) (calc >> 8u));
 522              		.loc 1 513 0
 523 0132 FA79     		ldrb	r2, [r7, #7]	@ zero_extendqisi2
 524 0134 FB68     		ldr	r3, [r7, #12]
 525 0136 4FEA1323 		lsr	r3, r3, #8
 526 013a 99B2     		uxth	r1, r3
 527 013c 40F20003 		movw	r3, #:lower16:CapSense_CSD_SensorBaseline
 528 0140 C0F20003 		movt	r3, #:upper16:CapSense_CSD_SensorBaseline
 529 0144 23F81210 		strh	r1, [r3, r2, lsl #1]	@ movhi
 514:.\Generated_Source\PSoC5/CapSense_CSD_CSHL.c ****                 CapSense_CSD_SensorBaselineLow[sensor] = ((uint8) calc);
 530              		.loc 1 514 0
 531 0148 FA79     		ldrb	r2, [r7, #7]	@ zero_extendqisi2
 532 014a FB68     		ldr	r3, [r7, #12]
 533 014c D9B2     		uxtb	r1, r3
 534 014e 40F20003 		movw	r3, #:lower16:CapSense_CSD_SensorBaselineLow
 535 0152 C0F20003 		movt	r3, #:upper16:CapSense_CSD_SensorBaselineLow
 536 0156 9954     		strb	r1, [r3, r2]
 515:.\Generated_Source\PSoC5/CapSense_CSD_CSHL.c **** 
 516:.\Generated_Source\PSoC5/CapSense_CSD_CSHL.c ****                 CapSense_CSD_LowBaselineResetCnt[sensor] = 0;
 537              		.loc 1 516 0
 538 0158 FA79     		ldrb	r2, [r7, #7]	@ zero_extendqisi2
 539 015a 40F20003 		movw	r3, #:lower16:CapSense_CSD_LowBaselineResetCnt
 540 015e C0F20003 		movt	r3, #:upper16:CapSense_CSD_LowBaselineResetCnt
 541 0162 4FF00001 		mov	r1, #0
 542 0166 9954     		strb	r1, [r3, r2]
 543              	.L23:
 517:.\Generated_Source\PSoC5/CapSense_CSD_CSHL.c ****         #if (CapSense_CSD_AUTO_RESET == CapSense_CSD_AUTO_RESET_DISABLE)
 518:.\Generated_Source\PSoC5/CapSense_CSD_CSHL.c ****             }
 519:.\Generated_Source\PSoC5/CapSense_CSD_CSHL.c ****         #endif /* (CapSense_CSD_AUTO_RESET == CapSense_CSD_AUTO_RESET_DISABLE) */
 520:.\Generated_Source\PSoC5/CapSense_CSD_CSHL.c ****     }
 521:.\Generated_Source\PSoC5/CapSense_CSD_CSHL.c **** 
 522:.\Generated_Source\PSoC5/CapSense_CSD_CSHL.c ****     /* Calculate Signal if possitive difference > noiseThreshold */
 523:.\Generated_Source\PSoC5/CapSense_CSD_CSHL.c ****     if((tempRaw > (uint16) noiseThreshold) && (widget != 0u))
 544              		.loc 1 523 0
 545 0168 FB7D     		ldrb	r3, [r7, #23]	@ zero_extendqisi2
 546 016a 7A8A     		ldrh	r2, [r7, #18]
 547 016c 9A42     		cmp	r2, r3
 548 016e 17D9     		bls	.L25
 549 0170 BB7D     		ldrb	r3, [r7, #22]	@ zero_extendqisi2
 550 0172 002B     		cmp	r3, #0
 551 0174 14D0     		beq	.L25
ARM GAS  C:\Users\yguan5\AppData\Local\Temp\ccX3ogeL.s 			page 20


 524:.\Generated_Source\PSoC5/CapSense_CSD_CSHL.c ****     {
 525:.\Generated_Source\PSoC5/CapSense_CSD_CSHL.c ****         #if (CapSense_CSD_SIGNAL_SIZE == CapSense_CSD_SIGNAL_SIZE_UINT8)
 526:.\Generated_Source\PSoC5/CapSense_CSD_CSHL.c ****             /* Over flow defence for uint8 */
 527:.\Generated_Source\PSoC5/CapSense_CSD_CSHL.c ****             if (tempRaw > 0xFFu)
 552              		.loc 1 527 0
 553 0176 7B8A     		ldrh	r3, [r7, #18]
 554 0178 FF2B     		cmp	r3, #255
 555 017a 08D9     		bls	.L26
 528:.\Generated_Source\PSoC5/CapSense_CSD_CSHL.c ****             {
 529:.\Generated_Source\PSoC5/CapSense_CSD_CSHL.c ****                 CapSense_CSD_SensorSignal[sensor] = 0xFFu;
 556              		.loc 1 529 0
 557 017c FA79     		ldrb	r2, [r7, #7]	@ zero_extendqisi2
 558 017e 40F20003 		movw	r3, #:lower16:CapSense_CSD_SensorSignal
 559 0182 C0F20003 		movt	r3, #:upper16:CapSense_CSD_SensorSignal
 560 0186 4FF0FF31 		mov	r1, #-1
 561 018a 9954     		strb	r1, [r3, r2]
 562              		.loc 1 523 0
 563 018c 10E0     		b	.L29
 564              	.L26:
 530:.\Generated_Source\PSoC5/CapSense_CSD_CSHL.c ****             }    
 531:.\Generated_Source\PSoC5/CapSense_CSD_CSHL.c ****             else 
 532:.\Generated_Source\PSoC5/CapSense_CSD_CSHL.c ****             {
 533:.\Generated_Source\PSoC5/CapSense_CSD_CSHL.c ****                 CapSense_CSD_SensorSignal[sensor] = ((uint8) tempRaw);
 565              		.loc 1 533 0
 566 018e FA79     		ldrb	r2, [r7, #7]	@ zero_extendqisi2
 567 0190 7B8A     		ldrh	r3, [r7, #18]	@ movhi
 568 0192 D9B2     		uxtb	r1, r3
 569 0194 40F20003 		movw	r3, #:lower16:CapSense_CSD_SensorSignal
 570 0198 C0F20003 		movt	r3, #:upper16:CapSense_CSD_SensorSignal
 571 019c 9954     		strb	r1, [r3, r2]
 572              		.loc 1 523 0
 573 019e 07E0     		b	.L29
 574              	.L25:
 534:.\Generated_Source\PSoC5/CapSense_CSD_CSHL.c ****             }
 535:.\Generated_Source\PSoC5/CapSense_CSD_CSHL.c ****         #else
 536:.\Generated_Source\PSoC5/CapSense_CSD_CSHL.c ****             CapSense_CSD_SensorSignal[sensor] = ((uint16) tempRaw);
 537:.\Generated_Source\PSoC5/CapSense_CSD_CSHL.c ****         #endif  /* (CapSense_CSD_SIGNAL_SIZE == CapSense_CSD_SIGNAL_SIZE_UINT8) */
 538:.\Generated_Source\PSoC5/CapSense_CSD_CSHL.c ****     }
 539:.\Generated_Source\PSoC5/CapSense_CSD_CSHL.c ****     else
 540:.\Generated_Source\PSoC5/CapSense_CSD_CSHL.c ****     {
 541:.\Generated_Source\PSoC5/CapSense_CSD_CSHL.c ****         /* Signal is zero */
 542:.\Generated_Source\PSoC5/CapSense_CSD_CSHL.c ****         CapSense_CSD_SensorSignal[sensor] = 0u;
 575              		.loc 1 542 0
 576 01a0 FA79     		ldrb	r2, [r7, #7]	@ zero_extendqisi2
 577 01a2 40F20003 		movw	r3, #:lower16:CapSense_CSD_SensorSignal
 578 01a6 C0F20003 		movt	r3, #:upper16:CapSense_CSD_SensorSignal
 579 01aa 4FF00001 		mov	r1, #0
 580 01ae 9954     		strb	r1, [r3, r2]
 581              	.L29:
 543:.\Generated_Source\PSoC5/CapSense_CSD_CSHL.c ****     }
 544:.\Generated_Source\PSoC5/CapSense_CSD_CSHL.c **** 
 545:.\Generated_Source\PSoC5/CapSense_CSD_CSHL.c ****     #if (CapSense_CSD_TOTAL_GENERICS_COUNT)
 546:.\Generated_Source\PSoC5/CapSense_CSD_CSHL.c ****         /* Exclude generic widget */
 547:.\Generated_Source\PSoC5/CapSense_CSD_CSHL.c ****         }
 548:.\Generated_Source\PSoC5/CapSense_CSD_CSHL.c ****     #endif  /* CapSense_CSD_TOTAL_GENERICS_COUNT */
 549:.\Generated_Source\PSoC5/CapSense_CSD_CSHL.c **** }
 582              		.loc 1 549 0
ARM GAS  C:\Users\yguan5\AppData\Local\Temp\ccX3ogeL.s 			page 21


 583 01b0 07F11807 		add	r7, r7, #24
 584 01b4 BD46     		mov	sp, r7
 585 01b6 80BD     		pop	{r7, pc}
 586              		.cfi_endproc
 587              	.LFE4:
 588              		.size	CapSense_CSD_UpdateSensorBaseline, .-CapSense_CSD_UpdateSensorBaseline
 589              		.section	.text.CapSense_CSD_UpdateEnabledBaselines,"ax",%progbits
 590              		.align	2
 591              		.global	CapSense_CSD_UpdateEnabledBaselines
 592              		.thumb
 593              		.thumb_func
 594              		.type	CapSense_CSD_UpdateEnabledBaselines, %function
 595              	CapSense_CSD_UpdateEnabledBaselines:
 596              	.LFB5:
 550:.\Generated_Source\PSoC5/CapSense_CSD_CSHL.c **** 
 551:.\Generated_Source\PSoC5/CapSense_CSD_CSHL.c **** 
 552:.\Generated_Source\PSoC5/CapSense_CSD_CSHL.c **** /*******************************************************************************
 553:.\Generated_Source\PSoC5/CapSense_CSD_CSHL.c **** * Function Name: CapSense_CSD_UpdateEnabledBaselines
 554:.\Generated_Source\PSoC5/CapSense_CSD_CSHL.c **** ********************************************************************************
 555:.\Generated_Source\PSoC5/CapSense_CSD_CSHL.c **** *
 556:.\Generated_Source\PSoC5/CapSense_CSD_CSHL.c **** * Summary:
 557:.\Generated_Source\PSoC5/CapSense_CSD_CSHL.c **** *  Checks CapSense_CSD_SensorEnableMask[] array and calls the 
 558:.\Generated_Source\PSoC5/CapSense_CSD_CSHL.c **** *  CapSense_CSD_UpdateSensorBaseline function to update the baselines 
 559:.\Generated_Source\PSoC5/CapSense_CSD_CSHL.c **** *  for enabled sensors.
 560:.\Generated_Source\PSoC5/CapSense_CSD_CSHL.c **** *
 561:.\Generated_Source\PSoC5/CapSense_CSD_CSHL.c **** * Parameters:
 562:.\Generated_Source\PSoC5/CapSense_CSD_CSHL.c **** *  None
 563:.\Generated_Source\PSoC5/CapSense_CSD_CSHL.c **** *
 564:.\Generated_Source\PSoC5/CapSense_CSD_CSHL.c **** * Return:
 565:.\Generated_Source\PSoC5/CapSense_CSD_CSHL.c **** *  None
 566:.\Generated_Source\PSoC5/CapSense_CSD_CSHL.c **** *
 567:.\Generated_Source\PSoC5/CapSense_CSD_CSHL.c **** * Global Variables:
 568:.\Generated_Source\PSoC5/CapSense_CSD_CSHL.c **** *  CapSense_CSD_SensorEnableMask[] - used to store the sensor scanning 
 569:.\Generated_Source\PSoC5/CapSense_CSD_CSHL.c **** *  state.
 570:.\Generated_Source\PSoC5/CapSense_CSD_CSHL.c **** *  CapSense_CSD_SensorEnableMask[0] contains the masked bits for sensors 
 571:.\Generated_Source\PSoC5/CapSense_CSD_CSHL.c **** *   0 through 7 (sensor 0 is bit 0, sensor 1 is bit 1).
 572:.\Generated_Source\PSoC5/CapSense_CSD_CSHL.c **** *  CapSense_CSD_SensorEnableMask[1] contains the masked bits for 
 573:.\Generated_Source\PSoC5/CapSense_CSD_CSHL.c **** *  sensors 8 through 15 (if needed), and so on.
 574:.\Generated_Source\PSoC5/CapSense_CSD_CSHL.c **** *  0 - sensor doesn't scan by CapSense_CSD_ScanEnabledWidgets().
 575:.\Generated_Source\PSoC5/CapSense_CSD_CSHL.c **** *  1 - sensor scans by CapSense_CSD_ScanEnabledWidgets().
 576:.\Generated_Source\PSoC5/CapSense_CSD_CSHL.c **** *
 577:.\Generated_Source\PSoC5/CapSense_CSD_CSHL.c **** * Reentrant:
 578:.\Generated_Source\PSoC5/CapSense_CSD_CSHL.c **** *  No
 579:.\Generated_Source\PSoC5/CapSense_CSD_CSHL.c **** *
 580:.\Generated_Source\PSoC5/CapSense_CSD_CSHL.c **** *******************************************************************************/
 581:.\Generated_Source\PSoC5/CapSense_CSD_CSHL.c ****  void CapSense_CSD_UpdateEnabledBaselines(void)
 582:.\Generated_Source\PSoC5/CapSense_CSD_CSHL.c ****                                  
 583:.\Generated_Source\PSoC5/CapSense_CSD_CSHL.c **** {
 597              		.loc 1 583 0
 598              		.cfi_startproc
 599              		@ args = 0, pretend = 0, frame = 8
 600              		@ frame_needed = 1, uses_anonymous_args = 0
 601 0000 80B5     		push	{r7, lr}
 602              	.LCFI15:
 603              		.cfi_def_cfa_offset 8
 604 0002 82B0     		sub	sp, sp, #8
 605              	.LCFI16:
ARM GAS  C:\Users\yguan5\AppData\Local\Temp\ccX3ogeL.s 			page 22


 606              		.cfi_def_cfa_offset 16
 607 0004 00AF     		add	r7, sp, #0
 608              		.cfi_offset 14, -4
 609              		.cfi_offset 7, -8
 610              	.LCFI17:
 611              		.cfi_def_cfa_register 7
 584:.\Generated_Source\PSoC5/CapSense_CSD_CSHL.c ****     uint8 i;
 585:.\Generated_Source\PSoC5/CapSense_CSD_CSHL.c ****     uint8 pos;
 586:.\Generated_Source\PSoC5/CapSense_CSD_CSHL.c ****     uint8 enMask;
 587:.\Generated_Source\PSoC5/CapSense_CSD_CSHL.c ****     
 588:.\Generated_Source\PSoC5/CapSense_CSD_CSHL.c ****     for(i = 0; i < CapSense_CSD_TOTAL_SENSOR_COUNT; i++)
 612              		.loc 1 588 0
 613 0006 4FF00003 		mov	r3, #0
 614 000a 7B71     		strb	r3, [r7, #5]
 615 000c 1FE0     		b	.L31
 616              	.L33:
 589:.\Generated_Source\PSoC5/CapSense_CSD_CSHL.c ****     {
 590:.\Generated_Source\PSoC5/CapSense_CSD_CSHL.c ****         pos = (i >> 3u);
 617              		.loc 1 590 0
 618 000e 7B79     		ldrb	r3, [r7, #5]	@ zero_extendqisi2
 619 0010 4FEAD303 		lsr	r3, r3, #3
 620 0014 BB71     		strb	r3, [r7, #6]
 591:.\Generated_Source\PSoC5/CapSense_CSD_CSHL.c ****         enMask = 0x01u << (i & 0x07u);
 621              		.loc 1 591 0
 622 0016 7B79     		ldrb	r3, [r7, #5]	@ zero_extendqisi2
 623 0018 03F00703 		and	r3, r3, #7
 624 001c 4FF00102 		mov	r2, #1
 625 0020 02FA03F3 		lsl	r3, r2, r3
 626 0024 FB71     		strb	r3, [r7, #7]
 592:.\Generated_Source\PSoC5/CapSense_CSD_CSHL.c ****         if((CapSense_CSD_SensorEnableMask[pos] & enMask) != 0u)
 627              		.loc 1 592 0
 628 0026 BA79     		ldrb	r2, [r7, #6]	@ zero_extendqisi2
 629 0028 40F20003 		movw	r3, #:lower16:CapSense_CSD_SensorEnableMask
 630 002c C0F20003 		movt	r3, #:upper16:CapSense_CSD_SensorEnableMask
 631 0030 9A5C     		ldrb	r2, [r3, r2]	@ zero_extendqisi2
 632 0032 FB79     		ldrb	r3, [r7, #7]
 633 0034 02EA0303 		and	r3, r2, r3
 634 0038 DBB2     		uxtb	r3, r3
 635 003a 002B     		cmp	r3, #0
 636 003c 03D0     		beq	.L32
 593:.\Generated_Source\PSoC5/CapSense_CSD_CSHL.c ****         {
 594:.\Generated_Source\PSoC5/CapSense_CSD_CSHL.c ****             CapSense_CSD_UpdateSensorBaseline(i);
 637              		.loc 1 594 0
 638 003e 7B79     		ldrb	r3, [r7, #5]	@ zero_extendqisi2
 639 0040 1846     		mov	r0, r3
 640 0042 FFF7FEFF 		bl	CapSense_CSD_UpdateSensorBaseline
 641              	.L32:
 642              		.loc 1 588 0
 643 0046 7B79     		ldrb	r3, [r7, #5]
 644 0048 03F10103 		add	r3, r3, #1
 645 004c 7B71     		strb	r3, [r7, #5]
 646              	.L31:
 647 004e 7B79     		ldrb	r3, [r7, #5]	@ zero_extendqisi2
 648 0050 062B     		cmp	r3, #6
 649 0052 DCD9     		bls	.L33
 595:.\Generated_Source\PSoC5/CapSense_CSD_CSHL.c ****         }
 596:.\Generated_Source\PSoC5/CapSense_CSD_CSHL.c ****     }
ARM GAS  C:\Users\yguan5\AppData\Local\Temp\ccX3ogeL.s 			page 23


 597:.\Generated_Source\PSoC5/CapSense_CSD_CSHL.c **** }
 650              		.loc 1 597 0
 651 0054 07F10807 		add	r7, r7, #8
 652 0058 BD46     		mov	sp, r7
 653 005a 80BD     		pop	{r7, pc}
 654              		.cfi_endproc
 655              	.LFE5:
 656              		.size	CapSense_CSD_UpdateEnabledBaselines, .-CapSense_CSD_UpdateEnabledBaselines
 657              		.section	.text.CapSense_CSD_CheckIsSensorActive,"ax",%progbits
 658              		.align	2
 659              		.global	CapSense_CSD_CheckIsSensorActive
 660              		.thumb
 661              		.thumb_func
 662              		.type	CapSense_CSD_CheckIsSensorActive, %function
 663              	CapSense_CSD_CheckIsSensorActive:
 664              	.LFB6:
 598:.\Generated_Source\PSoC5/CapSense_CSD_CSHL.c **** 
 599:.\Generated_Source\PSoC5/CapSense_CSD_CSHL.c **** 
 600:.\Generated_Source\PSoC5/CapSense_CSD_CSHL.c **** /*******************************************************************************
 601:.\Generated_Source\PSoC5/CapSense_CSD_CSHL.c **** * Function Name: CapSense_CSD_CheckIsSensorActive
 602:.\Generated_Source\PSoC5/CapSense_CSD_CSHL.c **** ********************************************************************************
 603:.\Generated_Source\PSoC5/CapSense_CSD_CSHL.c **** *
 604:.\Generated_Source\PSoC5/CapSense_CSD_CSHL.c **** * Summary:
 605:.\Generated_Source\PSoC5/CapSense_CSD_CSHL.c **** *  Compares the CapSense_CSD_SensorSignal[sensor] array element to finger
 606:.\Generated_Source\PSoC5/CapSense_CSD_CSHL.c **** *  threshold of widget it belongs to. The hysteresis and debounce are taken into 
 607:.\Generated_Source\PSoC5/CapSense_CSD_CSHL.c **** *  account. The hysteresis is added or subtracted from the finger threshold 
 608:.\Generated_Source\PSoC5/CapSense_CSD_CSHL.c **** *  based on whether the sensor is currently active. 
 609:.\Generated_Source\PSoC5/CapSense_CSD_CSHL.c **** *  If the sensor is active, the threshold is lowered by the hysteresis amount.
 610:.\Generated_Source\PSoC5/CapSense_CSD_CSHL.c **** *  If the sensor is inactive, the threshold is raised by the hysteresis amount.
 611:.\Generated_Source\PSoC5/CapSense_CSD_CSHL.c **** *  The debounce counter added to the sensor active transition.
 612:.\Generated_Source\PSoC5/CapSense_CSD_CSHL.c **** *  This function updates CapSense_CSD_SensorOnMask[] array element.
 613:.\Generated_Source\PSoC5/CapSense_CSD_CSHL.c **** *
 614:.\Generated_Source\PSoC5/CapSense_CSD_CSHL.c **** * Parameters:
 615:.\Generated_Source\PSoC5/CapSense_CSD_CSHL.c **** *  sensor:  Sensor number.
 616:.\Generated_Source\PSoC5/CapSense_CSD_CSHL.c **** *
 617:.\Generated_Source\PSoC5/CapSense_CSD_CSHL.c **** * Return:
 618:.\Generated_Source\PSoC5/CapSense_CSD_CSHL.c **** *  Returns sensor state 1 if active, 0 if not active.
 619:.\Generated_Source\PSoC5/CapSense_CSD_CSHL.c **** *
 620:.\Generated_Source\PSoC5/CapSense_CSD_CSHL.c **** * Global Variables:
 621:.\Generated_Source\PSoC5/CapSense_CSD_CSHL.c **** *  CapSense_CSD_SensorSignal[]      - used to store diffence between 
 622:.\Generated_Source\PSoC5/CapSense_CSD_CSHL.c **** *  current value of raw data and previous value of baseline.
 623:.\Generated_Source\PSoC5/CapSense_CSD_CSHL.c **** *  CapSense_CSD_debounceCounter[]   - used to store current debounce 
 624:.\Generated_Source\PSoC5/CapSense_CSD_CSHL.c **** *  counter of sensor. Widget which has this parameter are buttons, matrix 
 625:.\Generated_Source\PSoC5/CapSense_CSD_CSHL.c **** *  buttons, proximity, guard. All other widgets haven't debounce parameter
 626:.\Generated_Source\PSoC5/CapSense_CSD_CSHL.c **** *  and use the last element of this array with value 0 (it means no debounce).
 627:.\Generated_Source\PSoC5/CapSense_CSD_CSHL.c **** *  CapSense_CSD_SensorOnMask[] - used to store sensors on/off state.
 628:.\Generated_Source\PSoC5/CapSense_CSD_CSHL.c **** *  CapSense_CSD_SensorOnMask[0] contains the masked bits for sensors 
 629:.\Generated_Source\PSoC5/CapSense_CSD_CSHL.c **** *   0 through 7 (sensor 0 is bit 0, sensor 1 is bit 1).
 630:.\Generated_Source\PSoC5/CapSense_CSD_CSHL.c **** *  CapSense_CSD_SensorEnableMask[1] contains the masked bits for 
 631:.\Generated_Source\PSoC5/CapSense_CSD_CSHL.c **** *  sensors 8 through 15 (if needed), and so on.
 632:.\Generated_Source\PSoC5/CapSense_CSD_CSHL.c **** *  0 - sensor is inactive.
 633:.\Generated_Source\PSoC5/CapSense_CSD_CSHL.c **** *  1 - sensor is active.
 634:.\Generated_Source\PSoC5/CapSense_CSD_CSHL.c **** *
 635:.\Generated_Source\PSoC5/CapSense_CSD_CSHL.c **** * Reentrant:
 636:.\Generated_Source\PSoC5/CapSense_CSD_CSHL.c **** *  No
 637:.\Generated_Source\PSoC5/CapSense_CSD_CSHL.c **** *
 638:.\Generated_Source\PSoC5/CapSense_CSD_CSHL.c **** *******************************************************************************/
ARM GAS  C:\Users\yguan5\AppData\Local\Temp\ccX3ogeL.s 			page 24


 639:.\Generated_Source\PSoC5/CapSense_CSD_CSHL.c **** uint8 CapSense_CSD_CheckIsSensorActive(uint8 sensor)
 640:.\Generated_Source\PSoC5/CapSense_CSD_CSHL.c ****                                   
 641:.\Generated_Source\PSoC5/CapSense_CSD_CSHL.c **** {
 665              		.loc 1 641 0
 666              		.cfi_startproc
 667              		@ args = 0, pretend = 0, frame = 16
 668              		@ frame_needed = 1, uses_anonymous_args = 0
 669              		@ link register save eliminated.
 670 0000 80B4     		push	{r7}
 671              	.LCFI18:
 672              		.cfi_def_cfa_offset 4
 673 0002 85B0     		sub	sp, sp, #20
 674              	.LCFI19:
 675              		.cfi_def_cfa_offset 24
 676 0004 00AF     		add	r7, sp, #0
 677              		.cfi_offset 7, -4
 678              	.LCFI20:
 679              		.cfi_def_cfa_register 7
 680 0006 0346     		mov	r3, r0
 681 0008 FB71     		strb	r3, [r7, #7]
 642:.\Generated_Source\PSoC5/CapSense_CSD_CSHL.c ****     uint8 debounceIndex;
 643:.\Generated_Source\PSoC5/CapSense_CSD_CSHL.c ****     /* Get On/Off mask */
 644:.\Generated_Source\PSoC5/CapSense_CSD_CSHL.c ****     uint8 pos = (sensor >> 3u);
 682              		.loc 1 644 0
 683 000a FB79     		ldrb	r3, [r7, #7]	@ zero_extendqisi2
 684 000c 4FEAD303 		lsr	r3, r3, #3
 685 0010 BB72     		strb	r3, [r7, #10]
 645:.\Generated_Source\PSoC5/CapSense_CSD_CSHL.c ****     uint8 onMask = 0x01u << (sensor & 0x07u);
 686              		.loc 1 645 0
 687 0012 FB79     		ldrb	r3, [r7, #7]	@ zero_extendqisi2
 688 0014 03F00703 		and	r3, r3, #7
 689 0018 4FF00102 		mov	r2, #1
 690 001c 02FA03F3 		lsl	r3, r2, r3
 691 0020 FB72     		strb	r3, [r7, #11]
 646:.\Generated_Source\PSoC5/CapSense_CSD_CSHL.c ****     /* Prepare to find debounce counter index */
 647:.\Generated_Source\PSoC5/CapSense_CSD_CSHL.c ****     uint8 widget = CapSense_CSD_widgetNumber[sensor];
 692              		.loc 1 647 0
 693 0022 FA79     		ldrb	r2, [r7, #7]	@ zero_extendqisi2
 694 0024 40F20003 		movw	r3, #:lower16:CapSense_CSD_widgetNumber
 695 0028 C0F20003 		movt	r3, #:upper16:CapSense_CSD_widgetNumber
 696 002c 9B5C     		ldrb	r3, [r3, r2]
 697 002e 3B73     		strb	r3, [r7, #12]
 648:.\Generated_Source\PSoC5/CapSense_CSD_CSHL.c ****     uint8 fingerThreshold = CapSense_CSD_fingerThreshold[widget];
 698              		.loc 1 648 0
 699 0030 3A7B     		ldrb	r2, [r7, #12]	@ zero_extendqisi2
 700 0032 40F20003 		movw	r3, #:lower16:CapSense_CSD_fingerThreshold
 701 0036 C0F20003 		movt	r3, #:upper16:CapSense_CSD_fingerThreshold
 702 003a 9B5C     		ldrb	r3, [r3, r2]
 703 003c 7B73     		strb	r3, [r7, #13]
 649:.\Generated_Source\PSoC5/CapSense_CSD_CSHL.c ****     uint8 hysteresis = CapSense_CSD_hysteresis[widget];
 704              		.loc 1 649 0
 705 003e 3A7B     		ldrb	r2, [r7, #12]	@ zero_extendqisi2
 706 0040 40F20003 		movw	r3, #:lower16:CapSense_CSD_hysteresis
 707 0044 C0F20003 		movt	r3, #:upper16:CapSense_CSD_hysteresis
 708 0048 9B5C     		ldrb	r3, [r3, r2]
 709 004a BB73     		strb	r3, [r7, #14]
 650:.\Generated_Source\PSoC5/CapSense_CSD_CSHL.c ****     uint8 debounce = CapSense_CSD_debounce[widget];
ARM GAS  C:\Users\yguan5\AppData\Local\Temp\ccX3ogeL.s 			page 25


 710              		.loc 1 650 0
 711 004c 3A7B     		ldrb	r2, [r7, #12]	@ zero_extendqisi2
 712 004e 40F20003 		movw	r3, #:lower16:CapSense_CSD_debounce
 713 0052 C0F20003 		movt	r3, #:upper16:CapSense_CSD_debounce
 714 0056 9B5C     		ldrb	r3, [r3, r2]
 715 0058 FB73     		strb	r3, [r7, #15]
 651:.\Generated_Source\PSoC5/CapSense_CSD_CSHL.c ****     
 652:.\Generated_Source\PSoC5/CapSense_CSD_CSHL.c ****     if (widget < CapSense_CSD_TOTAL_CENTROIDS_COUNT)
 716              		.loc 1 652 0
 717 005a 3B7B     		ldrb	r3, [r7, #12]	@ zero_extendqisi2
 718 005c 002B     		cmp	r3, #0
 719 005e 0BD1     		bne	.L36
 653:.\Generated_Source\PSoC5/CapSense_CSD_CSHL.c ****     {
 654:.\Generated_Source\PSoC5/CapSense_CSD_CSHL.c ****         debounceIndex = CapSense_CSD_UNUSED_DEBOUNCE_COUNTER_INDEX;
 720              		.loc 1 654 0
 721 0060 4FF00203 		mov	r3, #2
 722 0064 7B72     		strb	r3, [r7, #9]
 655:.\Generated_Source\PSoC5/CapSense_CSD_CSHL.c ****         CapSense_CSD_debounceCounter[debounceIndex] = 1u;
 723              		.loc 1 655 0
 724 0066 7A7A     		ldrb	r2, [r7, #9]	@ zero_extendqisi2
 725 0068 40F20003 		movw	r3, #:lower16:CapSense_CSD_debounceCounter
 726 006c C0F20003 		movt	r3, #:upper16:CapSense_CSD_debounceCounter
 727 0070 4FF00101 		mov	r1, #1
 728 0074 9954     		strb	r1, [r3, r2]
 729 0076 03E0     		b	.L37
 730              	.L36:
 656:.\Generated_Source\PSoC5/CapSense_CSD_CSHL.c ****     }
 657:.\Generated_Source\PSoC5/CapSense_CSD_CSHL.c ****     else
 658:.\Generated_Source\PSoC5/CapSense_CSD_CSHL.c ****     {
 659:.\Generated_Source\PSoC5/CapSense_CSD_CSHL.c ****         debounceIndex = widget - (CapSense_CSD_END_OF_TOUCH_PAD_INDEX + 1);
 731              		.loc 1 659 0
 732 0078 3B7B     		ldrb	r3, [r7, #12]
 733 007a 03F1FF33 		add	r3, r3, #-1
 734 007e 7B72     		strb	r3, [r7, #9]
 735              	.L37:
 660:.\Generated_Source\PSoC5/CapSense_CSD_CSHL.c ****     }
 661:.\Generated_Source\PSoC5/CapSense_CSD_CSHL.c **** 
 662:.\Generated_Source\PSoC5/CapSense_CSD_CSHL.c ****     
 663:.\Generated_Source\PSoC5/CapSense_CSD_CSHL.c ****     /* Was on */
 664:.\Generated_Source\PSoC5/CapSense_CSD_CSHL.c ****     if (CapSense_CSD_SensorOnMask[pos] & onMask)
 736              		.loc 1 664 0
 737 0080 BA7A     		ldrb	r2, [r7, #10]	@ zero_extendqisi2
 738 0082 40F20003 		movw	r3, #:lower16:CapSense_CSD_SensorOnMask
 739 0086 C0F20003 		movt	r3, #:upper16:CapSense_CSD_SensorOnMask
 740 008a 9A5C     		ldrb	r2, [r3, r2]	@ zero_extendqisi2
 741 008c FB7A     		ldrb	r3, [r7, #11]
 742 008e 02EA0303 		and	r3, r2, r3
 743 0092 DBB2     		uxtb	r3, r3
 744 0094 002B     		cmp	r3, #0
 745 0096 29D0     		beq	.L38
 665:.\Generated_Source\PSoC5/CapSense_CSD_CSHL.c ****     {
 666:.\Generated_Source\PSoC5/CapSense_CSD_CSHL.c ****         /* Hysteresis minus */
 667:.\Generated_Source\PSoC5/CapSense_CSD_CSHL.c ****         if (CapSense_CSD_SensorSignal[sensor] < (fingerThreshold - hysteresis))
 746              		.loc 1 667 0
 747 0098 FA79     		ldrb	r2, [r7, #7]	@ zero_extendqisi2
 748 009a 40F20003 		movw	r3, #:lower16:CapSense_CSD_SensorSignal
 749 009e C0F20003 		movt	r3, #:upper16:CapSense_CSD_SensorSignal
ARM GAS  C:\Users\yguan5\AppData\Local\Temp\ccX3ogeL.s 			page 26


 750 00a2 9B5C     		ldrb	r3, [r3, r2]	@ zero_extendqisi2
 751 00a4 1A46     		mov	r2, r3
 752 00a6 797B     		ldrb	r1, [r7, #13]	@ zero_extendqisi2
 753 00a8 BB7B     		ldrb	r3, [r7, #14]	@ zero_extendqisi2
 754 00aa C3EB0103 		rsb	r3, r3, r1
 755 00ae 9A42     		cmp	r2, r3
 756 00b0 56DA     		bge	.L46
 668:.\Generated_Source\PSoC5/CapSense_CSD_CSHL.c ****         {
 669:.\Generated_Source\PSoC5/CapSense_CSD_CSHL.c ****             CapSense_CSD_SensorOnMask[pos] &= ~onMask;
 757              		.loc 1 669 0
 758 00b2 BA7A     		ldrb	r2, [r7, #10]	@ zero_extendqisi2
 759 00b4 B97A     		ldrb	r1, [r7, #10]	@ zero_extendqisi2
 760 00b6 40F20003 		movw	r3, #:lower16:CapSense_CSD_SensorOnMask
 761 00ba C0F20003 		movt	r3, #:upper16:CapSense_CSD_SensorOnMask
 762 00be 5B5C     		ldrb	r3, [r3, r1]	@ zero_extendqisi2
 763 00c0 1946     		mov	r1, r3
 764 00c2 FB7A     		ldrb	r3, [r7, #11]	@ zero_extendqisi2
 765 00c4 6FEA0303 		mvn	r3, r3
 766 00c8 DBB2     		uxtb	r3, r3
 767 00ca 01EA0303 		and	r3, r1, r3
 768 00ce DBB2     		uxtb	r3, r3
 769 00d0 D9B2     		uxtb	r1, r3
 770 00d2 40F20003 		movw	r3, #:lower16:CapSense_CSD_SensorOnMask
 771 00d6 C0F20003 		movt	r3, #:upper16:CapSense_CSD_SensorOnMask
 772 00da 9954     		strb	r1, [r3, r2]
 670:.\Generated_Source\PSoC5/CapSense_CSD_CSHL.c ****             CapSense_CSD_debounceCounter[debounceIndex] = debounce; 
 773              		.loc 1 670 0
 774 00dc 7A7A     		ldrb	r2, [r7, #9]	@ zero_extendqisi2
 775 00de 40F20003 		movw	r3, #:lower16:CapSense_CSD_debounceCounter
 776 00e2 C0F20003 		movt	r3, #:upper16:CapSense_CSD_debounceCounter
 777 00e6 F97B     		ldrb	r1, [r7, #15]
 778 00e8 9954     		strb	r1, [r3, r2]
 779 00ea 3CE0     		b	.L40
 780              	.L38:
 671:.\Generated_Source\PSoC5/CapSense_CSD_CSHL.c ****         }
 672:.\Generated_Source\PSoC5/CapSense_CSD_CSHL.c ****     }
 673:.\Generated_Source\PSoC5/CapSense_CSD_CSHL.c ****     else    /* Was off */
 674:.\Generated_Source\PSoC5/CapSense_CSD_CSHL.c ****     {
 675:.\Generated_Source\PSoC5/CapSense_CSD_CSHL.c ****         /* Hysteresis plus */
 676:.\Generated_Source\PSoC5/CapSense_CSD_CSHL.c ****         if (CapSense_CSD_SensorSignal[sensor] > (fingerThreshold + hysteresis))
 781              		.loc 1 676 0
 782 00ec FA79     		ldrb	r2, [r7, #7]	@ zero_extendqisi2
 783 00ee 40F20003 		movw	r3, #:lower16:CapSense_CSD_SensorSignal
 784 00f2 C0F20003 		movt	r3, #:upper16:CapSense_CSD_SensorSignal
 785 00f6 9B5C     		ldrb	r3, [r3, r2]	@ zero_extendqisi2
 786 00f8 1A46     		mov	r2, r3
 787 00fa 797B     		ldrb	r1, [r7, #13]	@ zero_extendqisi2
 788 00fc BB7B     		ldrb	r3, [r7, #14]	@ zero_extendqisi2
 789 00fe 0B44     		add	r3, r1, r3
 790 0100 9A42     		cmp	r2, r3
 791 0102 25DD     		ble	.L41
 677:.\Generated_Source\PSoC5/CapSense_CSD_CSHL.c ****         {
 678:.\Generated_Source\PSoC5/CapSense_CSD_CSHL.c ****             /* Sensor active, decrement debounce counter */
 679:.\Generated_Source\PSoC5/CapSense_CSD_CSHL.c ****             if (CapSense_CSD_debounceCounter[debounceIndex]-- <= 1u)
 792              		.loc 1 679 0
 793 0104 7A7A     		ldrb	r2, [r7, #9]	@ zero_extendqisi2
 794 0106 40F20003 		movw	r3, #:lower16:CapSense_CSD_debounceCounter
ARM GAS  C:\Users\yguan5\AppData\Local\Temp\ccX3ogeL.s 			page 27


 795 010a C0F20003 		movt	r3, #:upper16:CapSense_CSD_debounceCounter
 796 010e 9B5C     		ldrb	r3, [r3, r2]	@ zero_extendqisi2
 797 0110 012B     		cmp	r3, #1
 798 0112 8CBF     		ite	hi
 799 0114 0021     		movhi	r1, #0
 800 0116 0121     		movls	r1, #1
 801 0118 C9B2     		uxtb	r1, r1
 802 011a 03F1FF33 		add	r3, r3, #-1
 803 011e D8B2     		uxtb	r0, r3
 804 0120 40F20003 		movw	r3, #:lower16:CapSense_CSD_debounceCounter
 805 0124 C0F20003 		movt	r3, #:upper16:CapSense_CSD_debounceCounter
 806 0128 9854     		strb	r0, [r3, r2]
 807 012a 0029     		cmp	r1, #0
 808 012c 1AD0     		beq	.L47
 680:.\Generated_Source\PSoC5/CapSense_CSD_CSHL.c ****             {
 681:.\Generated_Source\PSoC5/CapSense_CSD_CSHL.c ****                 CapSense_CSD_SensorOnMask[pos] |= onMask; 
 809              		.loc 1 681 0
 810 012e BA7A     		ldrb	r2, [r7, #10]	@ zero_extendqisi2
 811 0130 B97A     		ldrb	r1, [r7, #10]	@ zero_extendqisi2
 812 0132 40F20003 		movw	r3, #:lower16:CapSense_CSD_SensorOnMask
 813 0136 C0F20003 		movt	r3, #:upper16:CapSense_CSD_SensorOnMask
 814 013a 595C     		ldrb	r1, [r3, r1]	@ zero_extendqisi2
 815 013c FB7A     		ldrb	r3, [r7, #11]
 816 013e 41EA0303 		orr	r3, r1, r3
 817 0142 D9B2     		uxtb	r1, r3
 818 0144 40F20003 		movw	r3, #:lower16:CapSense_CSD_SensorOnMask
 819 0148 C0F20003 		movt	r3, #:upper16:CapSense_CSD_SensorOnMask
 820 014c 9954     		strb	r1, [r3, r2]
 821 014e 0AE0     		b	.L40
 822              	.L41:
 682:.\Generated_Source\PSoC5/CapSense_CSD_CSHL.c ****             }
 683:.\Generated_Source\PSoC5/CapSense_CSD_CSHL.c ****         }
 684:.\Generated_Source\PSoC5/CapSense_CSD_CSHL.c ****         else
 685:.\Generated_Source\PSoC5/CapSense_CSD_CSHL.c ****         {
 686:.\Generated_Source\PSoC5/CapSense_CSD_CSHL.c ****             /* Sensor inactive - reset Debounce counter */
 687:.\Generated_Source\PSoC5/CapSense_CSD_CSHL.c ****             CapSense_CSD_debounceCounter[debounceIndex] = debounce;
 823              		.loc 1 687 0
 824 0150 7A7A     		ldrb	r2, [r7, #9]	@ zero_extendqisi2
 825 0152 40F20003 		movw	r3, #:lower16:CapSense_CSD_debounceCounter
 826 0156 C0F20003 		movt	r3, #:upper16:CapSense_CSD_debounceCounter
 827 015a F97B     		ldrb	r1, [r7, #15]
 828 015c 9954     		strb	r1, [r3, r2]
 829 015e 02E0     		b	.L40
 830              	.L46:
 831              		.loc 1 670 0
 832 0160 00BF     		nop
 833 0162 00E0     		b	.L40
 834              	.L47:
 835              		.loc 1 681 0
 836 0164 00BF     		nop
 837              	.L40:
 688:.\Generated_Source\PSoC5/CapSense_CSD_CSHL.c ****         }
 689:.\Generated_Source\PSoC5/CapSense_CSD_CSHL.c ****     }
 690:.\Generated_Source\PSoC5/CapSense_CSD_CSHL.c ****     
 691:.\Generated_Source\PSoC5/CapSense_CSD_CSHL.c ****     return (CapSense_CSD_SensorOnMask[pos] & onMask) ? 1u : 0u;
 838              		.loc 1 691 0
 839 0166 BA7A     		ldrb	r2, [r7, #10]	@ zero_extendqisi2
ARM GAS  C:\Users\yguan5\AppData\Local\Temp\ccX3ogeL.s 			page 28


 840 0168 40F20003 		movw	r3, #:lower16:CapSense_CSD_SensorOnMask
 841 016c C0F20003 		movt	r3, #:upper16:CapSense_CSD_SensorOnMask
 842 0170 9A5C     		ldrb	r2, [r3, r2]	@ zero_extendqisi2
 843 0172 FB7A     		ldrb	r3, [r7, #11]
 844 0174 02EA0303 		and	r3, r2, r3
 845 0178 DBB2     		uxtb	r3, r3
 846 017a 002B     		cmp	r3, #0
 847 017c 02D0     		beq	.L43
 848 017e 4FF00103 		mov	r3, #1
 849 0182 01E0     		b	.L44
 850              	.L43:
 851 0184 4FF00003 		mov	r3, #0
 852              	.L44:
 692:.\Generated_Source\PSoC5/CapSense_CSD_CSHL.c **** }
 853              		.loc 1 692 0
 854 0188 1846     		mov	r0, r3
 855 018a 07F11407 		add	r7, r7, #20
 856 018e BD46     		mov	sp, r7
 857 0190 80BC     		pop	{r7}
 858 0192 7047     		bx	lr
 859              		.cfi_endproc
 860              	.LFE6:
 861              		.size	CapSense_CSD_CheckIsSensorActive, .-CapSense_CSD_CheckIsSensorActive
 862              		.section	.text.CapSense_CSD_CheckIsWidgetActive,"ax",%progbits
 863              		.align	2
 864              		.global	CapSense_CSD_CheckIsWidgetActive
 865              		.thumb
 866              		.thumb_func
 867              		.type	CapSense_CSD_CheckIsWidgetActive, %function
 868              	CapSense_CSD_CheckIsWidgetActive:
 869              	.LFB7:
 693:.\Generated_Source\PSoC5/CapSense_CSD_CSHL.c **** 
 694:.\Generated_Source\PSoC5/CapSense_CSD_CSHL.c **** 
 695:.\Generated_Source\PSoC5/CapSense_CSD_CSHL.c **** /*******************************************************************************
 696:.\Generated_Source\PSoC5/CapSense_CSD_CSHL.c **** * Function Name: CapSense_CSD_CheckIsWidgetActive
 697:.\Generated_Source\PSoC5/CapSense_CSD_CSHL.c **** ********************************************************************************
 698:.\Generated_Source\PSoC5/CapSense_CSD_CSHL.c **** *
 699:.\Generated_Source\PSoC5/CapSense_CSD_CSHL.c **** * Summary:
 700:.\Generated_Source\PSoC5/CapSense_CSD_CSHL.c **** *  Use function CapSense_CSD_CheckIsSensorActive() to update 
 701:.\Generated_Source\PSoC5/CapSense_CSD_CSHL.c **** *  CapSense_CSD_SensorOnMask[] for all sensors within the widget.
 702:.\Generated_Source\PSoC5/CapSense_CSD_CSHL.c **** *  If one of sensors within widget is active the function return that widget is 
 703:.\Generated_Source\PSoC5/CapSense_CSD_CSHL.c **** *  active.
 704:.\Generated_Source\PSoC5/CapSense_CSD_CSHL.c **** *  The touch pad and matrix buttons widgets need to have active sensor within 
 705:.\Generated_Source\PSoC5/CapSense_CSD_CSHL.c **** *  col and row to return widget active status.
 706:.\Generated_Source\PSoC5/CapSense_CSD_CSHL.c **** *
 707:.\Generated_Source\PSoC5/CapSense_CSD_CSHL.c **** * Parameters:
 708:.\Generated_Source\PSoC5/CapSense_CSD_CSHL.c **** *  widget:  widget number.
 709:.\Generated_Source\PSoC5/CapSense_CSD_CSHL.c **** *
 710:.\Generated_Source\PSoC5/CapSense_CSD_CSHL.c **** * Return:
 711:.\Generated_Source\PSoC5/CapSense_CSD_CSHL.c **** *  Returns widget sensor state 1 if one or more sensors within widget is/are 
 712:.\Generated_Source\PSoC5/CapSense_CSD_CSHL.c **** *  active, 0 if all sensors within widget are inactive.
 713:.\Generated_Source\PSoC5/CapSense_CSD_CSHL.c **** *
 714:.\Generated_Source\PSoC5/CapSense_CSD_CSHL.c **** * Reentrant:
 715:.\Generated_Source\PSoC5/CapSense_CSD_CSHL.c **** *  No
 716:.\Generated_Source\PSoC5/CapSense_CSD_CSHL.c **** *
 717:.\Generated_Source\PSoC5/CapSense_CSD_CSHL.c **** *******************************************************************************/
 718:.\Generated_Source\PSoC5/CapSense_CSD_CSHL.c **** uint8 CapSense_CSD_CheckIsWidgetActive(uint8 widget)
ARM GAS  C:\Users\yguan5\AppData\Local\Temp\ccX3ogeL.s 			page 29


 719:.\Generated_Source\PSoC5/CapSense_CSD_CSHL.c ****                                  
 720:.\Generated_Source\PSoC5/CapSense_CSD_CSHL.c **** {
 870              		.loc 1 720 0
 871              		.cfi_startproc
 872              		@ args = 0, pretend = 0, frame = 16
 873              		@ frame_needed = 1, uses_anonymous_args = 0
 874 0000 80B5     		push	{r7, lr}
 875              	.LCFI21:
 876              		.cfi_def_cfa_offset 8
 877 0002 84B0     		sub	sp, sp, #16
 878              	.LCFI22:
 879              		.cfi_def_cfa_offset 24
 880 0004 00AF     		add	r7, sp, #0
 881              		.cfi_offset 14, -4
 882              		.cfi_offset 7, -8
 883              	.LCFI23:
 884              		.cfi_def_cfa_register 7
 885 0006 0346     		mov	r3, r0
 886 0008 FB71     		strb	r3, [r7, #7]
 721:.\Generated_Source\PSoC5/CapSense_CSD_CSHL.c ****     uint8 rawIndex = CapSense_CSD_rawDataIndex[widget];
 887              		.loc 1 721 0
 888 000a FA79     		ldrb	r2, [r7, #7]	@ zero_extendqisi2
 889 000c 40F20003 		movw	r3, #:lower16:CapSense_CSD_rawDataIndex
 890 0010 C0F20003 		movt	r3, #:upper16:CapSense_CSD_rawDataIndex
 891 0014 9B5C     		ldrb	r3, [r3, r2]
 892 0016 7B73     		strb	r3, [r7, #13]
 722:.\Generated_Source\PSoC5/CapSense_CSD_CSHL.c ****     uint8 numberOfSensors = CapSense_CSD_numberOfSensors[widget] + rawIndex;
 893              		.loc 1 722 0
 894 0018 FA79     		ldrb	r2, [r7, #7]	@ zero_extendqisi2
 895 001a 40F20003 		movw	r3, #:lower16:CapSense_CSD_numberOfSensors
 896 001e C0F20003 		movt	r3, #:upper16:CapSense_CSD_numberOfSensors
 897 0022 9A5C     		ldrb	r2, [r3, r2]	@ zero_extendqisi2
 898 0024 7B7B     		ldrb	r3, [r7, #13]
 899 0026 1344     		add	r3, r2, r3
 900 0028 BB73     		strb	r3, [r7, #14]
 723:.\Generated_Source\PSoC5/CapSense_CSD_CSHL.c ****     uint8 state = 0u;
 901              		.loc 1 723 0
 902 002a 4FF00003 		mov	r3, #0
 903 002e FB73     		strb	r3, [r7, #15]
 904              	.L50:
 724:.\Generated_Source\PSoC5/CapSense_CSD_CSHL.c **** 
 725:.\Generated_Source\PSoC5/CapSense_CSD_CSHL.c ****     /* Check all sensors of the widget */
 726:.\Generated_Source\PSoC5/CapSense_CSD_CSHL.c ****     do
 727:.\Generated_Source\PSoC5/CapSense_CSD_CSHL.c ****     {
 728:.\Generated_Source\PSoC5/CapSense_CSD_CSHL.c ****         if(CapSense_CSD_CheckIsSensorActive(rawIndex) != 0u)
 905              		.loc 1 728 0
 906 0030 7B7B     		ldrb	r3, [r7, #13]	@ zero_extendqisi2
 907 0032 1846     		mov	r0, r3
 908 0034 FFF7FEFF 		bl	CapSense_CSD_CheckIsSensorActive
 909 0038 0346     		mov	r3, r0
 910 003a 002B     		cmp	r3, #0
 911 003c 02D0     		beq	.L49
 729:.\Generated_Source\PSoC5/CapSense_CSD_CSHL.c ****         {
 730:.\Generated_Source\PSoC5/CapSense_CSD_CSHL.c ****             state = CapSense_CSD_SENSOR_1_IS_ACTIVE;
 912              		.loc 1 730 0
 913 003e 4FF00103 		mov	r3, #1
 914 0042 FB73     		strb	r3, [r7, #15]
ARM GAS  C:\Users\yguan5\AppData\Local\Temp\ccX3ogeL.s 			page 30


 915              	.L49:
 731:.\Generated_Source\PSoC5/CapSense_CSD_CSHL.c ****         }
 732:.\Generated_Source\PSoC5/CapSense_CSD_CSHL.c ****         rawIndex++;
 916              		.loc 1 732 0
 917 0044 7B7B     		ldrb	r3, [r7, #13]
 918 0046 03F10103 		add	r3, r3, #1
 919 004a 7B73     		strb	r3, [r7, #13]
 733:.\Generated_Source\PSoC5/CapSense_CSD_CSHL.c ****     }
 734:.\Generated_Source\PSoC5/CapSense_CSD_CSHL.c ****     while(rawIndex < numberOfSensors);
 920              		.loc 1 734 0
 921 004c 7A7B     		ldrb	r2, [r7, #13]	@ zero_extendqisi2
 922 004e BB7B     		ldrb	r3, [r7, #14]	@ zero_extendqisi2
 923 0050 9A42     		cmp	r2, r3
 924 0052 EDD3     		bcc	.L50
 735:.\Generated_Source\PSoC5/CapSense_CSD_CSHL.c ****     
 736:.\Generated_Source\PSoC5/CapSense_CSD_CSHL.c **** 
 737:.\Generated_Source\PSoC5/CapSense_CSD_CSHL.c ****     
 738:.\Generated_Source\PSoC5/CapSense_CSD_CSHL.c ****     return state;
 925              		.loc 1 738 0
 926 0054 FB7B     		ldrb	r3, [r7, #15]	@ zero_extendqisi2
 739:.\Generated_Source\PSoC5/CapSense_CSD_CSHL.c **** }
 927              		.loc 1 739 0
 928 0056 1846     		mov	r0, r3
 929 0058 07F11007 		add	r7, r7, #16
 930 005c BD46     		mov	sp, r7
 931 005e 80BD     		pop	{r7, pc}
 932              		.cfi_endproc
 933              	.LFE7:
 934              		.size	CapSense_CSD_CheckIsWidgetActive, .-CapSense_CSD_CheckIsWidgetActive
 935              		.section	.text.CapSense_CSD_CheckIsAnyWidgetActive,"ax",%progbits
 936              		.align	2
 937              		.global	CapSense_CSD_CheckIsAnyWidgetActive
 938              		.thumb
 939              		.thumb_func
 940              		.type	CapSense_CSD_CheckIsAnyWidgetActive, %function
 941              	CapSense_CSD_CheckIsAnyWidgetActive:
 942              	.LFB8:
 740:.\Generated_Source\PSoC5/CapSense_CSD_CSHL.c **** 
 741:.\Generated_Source\PSoC5/CapSense_CSD_CSHL.c **** 
 742:.\Generated_Source\PSoC5/CapSense_CSD_CSHL.c **** /*******************************************************************************
 743:.\Generated_Source\PSoC5/CapSense_CSD_CSHL.c **** * Function Name: CapSense_CSD_CheckIsAnyWidgetActive
 744:.\Generated_Source\PSoC5/CapSense_CSD_CSHL.c **** ********************************************************************************
 745:.\Generated_Source\PSoC5/CapSense_CSD_CSHL.c **** *
 746:.\Generated_Source\PSoC5/CapSense_CSD_CSHL.c **** * Summary:
 747:.\Generated_Source\PSoC5/CapSense_CSD_CSHL.c **** *  Compares all sensors of the CapSense_CSD_Signal[] array to their finger 
 748:.\Generated_Source\PSoC5/CapSense_CSD_CSHL.c **** *  threshold. Calls CapSense_CSD_CheckIsWidgetActive() for each widget so 
 749:.\Generated_Source\PSoC5/CapSense_CSD_CSHL.c **** *  the CapSense_CSD_SensorOnMask[] array is up to date after calling this 
 750:.\Generated_Source\PSoC5/CapSense_CSD_CSHL.c **** *  function.
 751:.\Generated_Source\PSoC5/CapSense_CSD_CSHL.c **** *
 752:.\Generated_Source\PSoC5/CapSense_CSD_CSHL.c **** * Parameters:
 753:.\Generated_Source\PSoC5/CapSense_CSD_CSHL.c **** *  widget:  widget number.
 754:.\Generated_Source\PSoC5/CapSense_CSD_CSHL.c **** *
 755:.\Generated_Source\PSoC5/CapSense_CSD_CSHL.c **** * Return:
 756:.\Generated_Source\PSoC5/CapSense_CSD_CSHL.c **** *  Returns 1 if any widget is active, 0 none of widgets are active.
 757:.\Generated_Source\PSoC5/CapSense_CSD_CSHL.c **** *
 758:.\Generated_Source\PSoC5/CapSense_CSD_CSHL.c **** * Reentrant:
 759:.\Generated_Source\PSoC5/CapSense_CSD_CSHL.c **** *  No
ARM GAS  C:\Users\yguan5\AppData\Local\Temp\ccX3ogeL.s 			page 31


 760:.\Generated_Source\PSoC5/CapSense_CSD_CSHL.c **** *
 761:.\Generated_Source\PSoC5/CapSense_CSD_CSHL.c **** *******************************************************************************/
 762:.\Generated_Source\PSoC5/CapSense_CSD_CSHL.c **** uint8 CapSense_CSD_CheckIsAnyWidgetActive(void)
 763:.\Generated_Source\PSoC5/CapSense_CSD_CSHL.c ****                                  
 764:.\Generated_Source\PSoC5/CapSense_CSD_CSHL.c **** {
 943              		.loc 1 764 0
 944              		.cfi_startproc
 945              		@ args = 0, pretend = 0, frame = 8
 946              		@ frame_needed = 1, uses_anonymous_args = 0
 947 0000 80B5     		push	{r7, lr}
 948              	.LCFI24:
 949              		.cfi_def_cfa_offset 8
 950 0002 82B0     		sub	sp, sp, #8
 951              	.LCFI25:
 952              		.cfi_def_cfa_offset 16
 953 0004 00AF     		add	r7, sp, #0
 954              		.cfi_offset 14, -4
 955              		.cfi_offset 7, -8
 956              	.LCFI26:
 957              		.cfi_def_cfa_register 7
 765:.\Generated_Source\PSoC5/CapSense_CSD_CSHL.c ****     uint8 i;
 766:.\Generated_Source\PSoC5/CapSense_CSD_CSHL.c ****     uint8 state = 0u;
 958              		.loc 1 766 0
 959 0006 4FF00003 		mov	r3, #0
 960 000a FB71     		strb	r3, [r7, #7]
 767:.\Generated_Source\PSoC5/CapSense_CSD_CSHL.c ****     
 768:.\Generated_Source\PSoC5/CapSense_CSD_CSHL.c ****     for(i = 0u; i < CapSense_CSD_TOTAL_WIDGET_COUNT; i++)
 961              		.loc 1 768 0
 962 000c 4FF00003 		mov	r3, #0
 963 0010 BB71     		strb	r3, [r7, #6]
 964 0012 0DE0     		b	.L53
 965              	.L55:
 769:.\Generated_Source\PSoC5/CapSense_CSD_CSHL.c ****     {
 770:.\Generated_Source\PSoC5/CapSense_CSD_CSHL.c ****         if (CapSense_CSD_CheckIsWidgetActive(i) != 0u)
 966              		.loc 1 770 0
 967 0014 BB79     		ldrb	r3, [r7, #6]	@ zero_extendqisi2
 968 0016 1846     		mov	r0, r3
 969 0018 FFF7FEFF 		bl	CapSense_CSD_CheckIsWidgetActive
 970 001c 0346     		mov	r3, r0
 971 001e 002B     		cmp	r3, #0
 972 0020 02D0     		beq	.L54
 771:.\Generated_Source\PSoC5/CapSense_CSD_CSHL.c ****         {
 772:.\Generated_Source\PSoC5/CapSense_CSD_CSHL.c ****             state = CapSense_CSD_WIDGET_IS_ACTIVE;
 973              		.loc 1 772 0
 974 0022 4FF00103 		mov	r3, #1
 975 0026 FB71     		strb	r3, [r7, #7]
 976              	.L54:
 977              		.loc 1 768 0
 978 0028 BB79     		ldrb	r3, [r7, #6]
 979 002a 03F10103 		add	r3, r3, #1
 980 002e BB71     		strb	r3, [r7, #6]
 981              	.L53:
 982 0030 BB79     		ldrb	r3, [r7, #6]	@ zero_extendqisi2
 983 0032 022B     		cmp	r3, #2
 984 0034 EED9     		bls	.L55
 773:.\Generated_Source\PSoC5/CapSense_CSD_CSHL.c ****         }
 774:.\Generated_Source\PSoC5/CapSense_CSD_CSHL.c ****     }
ARM GAS  C:\Users\yguan5\AppData\Local\Temp\ccX3ogeL.s 			page 32


 775:.\Generated_Source\PSoC5/CapSense_CSD_CSHL.c ****     
 776:.\Generated_Source\PSoC5/CapSense_CSD_CSHL.c **** 
 777:.\Generated_Source\PSoC5/CapSense_CSD_CSHL.c ****     return state;
 985              		.loc 1 777 0
 986 0036 FB79     		ldrb	r3, [r7, #7]	@ zero_extendqisi2
 778:.\Generated_Source\PSoC5/CapSense_CSD_CSHL.c **** }
 987              		.loc 1 778 0
 988 0038 1846     		mov	r0, r3
 989 003a 07F10807 		add	r7, r7, #8
 990 003e BD46     		mov	sp, r7
 991 0040 80BD     		pop	{r7, pc}
 992              		.cfi_endproc
 993              	.LFE8:
 994              		.size	CapSense_CSD_CheckIsAnyWidgetActive, .-CapSense_CSD_CheckIsAnyWidgetActive
 995 0042 00BF     		.section	.text.CapSense_CSD_EnableWidget,"ax",%progbits
 996              		.align	2
 997              		.global	CapSense_CSD_EnableWidget
 998              		.thumb
 999              		.thumb_func
 1000              		.type	CapSense_CSD_EnableWidget, %function
 1001              	CapSense_CSD_EnableWidget:
 1002              	.LFB9:
 779:.\Generated_Source\PSoC5/CapSense_CSD_CSHL.c **** 
 780:.\Generated_Source\PSoC5/CapSense_CSD_CSHL.c **** 
 781:.\Generated_Source\PSoC5/CapSense_CSD_CSHL.c **** /*******************************************************************************
 782:.\Generated_Source\PSoC5/CapSense_CSD_CSHL.c **** * Function Name: CapSense_CSD_EnableWidget
 783:.\Generated_Source\PSoC5/CapSense_CSD_CSHL.c **** ********************************************************************************
 784:.\Generated_Source\PSoC5/CapSense_CSD_CSHL.c **** *
 785:.\Generated_Source\PSoC5/CapSense_CSD_CSHL.c **** * Summary:
 786:.\Generated_Source\PSoC5/CapSense_CSD_CSHL.c **** *  Enable all widget elements (sensors) to scanning process.
 787:.\Generated_Source\PSoC5/CapSense_CSD_CSHL.c **** *
 788:.\Generated_Source\PSoC5/CapSense_CSD_CSHL.c **** * Parameters:
 789:.\Generated_Source\PSoC5/CapSense_CSD_CSHL.c **** *  widget:  widget number.
 790:.\Generated_Source\PSoC5/CapSense_CSD_CSHL.c **** *
 791:.\Generated_Source\PSoC5/CapSense_CSD_CSHL.c **** * Return:
 792:.\Generated_Source\PSoC5/CapSense_CSD_CSHL.c **** *  None
 793:.\Generated_Source\PSoC5/CapSense_CSD_CSHL.c **** *
 794:.\Generated_Source\PSoC5/CapSense_CSD_CSHL.c **** * Global Variables:
 795:.\Generated_Source\PSoC5/CapSense_CSD_CSHL.c **** *  CapSense_CSD_SensorEnableMask[] - used to store the sensor scanning 
 796:.\Generated_Source\PSoC5/CapSense_CSD_CSHL.c **** *  state.
 797:.\Generated_Source\PSoC5/CapSense_CSD_CSHL.c **** *  CapSense_CSD_SensorEnableMask[0] contains the masked bits for sensors 
 798:.\Generated_Source\PSoC5/CapSense_CSD_CSHL.c **** *  0 through 7 (sensor 0 is bit 0, sensor 1 is bit 1).
 799:.\Generated_Source\PSoC5/CapSense_CSD_CSHL.c **** *  CapSense_CSD_SensorEnableMask[1] contains the masked bits for 
 800:.\Generated_Source\PSoC5/CapSense_CSD_CSHL.c **** *  sensors 8 through 15 (if needed), and so on.
 801:.\Generated_Source\PSoC5/CapSense_CSD_CSHL.c **** *  0 - sensor doesn't scan by CapSense_CSD_ScanEnabledWidgets().
 802:.\Generated_Source\PSoC5/CapSense_CSD_CSHL.c **** *  1 - sensor scans by CapSense_CSD_ScanEnabledWidgets().
 803:.\Generated_Source\PSoC5/CapSense_CSD_CSHL.c **** *
 804:.\Generated_Source\PSoC5/CapSense_CSD_CSHL.c **** * Reentrant:
 805:.\Generated_Source\PSoC5/CapSense_CSD_CSHL.c **** *  No
 806:.\Generated_Source\PSoC5/CapSense_CSD_CSHL.c **** *
 807:.\Generated_Source\PSoC5/CapSense_CSD_CSHL.c **** *******************************************************************************/
 808:.\Generated_Source\PSoC5/CapSense_CSD_CSHL.c **** void CapSense_CSD_EnableWidget(uint8 widget)
 809:.\Generated_Source\PSoC5/CapSense_CSD_CSHL.c ****                                    
 810:.\Generated_Source\PSoC5/CapSense_CSD_CSHL.c **** {
 1003              		.loc 1 810 0
 1004              		.cfi_startproc
 1005              		@ args = 0, pretend = 0, frame = 16
ARM GAS  C:\Users\yguan5\AppData\Local\Temp\ccX3ogeL.s 			page 33


 1006              		@ frame_needed = 1, uses_anonymous_args = 0
 1007              		@ link register save eliminated.
 1008 0000 80B4     		push	{r7}
 1009              	.LCFI27:
 1010              		.cfi_def_cfa_offset 4
 1011 0002 85B0     		sub	sp, sp, #20
 1012              	.LCFI28:
 1013              		.cfi_def_cfa_offset 24
 1014 0004 00AF     		add	r7, sp, #0
 1015              		.cfi_offset 7, -4
 1016              	.LCFI29:
 1017              		.cfi_def_cfa_register 7
 1018 0006 0346     		mov	r3, r0
 1019 0008 FB71     		strb	r3, [r7, #7]
 811:.\Generated_Source\PSoC5/CapSense_CSD_CSHL.c ****     uint8 pos;
 812:.\Generated_Source\PSoC5/CapSense_CSD_CSHL.c ****     uint8 enMask;
 813:.\Generated_Source\PSoC5/CapSense_CSD_CSHL.c ****     uint8 rawIndex = CapSense_CSD_rawDataIndex[widget];
 1020              		.loc 1 813 0
 1021 000a FA79     		ldrb	r2, [r7, #7]	@ zero_extendqisi2
 1022 000c 40F20003 		movw	r3, #:lower16:CapSense_CSD_rawDataIndex
 1023 0010 C0F20003 		movt	r3, #:upper16:CapSense_CSD_rawDataIndex
 1024 0014 9B5C     		ldrb	r3, [r3, r2]
 1025 0016 BB73     		strb	r3, [r7, #14]
 814:.\Generated_Source\PSoC5/CapSense_CSD_CSHL.c ****     uint8 numberOfSensors = CapSense_CSD_numberOfSensors[widget] + rawIndex;
 1026              		.loc 1 814 0
 1027 0018 FA79     		ldrb	r2, [r7, #7]	@ zero_extendqisi2
 1028 001a 40F20003 		movw	r3, #:lower16:CapSense_CSD_numberOfSensors
 1029 001e C0F20003 		movt	r3, #:upper16:CapSense_CSD_numberOfSensors
 1030 0022 9A5C     		ldrb	r2, [r3, r2]	@ zero_extendqisi2
 1031 0024 BB7B     		ldrb	r3, [r7, #14]
 1032 0026 1344     		add	r3, r2, r3
 1033 0028 FB73     		strb	r3, [r7, #15]
 1034              	.L58:
 815:.\Generated_Source\PSoC5/CapSense_CSD_CSHL.c ****     
 816:.\Generated_Source\PSoC5/CapSense_CSD_CSHL.c ****     /* Enable all sensors of the widget */
 817:.\Generated_Source\PSoC5/CapSense_CSD_CSHL.c ****     do
 818:.\Generated_Source\PSoC5/CapSense_CSD_CSHL.c ****     {
 819:.\Generated_Source\PSoC5/CapSense_CSD_CSHL.c ****         pos = (rawIndex >> 3u);
 1035              		.loc 1 819 0
 1036 002a BB7B     		ldrb	r3, [r7, #14]	@ zero_extendqisi2
 1037 002c 4FEAD303 		lsr	r3, r3, #3
 1038 0030 3B73     		strb	r3, [r7, #12]
 820:.\Generated_Source\PSoC5/CapSense_CSD_CSHL.c ****         enMask = 0x01u << (rawIndex & 0x07u);
 1039              		.loc 1 820 0
 1040 0032 BB7B     		ldrb	r3, [r7, #14]	@ zero_extendqisi2
 1041 0034 03F00703 		and	r3, r3, #7
 1042 0038 4FF00102 		mov	r2, #1
 1043 003c 02FA03F3 		lsl	r3, r2, r3
 1044 0040 7B73     		strb	r3, [r7, #13]
 821:.\Generated_Source\PSoC5/CapSense_CSD_CSHL.c ****         
 822:.\Generated_Source\PSoC5/CapSense_CSD_CSHL.c ****         CapSense_CSD_SensorEnableMask[pos] |= enMask;
 1045              		.loc 1 822 0
 1046 0042 3A7B     		ldrb	r2, [r7, #12]	@ zero_extendqisi2
 1047 0044 397B     		ldrb	r1, [r7, #12]	@ zero_extendqisi2
 1048 0046 40F20003 		movw	r3, #:lower16:CapSense_CSD_SensorEnableMask
 1049 004a C0F20003 		movt	r3, #:upper16:CapSense_CSD_SensorEnableMask
 1050 004e 595C     		ldrb	r1, [r3, r1]	@ zero_extendqisi2
ARM GAS  C:\Users\yguan5\AppData\Local\Temp\ccX3ogeL.s 			page 34


 1051 0050 7B7B     		ldrb	r3, [r7, #13]
 1052 0052 41EA0303 		orr	r3, r1, r3
 1053 0056 D9B2     		uxtb	r1, r3
 1054 0058 40F20003 		movw	r3, #:lower16:CapSense_CSD_SensorEnableMask
 1055 005c C0F20003 		movt	r3, #:upper16:CapSense_CSD_SensorEnableMask
 1056 0060 9954     		strb	r1, [r3, r2]
 823:.\Generated_Source\PSoC5/CapSense_CSD_CSHL.c ****         rawIndex++;
 1057              		.loc 1 823 0
 1058 0062 BB7B     		ldrb	r3, [r7, #14]
 1059 0064 03F10103 		add	r3, r3, #1
 1060 0068 BB73     		strb	r3, [r7, #14]
 824:.\Generated_Source\PSoC5/CapSense_CSD_CSHL.c ****     }
 825:.\Generated_Source\PSoC5/CapSense_CSD_CSHL.c ****     while(rawIndex < numberOfSensors);
 1061              		.loc 1 825 0
 1062 006a BA7B     		ldrb	r2, [r7, #14]	@ zero_extendqisi2
 1063 006c FB7B     		ldrb	r3, [r7, #15]	@ zero_extendqisi2
 1064 006e 9A42     		cmp	r2, r3
 1065 0070 DBD3     		bcc	.L58
 826:.\Generated_Source\PSoC5/CapSense_CSD_CSHL.c ****     
 827:.\Generated_Source\PSoC5/CapSense_CSD_CSHL.c **** 
 828:.\Generated_Source\PSoC5/CapSense_CSD_CSHL.c **** }
 1066              		.loc 1 828 0
 1067 0072 07F11407 		add	r7, r7, #20
 1068 0076 BD46     		mov	sp, r7
 1069 0078 80BC     		pop	{r7}
 1070 007a 7047     		bx	lr
 1071              		.cfi_endproc
 1072              	.LFE9:
 1073              		.size	CapSense_CSD_EnableWidget, .-CapSense_CSD_EnableWidget
 1074              		.section	.text.CapSense_CSD_DisableWidget,"ax",%progbits
 1075              		.align	2
 1076              		.global	CapSense_CSD_DisableWidget
 1077              		.thumb
 1078              		.thumb_func
 1079              		.type	CapSense_CSD_DisableWidget, %function
 1080              	CapSense_CSD_DisableWidget:
 1081              	.LFB10:
 829:.\Generated_Source\PSoC5/CapSense_CSD_CSHL.c **** 
 830:.\Generated_Source\PSoC5/CapSense_CSD_CSHL.c **** 
 831:.\Generated_Source\PSoC5/CapSense_CSD_CSHL.c **** /*******************************************************************************
 832:.\Generated_Source\PSoC5/CapSense_CSD_CSHL.c **** * Function Name: CapSense_CSD_DisableWidget
 833:.\Generated_Source\PSoC5/CapSense_CSD_CSHL.c **** ********************************************************************************
 834:.\Generated_Source\PSoC5/CapSense_CSD_CSHL.c **** *
 835:.\Generated_Source\PSoC5/CapSense_CSD_CSHL.c **** * Summary:
 836:.\Generated_Source\PSoC5/CapSense_CSD_CSHL.c **** *  Disable all widget elements (sensors) from scanning process.
 837:.\Generated_Source\PSoC5/CapSense_CSD_CSHL.c **** *
 838:.\Generated_Source\PSoC5/CapSense_CSD_CSHL.c **** * Parameters:
 839:.\Generated_Source\PSoC5/CapSense_CSD_CSHL.c **** *  widget:  widget number.
 840:.\Generated_Source\PSoC5/CapSense_CSD_CSHL.c **** *
 841:.\Generated_Source\PSoC5/CapSense_CSD_CSHL.c **** * Return:
 842:.\Generated_Source\PSoC5/CapSense_CSD_CSHL.c **** *  None
 843:.\Generated_Source\PSoC5/CapSense_CSD_CSHL.c **** *
 844:.\Generated_Source\PSoC5/CapSense_CSD_CSHL.c **** * Global Variables:
 845:.\Generated_Source\PSoC5/CapSense_CSD_CSHL.c **** *  CapSense_CSD_SensorEnableMask[] - used to store the sensor scanning 
 846:.\Generated_Source\PSoC5/CapSense_CSD_CSHL.c **** *  state.
 847:.\Generated_Source\PSoC5/CapSense_CSD_CSHL.c **** *  CapSense_CSD_SensorEnableMask[0] contains the masked bits for sensors 
 848:.\Generated_Source\PSoC5/CapSense_CSD_CSHL.c **** *  0 through 7 (sensor 0 is bit 0, sensor 1 is bit 1).
ARM GAS  C:\Users\yguan5\AppData\Local\Temp\ccX3ogeL.s 			page 35


 849:.\Generated_Source\PSoC5/CapSense_CSD_CSHL.c **** *  CapSense_CSD_SensorEnableMask[1] contains the masked bits for 
 850:.\Generated_Source\PSoC5/CapSense_CSD_CSHL.c **** *  sensors 8 through 15 (if needed), and so on.
 851:.\Generated_Source\PSoC5/CapSense_CSD_CSHL.c **** *  0 - sensor doesn't scan by CapSense_CSD_ScanEnabledWidgets().
 852:.\Generated_Source\PSoC5/CapSense_CSD_CSHL.c **** *  1 - sensor scans by CapSense_CSD_ScanEnabledWidgets().
 853:.\Generated_Source\PSoC5/CapSense_CSD_CSHL.c **** *
 854:.\Generated_Source\PSoC5/CapSense_CSD_CSHL.c **** * Reentrant:
 855:.\Generated_Source\PSoC5/CapSense_CSD_CSHL.c **** *  No
 856:.\Generated_Source\PSoC5/CapSense_CSD_CSHL.c **** *
 857:.\Generated_Source\PSoC5/CapSense_CSD_CSHL.c **** *******************************************************************************/
 858:.\Generated_Source\PSoC5/CapSense_CSD_CSHL.c **** void CapSense_CSD_DisableWidget(uint8 widget)
 859:.\Generated_Source\PSoC5/CapSense_CSD_CSHL.c ****                                     
 860:.\Generated_Source\PSoC5/CapSense_CSD_CSHL.c **** {
 1082              		.loc 1 860 0
 1083              		.cfi_startproc
 1084              		@ args = 0, pretend = 0, frame = 16
 1085              		@ frame_needed = 1, uses_anonymous_args = 0
 1086              		@ link register save eliminated.
 1087 0000 80B4     		push	{r7}
 1088              	.LCFI30:
 1089              		.cfi_def_cfa_offset 4
 1090 0002 85B0     		sub	sp, sp, #20
 1091              	.LCFI31:
 1092              		.cfi_def_cfa_offset 24
 1093 0004 00AF     		add	r7, sp, #0
 1094              		.cfi_offset 7, -4
 1095              	.LCFI32:
 1096              		.cfi_def_cfa_register 7
 1097 0006 0346     		mov	r3, r0
 1098 0008 FB71     		strb	r3, [r7, #7]
 861:.\Generated_Source\PSoC5/CapSense_CSD_CSHL.c ****     uint8 pos;
 862:.\Generated_Source\PSoC5/CapSense_CSD_CSHL.c ****     uint8 enMask;
 863:.\Generated_Source\PSoC5/CapSense_CSD_CSHL.c ****     uint8 rawIndex = CapSense_CSD_rawDataIndex[widget];
 1099              		.loc 1 863 0
 1100 000a FA79     		ldrb	r2, [r7, #7]	@ zero_extendqisi2
 1101 000c 40F20003 		movw	r3, #:lower16:CapSense_CSD_rawDataIndex
 1102 0010 C0F20003 		movt	r3, #:upper16:CapSense_CSD_rawDataIndex
 1103 0014 9B5C     		ldrb	r3, [r3, r2]
 1104 0016 BB73     		strb	r3, [r7, #14]
 864:.\Generated_Source\PSoC5/CapSense_CSD_CSHL.c ****     uint8 numberOfSensors = CapSense_CSD_numberOfSensors[widget] + rawIndex;
 1105              		.loc 1 864 0
 1106 0018 FA79     		ldrb	r2, [r7, #7]	@ zero_extendqisi2
 1107 001a 40F20003 		movw	r3, #:lower16:CapSense_CSD_numberOfSensors
 1108 001e C0F20003 		movt	r3, #:upper16:CapSense_CSD_numberOfSensors
 1109 0022 9A5C     		ldrb	r2, [r3, r2]	@ zero_extendqisi2
 1110 0024 BB7B     		ldrb	r3, [r7, #14]
 1111 0026 1344     		add	r3, r2, r3
 1112 0028 FB73     		strb	r3, [r7, #15]
 1113              	.L61:
 865:.\Generated_Source\PSoC5/CapSense_CSD_CSHL.c ****    
 866:.\Generated_Source\PSoC5/CapSense_CSD_CSHL.c ****     /* Disable all sensors of the widget */
 867:.\Generated_Source\PSoC5/CapSense_CSD_CSHL.c ****     do
 868:.\Generated_Source\PSoC5/CapSense_CSD_CSHL.c ****     {
 869:.\Generated_Source\PSoC5/CapSense_CSD_CSHL.c ****         pos = (rawIndex >> 3u);
 1114              		.loc 1 869 0
 1115 002a BB7B     		ldrb	r3, [r7, #14]	@ zero_extendqisi2
 1116 002c 4FEAD303 		lsr	r3, r3, #3
 1117 0030 3B73     		strb	r3, [r7, #12]
ARM GAS  C:\Users\yguan5\AppData\Local\Temp\ccX3ogeL.s 			page 36


 870:.\Generated_Source\PSoC5/CapSense_CSD_CSHL.c ****         enMask = 0x01u << (rawIndex & 0x07u);
 1118              		.loc 1 870 0
 1119 0032 BB7B     		ldrb	r3, [r7, #14]	@ zero_extendqisi2
 1120 0034 03F00703 		and	r3, r3, #7
 1121 0038 4FF00102 		mov	r2, #1
 1122 003c 02FA03F3 		lsl	r3, r2, r3
 1123 0040 7B73     		strb	r3, [r7, #13]
 871:.\Generated_Source\PSoC5/CapSense_CSD_CSHL.c ****         
 872:.\Generated_Source\PSoC5/CapSense_CSD_CSHL.c ****         CapSense_CSD_SensorEnableMask[pos] &= ~enMask;
 1124              		.loc 1 872 0
 1125 0042 3A7B     		ldrb	r2, [r7, #12]	@ zero_extendqisi2
 1126 0044 397B     		ldrb	r1, [r7, #12]	@ zero_extendqisi2
 1127 0046 40F20003 		movw	r3, #:lower16:CapSense_CSD_SensorEnableMask
 1128 004a C0F20003 		movt	r3, #:upper16:CapSense_CSD_SensorEnableMask
 1129 004e 5B5C     		ldrb	r3, [r3, r1]	@ zero_extendqisi2
 1130 0050 1946     		mov	r1, r3
 1131 0052 7B7B     		ldrb	r3, [r7, #13]	@ zero_extendqisi2
 1132 0054 6FEA0303 		mvn	r3, r3
 1133 0058 DBB2     		uxtb	r3, r3
 1134 005a 01EA0303 		and	r3, r1, r3
 1135 005e DBB2     		uxtb	r3, r3
 1136 0060 D9B2     		uxtb	r1, r3
 1137 0062 40F20003 		movw	r3, #:lower16:CapSense_CSD_SensorEnableMask
 1138 0066 C0F20003 		movt	r3, #:upper16:CapSense_CSD_SensorEnableMask
 1139 006a 9954     		strb	r1, [r3, r2]
 873:.\Generated_Source\PSoC5/CapSense_CSD_CSHL.c ****         rawIndex++;
 1140              		.loc 1 873 0
 1141 006c BB7B     		ldrb	r3, [r7, #14]
 1142 006e 03F10103 		add	r3, r3, #1
 1143 0072 BB73     		strb	r3, [r7, #14]
 874:.\Generated_Source\PSoC5/CapSense_CSD_CSHL.c ****     }
 875:.\Generated_Source\PSoC5/CapSense_CSD_CSHL.c ****     while(rawIndex < numberOfSensors);
 1144              		.loc 1 875 0
 1145 0074 BA7B     		ldrb	r2, [r7, #14]	@ zero_extendqisi2
 1146 0076 FB7B     		ldrb	r3, [r7, #15]	@ zero_extendqisi2
 1147 0078 9A42     		cmp	r2, r3
 1148 007a D6D3     		bcc	.L61
 876:.\Generated_Source\PSoC5/CapSense_CSD_CSHL.c ****     
 877:.\Generated_Source\PSoC5/CapSense_CSD_CSHL.c **** 
 878:.\Generated_Source\PSoC5/CapSense_CSD_CSHL.c **** }
 1149              		.loc 1 878 0
 1150 007c 07F11407 		add	r7, r7, #20
 1151 0080 BD46     		mov	sp, r7
 1152 0082 80BC     		pop	{r7}
 1153 0084 7047     		bx	lr
 1154              		.cfi_endproc
 1155              	.LFE10:
 1156              		.size	CapSense_CSD_DisableWidget, .-CapSense_CSD_DisableWidget
 1157 0086 00BF     		.section	.text.CapSense_CSD_FindMaximum,"ax",%progbits
 1158              		.align	2
 1159              		.global	CapSense_CSD_FindMaximum
 1160              		.thumb
 1161              		.thumb_func
 1162              		.type	CapSense_CSD_FindMaximum, %function
 1163              	CapSense_CSD_FindMaximum:
 1164              	.LFB11:
 879:.\Generated_Source\PSoC5/CapSense_CSD_CSHL.c **** #if(CapSense_CSD_TOTAL_CENTROIDS_COUNT)
ARM GAS  C:\Users\yguan5\AppData\Local\Temp\ccX3ogeL.s 			page 37


 880:.\Generated_Source\PSoC5/CapSense_CSD_CSHL.c ****     /*******************************************************************************
 881:.\Generated_Source\PSoC5/CapSense_CSD_CSHL.c ****     * Function Name: CapSense_CSD_FindMaximum
 882:.\Generated_Source\PSoC5/CapSense_CSD_CSHL.c ****     ********************************************************************************
 883:.\Generated_Source\PSoC5/CapSense_CSD_CSHL.c ****     *
 884:.\Generated_Source\PSoC5/CapSense_CSD_CSHL.c ****     * Summary:
 885:.\Generated_Source\PSoC5/CapSense_CSD_CSHL.c ****     *  Finds index of maximum element within defined centroid. Checks 
 886:.\Generated_Source\PSoC5/CapSense_CSD_CSHL.c ****     *  CapSense_CSD_SensorSignal[] within defined cenrtoid and 
 887:.\Generated_Source\PSoC5/CapSense_CSD_CSHL.c ****     *  returns index of maximum element. The values below finger threshold are 
 888:.\Generated_Source\PSoC5/CapSense_CSD_CSHL.c ****     *  ignored.
 889:.\Generated_Source\PSoC5/CapSense_CSD_CSHL.c ****     *  The centrod defines by offset of first element and number of elements - count.
 890:.\Generated_Source\PSoC5/CapSense_CSD_CSHL.c ****     *  The diplexed centroid requires at least consecutive two elements above
 891:.\Generated_Source\PSoC5/CapSense_CSD_CSHL.c ****     *  FingerThreshold to find index of maximum element.
 892:.\Generated_Source\PSoC5/CapSense_CSD_CSHL.c ****     * 
 893:.\Generated_Source\PSoC5/CapSense_CSD_CSHL.c ****     * Parameters:
 894:.\Generated_Source\PSoC5/CapSense_CSD_CSHL.c ****     *  offset:  Start index of cetroid in CapSense_CSD_SensorSignal[] array.
 895:.\Generated_Source\PSoC5/CapSense_CSD_CSHL.c ****     *  count:   number of elements within centroid.
 896:.\Generated_Source\PSoC5/CapSense_CSD_CSHL.c ****     *  fingerThreshold:  Finger threshould.
 897:.\Generated_Source\PSoC5/CapSense_CSD_CSHL.c ****     *  diplex:   pointer to diplex table.
 898:.\Generated_Source\PSoC5/CapSense_CSD_CSHL.c ****     * 
 899:.\Generated_Source\PSoC5/CapSense_CSD_CSHL.c ****     * Return:
 900:.\Generated_Source\PSoC5/CapSense_CSD_CSHL.c ****     *  Returns index of maximum element within defined centroid.
 901:.\Generated_Source\PSoC5/CapSense_CSD_CSHL.c ****     *  If index of maximum element doesn't find the 0xFF returns.
 902:.\Generated_Source\PSoC5/CapSense_CSD_CSHL.c ****     * 
 903:.\Generated_Source\PSoC5/CapSense_CSD_CSHL.c ****     *******************************************************************************/
 904:.\Generated_Source\PSoC5/CapSense_CSD_CSHL.c ****     #if (CapSense_CSD_IS_DIPLEX_SLIDER)
 905:.\Generated_Source\PSoC5/CapSense_CSD_CSHL.c ****         uint8 CapSense_CSD_FindMaximum(uint8 offset, uint8 count, uint8 fingerThreshold, const uint
 906:.\Generated_Source\PSoC5/CapSense_CSD_CSHL.c **** 	                                       
 907:.\Generated_Source\PSoC5/CapSense_CSD_CSHL.c ****     #else 
 908:.\Generated_Source\PSoC5/CapSense_CSD_CSHL.c ****         uint8 CapSense_CSD_FindMaximum(uint8 offset, uint8 count, uint8 fingerThreshold)
 909:.\Generated_Source\PSoC5/CapSense_CSD_CSHL.c **** 	                                       
 910:.\Generated_Source\PSoC5/CapSense_CSD_CSHL.c ****     #endif /* (CapSense_CSD_IS_DIPLEX_SLIDER) */
 911:.\Generated_Source\PSoC5/CapSense_CSD_CSHL.c ****     {
 1165              		.loc 1 911 0
 1166              		.cfi_startproc
 1167              		@ args = 0, pretend = 0, frame = 16
 1168              		@ frame_needed = 1, uses_anonymous_args = 0
 1169              		@ link register save eliminated.
 1170 0000 80B4     		push	{r7}
 1171              	.LCFI33:
 1172              		.cfi_def_cfa_offset 4
 1173 0002 85B0     		sub	sp, sp, #20
 1174              	.LCFI34:
 1175              		.cfi_def_cfa_offset 24
 1176 0004 00AF     		add	r7, sp, #0
 1177              		.cfi_offset 7, -4
 1178              	.LCFI35:
 1179              		.cfi_def_cfa_register 7
 1180 0006 1346     		mov	r3, r2
 1181 0008 0246     		mov	r2, r0
 1182 000a FA71     		strb	r2, [r7, #7]
 1183 000c 0A46     		mov	r2, r1
 1184 000e BA71     		strb	r2, [r7, #6]
 1185 0010 7B71     		strb	r3, [r7, #5]
 912:.\Generated_Source\PSoC5/CapSense_CSD_CSHL.c ****         uint8 i;
 913:.\Generated_Source\PSoC5/CapSense_CSD_CSHL.c ****         #if (CapSense_CSD_IS_DIPLEX_SLIDER)        
 914:.\Generated_Source\PSoC5/CapSense_CSD_CSHL.c ****             uint8 curPos = 0u;
 915:.\Generated_Source\PSoC5/CapSense_CSD_CSHL.c ****             /* No centroid at the Start */
ARM GAS  C:\Users\yguan5\AppData\Local\Temp\ccX3ogeL.s 			page 38


 916:.\Generated_Source\PSoC5/CapSense_CSD_CSHL.c ****             uint8 curCntrdSize = 0u;
 917:.\Generated_Source\PSoC5/CapSense_CSD_CSHL.c ****             uint8 curCtrdStartPos = 0xFFu;
 918:.\Generated_Source\PSoC5/CapSense_CSD_CSHL.c ****             /* The biggset centroid is zero */
 919:.\Generated_Source\PSoC5/CapSense_CSD_CSHL.c ****             uint8 biggestCtrdSize = 0u;
 920:.\Generated_Source\PSoC5/CapSense_CSD_CSHL.c ****             uint8 biggestCtrdStartPos = 0u;
 921:.\Generated_Source\PSoC5/CapSense_CSD_CSHL.c ****         #endif /* (CapSense_CSD_IS_DIPLEX_SLIDER) */
 922:.\Generated_Source\PSoC5/CapSense_CSD_CSHL.c ****         uint8 maximum = 0xFFu;
 1186              		.loc 1 922 0
 1187 0012 4FF0FF33 		mov	r3, #-1
 1188 0016 BB72     		strb	r3, [r7, #10]
 923:.\Generated_Source\PSoC5/CapSense_CSD_CSHL.c ****         uint8 temp = 0u;
 1189              		.loc 1 923 0
 1190 0018 4FF00003 		mov	r3, #0
 1191 001c FB72     		strb	r3, [r7, #11]
 924:.\Generated_Source\PSoC5/CapSense_CSD_CSHL.c ****         uint8 *startOfSlider = &CapSense_CSD_SensorSignal[offset]; 
 1192              		.loc 1 924 0
 1193 001e FA79     		ldrb	r2, [r7, #7]	@ zero_extendqisi2
 1194 0020 40F20003 		movw	r3, #:lower16:CapSense_CSD_SensorSignal
 1195 0024 C0F20003 		movt	r3, #:upper16:CapSense_CSD_SensorSignal
 1196 0028 1344     		add	r3, r2, r3
 1197 002a FB60     		str	r3, [r7, #12]
 925:.\Generated_Source\PSoC5/CapSense_CSD_CSHL.c **** 
 926:.\Generated_Source\PSoC5/CapSense_CSD_CSHL.c ****         #if (CapSense_CSD_IS_DIPLEX_SLIDER)        
 927:.\Generated_Source\PSoC5/CapSense_CSD_CSHL.c ****             if(diplex != 0u)
 928:.\Generated_Source\PSoC5/CapSense_CSD_CSHL.c ****             {
 929:.\Generated_Source\PSoC5/CapSense_CSD_CSHL.c ****                 /* Initialize */
 930:.\Generated_Source\PSoC5/CapSense_CSD_CSHL.c ****                 i = 0u;
 931:.\Generated_Source\PSoC5/CapSense_CSD_CSHL.c ****                 
 932:.\Generated_Source\PSoC5/CapSense_CSD_CSHL.c ****                 /* Make slider x2 as Diplexed */
 933:.\Generated_Source\PSoC5/CapSense_CSD_CSHL.c ****                 count <<= 1u;
 934:.\Generated_Source\PSoC5/CapSense_CSD_CSHL.c ****                 while(1u)
 935:.\Generated_Source\PSoC5/CapSense_CSD_CSHL.c ****                 { 
 936:.\Generated_Source\PSoC5/CapSense_CSD_CSHL.c ****                     if (startOfSlider[curPos] > 0u)    /* Looking for centroids */
 937:.\Generated_Source\PSoC5/CapSense_CSD_CSHL.c ****                     {
 938:.\Generated_Source\PSoC5/CapSense_CSD_CSHL.c ****                         if (curCtrdStartPos == 0xFFu)
 939:.\Generated_Source\PSoC5/CapSense_CSD_CSHL.c ****                         {
 940:.\Generated_Source\PSoC5/CapSense_CSD_CSHL.c ****                             /* Start of centroid */
 941:.\Generated_Source\PSoC5/CapSense_CSD_CSHL.c ****                             curCtrdStartPos = i;
 942:.\Generated_Source\PSoC5/CapSense_CSD_CSHL.c ****                             curCntrdSize++;
 943:.\Generated_Source\PSoC5/CapSense_CSD_CSHL.c ****                         }
 944:.\Generated_Source\PSoC5/CapSense_CSD_CSHL.c ****                         else
 945:.\Generated_Source\PSoC5/CapSense_CSD_CSHL.c ****                         {
 946:.\Generated_Source\PSoC5/CapSense_CSD_CSHL.c ****                             curCntrdSize++;
 947:.\Generated_Source\PSoC5/CapSense_CSD_CSHL.c ****                         }
 948:.\Generated_Source\PSoC5/CapSense_CSD_CSHL.c ****                     }
 949:.\Generated_Source\PSoC5/CapSense_CSD_CSHL.c ****                     else   /* Select the bigest and indicate zero start */
 950:.\Generated_Source\PSoC5/CapSense_CSD_CSHL.c ****                     {          
 951:.\Generated_Source\PSoC5/CapSense_CSD_CSHL.c ****                         if(curCntrdSize > 0)
 952:.\Generated_Source\PSoC5/CapSense_CSD_CSHL.c ****                         {
 953:.\Generated_Source\PSoC5/CapSense_CSD_CSHL.c ****                             /* We are in the end of current */
 954:.\Generated_Source\PSoC5/CapSense_CSD_CSHL.c ****                             if(curCntrdSize > biggestCtrdSize)
 955:.\Generated_Source\PSoC5/CapSense_CSD_CSHL.c ****                             {
 956:.\Generated_Source\PSoC5/CapSense_CSD_CSHL.c ****                                 biggestCtrdSize = curCntrdSize;
 957:.\Generated_Source\PSoC5/CapSense_CSD_CSHL.c ****                                 biggestCtrdStartPos = curCtrdStartPos;
 958:.\Generated_Source\PSoC5/CapSense_CSD_CSHL.c ****                             }
 959:.\Generated_Source\PSoC5/CapSense_CSD_CSHL.c ****                             
 960:.\Generated_Source\PSoC5/CapSense_CSD_CSHL.c ****                             curCntrdSize = 0u;
ARM GAS  C:\Users\yguan5\AppData\Local\Temp\ccX3ogeL.s 			page 39


 961:.\Generated_Source\PSoC5/CapSense_CSD_CSHL.c ****                             curCtrdStartPos = 0xFFu;
 962:.\Generated_Source\PSoC5/CapSense_CSD_CSHL.c ****                         }
 963:.\Generated_Source\PSoC5/CapSense_CSD_CSHL.c ****                     }
 964:.\Generated_Source\PSoC5/CapSense_CSD_CSHL.c ****                     
 965:.\Generated_Source\PSoC5/CapSense_CSD_CSHL.c ****                     i++; 
 966:.\Generated_Source\PSoC5/CapSense_CSD_CSHL.c ****                     curPos = diplex[i];
 967:.\Generated_Source\PSoC5/CapSense_CSD_CSHL.c ****                     if(i == count)
 968:.\Generated_Source\PSoC5/CapSense_CSD_CSHL.c ****                     {
 969:.\Generated_Source\PSoC5/CapSense_CSD_CSHL.c ****                         break;
 970:.\Generated_Source\PSoC5/CapSense_CSD_CSHL.c ****                     }            
 971:.\Generated_Source\PSoC5/CapSense_CSD_CSHL.c ****                 }
 972:.\Generated_Source\PSoC5/CapSense_CSD_CSHL.c ****                     
 973:.\Generated_Source\PSoC5/CapSense_CSD_CSHL.c ****                     /* Find the biggest centroid if two are the same size, last one wins
 974:.\Generated_Source\PSoC5/CapSense_CSD_CSHL.c ****                        We are in the end of current */
 975:.\Generated_Source\PSoC5/CapSense_CSD_CSHL.c ****                 if (curCntrdSize >= biggestCtrdSize) 
 976:.\Generated_Source\PSoC5/CapSense_CSD_CSHL.c ****                 {
 977:.\Generated_Source\PSoC5/CapSense_CSD_CSHL.c ****                     biggestCtrdSize = curCntrdSize;
 978:.\Generated_Source\PSoC5/CapSense_CSD_CSHL.c ****                     biggestCtrdStartPos = curCtrdStartPos;
 979:.\Generated_Source\PSoC5/CapSense_CSD_CSHL.c ****                 }
 980:.\Generated_Source\PSoC5/CapSense_CSD_CSHL.c ****             }
 981:.\Generated_Source\PSoC5/CapSense_CSD_CSHL.c ****             else
 982:.\Generated_Source\PSoC5/CapSense_CSD_CSHL.c ****             {
 983:.\Generated_Source\PSoC5/CapSense_CSD_CSHL.c ****                 /* Without diplexing */ 
 984:.\Generated_Source\PSoC5/CapSense_CSD_CSHL.c ****                 biggestCtrdSize = count;
 985:.\Generated_Source\PSoC5/CapSense_CSD_CSHL.c ****             }
 986:.\Generated_Source\PSoC5/CapSense_CSD_CSHL.c ****                         
 987:.\Generated_Source\PSoC5/CapSense_CSD_CSHL.c **** 
 988:.\Generated_Source\PSoC5/CapSense_CSD_CSHL.c ****             /* Check centroid size */
 989:.\Generated_Source\PSoC5/CapSense_CSD_CSHL.c ****             #if (CapSense_CSD_IS_NON_DIPLEX_SLIDER)
 990:.\Generated_Source\PSoC5/CapSense_CSD_CSHL.c ****                 if((biggestCtrdSize >= 2u) || ((biggestCtrdSize == 1u) && (diplex == 0u)))
 991:.\Generated_Source\PSoC5/CapSense_CSD_CSHL.c ****             #else                    
 992:.\Generated_Source\PSoC5/CapSense_CSD_CSHL.c ****                 if(biggestCtrdSize >= 2u)
 993:.\Generated_Source\PSoC5/CapSense_CSD_CSHL.c ****             #endif /* (CapSense_CSD_IS_NON_DIPLEX_SLIDER) */
 994:.\Generated_Source\PSoC5/CapSense_CSD_CSHL.c ****                 {
 995:.\Generated_Source\PSoC5/CapSense_CSD_CSHL.c ****                     for (i = biggestCtrdStartPos; i < (biggestCtrdStartPos + biggestCtrdSize); i++)
 996:.\Generated_Source\PSoC5/CapSense_CSD_CSHL.c ****                     {
 997:.\Generated_Source\PSoC5/CapSense_CSD_CSHL.c ****                         #if (CapSense_CSD_IS_DIPLEX_SLIDER && CapSense_CSD_IS_NON_DIPLEX_SLIDER)
 998:.\Generated_Source\PSoC5/CapSense_CSD_CSHL.c ****                             if (diplex == 0u)
 999:.\Generated_Source\PSoC5/CapSense_CSD_CSHL.c ****                             {
1000:.\Generated_Source\PSoC5/CapSense_CSD_CSHL.c ****                                 curPos = i;
1001:.\Generated_Source\PSoC5/CapSense_CSD_CSHL.c ****                             }
1002:.\Generated_Source\PSoC5/CapSense_CSD_CSHL.c ****                             else
1003:.\Generated_Source\PSoC5/CapSense_CSD_CSHL.c ****                             {
1004:.\Generated_Source\PSoC5/CapSense_CSD_CSHL.c ****                                 curPos = diplex[i];
1005:.\Generated_Source\PSoC5/CapSense_CSD_CSHL.c ****                             }                    
1006:.\Generated_Source\PSoC5/CapSense_CSD_CSHL.c ****                         #elif (CapSense_CSD_IS_DIPLEX_SLIDER)                    
1007:.\Generated_Source\PSoC5/CapSense_CSD_CSHL.c ****                             curPos = diplex[i];                    
1008:.\Generated_Source\PSoC5/CapSense_CSD_CSHL.c ****                         #endif /* (CapSense_CSD_IS_DIPLEX_SLIDER && CapSense_CSD_IS_NON_DIPLEX_SLID
1009:.\Generated_Source\PSoC5/CapSense_CSD_CSHL.c ****                         /* Looking for the grater element within centroid */
1010:.\Generated_Source\PSoC5/CapSense_CSD_CSHL.c ****                         if(startOfSlider[curPos] > fingerThreshold)
1011:.\Generated_Source\PSoC5/CapSense_CSD_CSHL.c ****                         {
1012:.\Generated_Source\PSoC5/CapSense_CSD_CSHL.c ****                             if(startOfSlider[curPos] > temp)
1013:.\Generated_Source\PSoC5/CapSense_CSD_CSHL.c ****                             {
1014:.\Generated_Source\PSoC5/CapSense_CSD_CSHL.c ****                                 maximum = i;
1015:.\Generated_Source\PSoC5/CapSense_CSD_CSHL.c ****                                 temp = startOfSlider[curPos];
1016:.\Generated_Source\PSoC5/CapSense_CSD_CSHL.c ****                             }
1017:.\Generated_Source\PSoC5/CapSense_CSD_CSHL.c ****                         }
ARM GAS  C:\Users\yguan5\AppData\Local\Temp\ccX3ogeL.s 			page 40


1018:.\Generated_Source\PSoC5/CapSense_CSD_CSHL.c ****                     }
1019:.\Generated_Source\PSoC5/CapSense_CSD_CSHL.c ****                 } 
1020:.\Generated_Source\PSoC5/CapSense_CSD_CSHL.c ****         #else
1021:.\Generated_Source\PSoC5/CapSense_CSD_CSHL.c ****             for (i = 0u; i < count; i++)
 1198              		.loc 1 1021 0
 1199 002c 4FF00003 		mov	r3, #0
 1200 0030 7B72     		strb	r3, [r7, #9]
 1201 0032 18E0     		b	.L64
 1202              	.L66:
1022:.\Generated_Source\PSoC5/CapSense_CSD_CSHL.c ****             {                      
1023:.\Generated_Source\PSoC5/CapSense_CSD_CSHL.c ****                 /* Looking for the grater element within centroid */
1024:.\Generated_Source\PSoC5/CapSense_CSD_CSHL.c ****                 if(startOfSlider[i] > fingerThreshold)
 1203              		.loc 1 1024 0
 1204 0034 7A7A     		ldrb	r2, [r7, #9]	@ zero_extendqisi2
 1205 0036 FB68     		ldr	r3, [r7, #12]
 1206 0038 1344     		add	r3, r2, r3
 1207 003a 1B78     		ldrb	r3, [r3, #0]	@ zero_extendqisi2
 1208 003c 7A79     		ldrb	r2, [r7, #5]	@ zero_extendqisi2
 1209 003e 9A42     		cmp	r2, r3
 1210 0040 0DD2     		bcs	.L65
1025:.\Generated_Source\PSoC5/CapSense_CSD_CSHL.c ****                 {
1026:.\Generated_Source\PSoC5/CapSense_CSD_CSHL.c ****                     if(startOfSlider[i] > temp)
 1211              		.loc 1 1026 0
 1212 0042 7A7A     		ldrb	r2, [r7, #9]	@ zero_extendqisi2
 1213 0044 FB68     		ldr	r3, [r7, #12]
 1214 0046 1344     		add	r3, r2, r3
 1215 0048 1B78     		ldrb	r3, [r3, #0]	@ zero_extendqisi2
 1216 004a FA7A     		ldrb	r2, [r7, #11]	@ zero_extendqisi2
 1217 004c 9A42     		cmp	r2, r3
 1218 004e 06D2     		bcs	.L65
1027:.\Generated_Source\PSoC5/CapSense_CSD_CSHL.c ****                     {
1028:.\Generated_Source\PSoC5/CapSense_CSD_CSHL.c ****                         maximum = i;
 1219              		.loc 1 1028 0
 1220 0050 7B7A     		ldrb	r3, [r7, #9]
 1221 0052 BB72     		strb	r3, [r7, #10]
1029:.\Generated_Source\PSoC5/CapSense_CSD_CSHL.c ****                         temp = startOfSlider[i];
 1222              		.loc 1 1029 0
 1223 0054 7A7A     		ldrb	r2, [r7, #9]	@ zero_extendqisi2
 1224 0056 FB68     		ldr	r3, [r7, #12]
 1225 0058 1344     		add	r3, r2, r3
 1226 005a 1B78     		ldrb	r3, [r3, #0]
 1227 005c FB72     		strb	r3, [r7, #11]
 1228              	.L65:
 1229              		.loc 1 1021 0
 1230 005e 7B7A     		ldrb	r3, [r7, #9]
 1231 0060 03F10103 		add	r3, r3, #1
 1232 0064 7B72     		strb	r3, [r7, #9]
 1233              	.L64:
 1234 0066 7A7A     		ldrb	r2, [r7, #9]	@ zero_extendqisi2
 1235 0068 BB79     		ldrb	r3, [r7, #6]	@ zero_extendqisi2
 1236 006a 9A42     		cmp	r2, r3
 1237 006c E2D3     		bcc	.L66
1030:.\Generated_Source\PSoC5/CapSense_CSD_CSHL.c ****                     }
1031:.\Generated_Source\PSoC5/CapSense_CSD_CSHL.c ****                 }
1032:.\Generated_Source\PSoC5/CapSense_CSD_CSHL.c ****             }    
1033:.\Generated_Source\PSoC5/CapSense_CSD_CSHL.c ****         #endif /* (CapSense_CSD_IS_DIPLEX_SLIDER) */
1034:.\Generated_Source\PSoC5/CapSense_CSD_CSHL.c ****         return (maximum);
ARM GAS  C:\Users\yguan5\AppData\Local\Temp\ccX3ogeL.s 			page 41


 1238              		.loc 1 1034 0
 1239 006e BB7A     		ldrb	r3, [r7, #10]	@ zero_extendqisi2
1035:.\Generated_Source\PSoC5/CapSense_CSD_CSHL.c ****     }
 1240              		.loc 1 1035 0
 1241 0070 1846     		mov	r0, r3
 1242 0072 07F11407 		add	r7, r7, #20
 1243 0076 BD46     		mov	sp, r7
 1244 0078 80BC     		pop	{r7}
 1245 007a 7047     		bx	lr
 1246              		.cfi_endproc
 1247              	.LFE11:
 1248              		.size	CapSense_CSD_FindMaximum, .-CapSense_CSD_FindMaximum
 1249              		.section	.text.CapSense_CSD_CalcCentroid,"ax",%progbits
 1250              		.align	2
 1251              		.global	CapSense_CSD_CalcCentroid
 1252              		.thumb
 1253              		.thumb_func
 1254              		.type	CapSense_CSD_CalcCentroid, %function
 1255              	CapSense_CSD_CalcCentroid:
 1256              	.LFB12:
1036:.\Generated_Source\PSoC5/CapSense_CSD_CSHL.c ****     
1037:.\Generated_Source\PSoC5/CapSense_CSD_CSHL.c ****     
1038:.\Generated_Source\PSoC5/CapSense_CSD_CSHL.c ****     /*******************************************************************************
1039:.\Generated_Source\PSoC5/CapSense_CSD_CSHL.c ****     * Function Name: CapSense_CSD_CalcCentroid
1040:.\Generated_Source\PSoC5/CapSense_CSD_CSHL.c ****     ********************************************************************************
1041:.\Generated_Source\PSoC5/CapSense_CSD_CSHL.c ****     *
1042:.\Generated_Source\PSoC5/CapSense_CSD_CSHL.c ****     * Summary:
1043:.\Generated_Source\PSoC5/CapSense_CSD_CSHL.c ****     *  Returns position value calculated accoring index of maximum element and API
1044:.\Generated_Source\PSoC5/CapSense_CSD_CSHL.c ****     *  resolution.
1045:.\Generated_Source\PSoC5/CapSense_CSD_CSHL.c ****     *
1046:.\Generated_Source\PSoC5/CapSense_CSD_CSHL.c ****     * Parameters:
1047:.\Generated_Source\PSoC5/CapSense_CSD_CSHL.c ****     *  type:  widget type.
1048:.\Generated_Source\PSoC5/CapSense_CSD_CSHL.c ****     *  diplex:  pointer to diplex table.
1049:.\Generated_Source\PSoC5/CapSense_CSD_CSHL.c ****     *  maximum:  Index of maximum element within centroid.
1050:.\Generated_Source\PSoC5/CapSense_CSD_CSHL.c ****     *  offset:   Start index of cetroid in CapSense_CSD_SensorSignal[] array.
1051:.\Generated_Source\PSoC5/CapSense_CSD_CSHL.c ****     *  count:    Number of elements within centroid.
1052:.\Generated_Source\PSoC5/CapSense_CSD_CSHL.c ****     *  resolution:  multiplicator calculated according to centroid type and
1053:.\Generated_Source\PSoC5/CapSense_CSD_CSHL.c ****     *  API resolution.
1054:.\Generated_Source\PSoC5/CapSense_CSD_CSHL.c ****     *  noiseThreshold:  Noise threshould.
1055:.\Generated_Source\PSoC5/CapSense_CSD_CSHL.c ****     * 
1056:.\Generated_Source\PSoC5/CapSense_CSD_CSHL.c ****     * Return:
1057:.\Generated_Source\PSoC5/CapSense_CSD_CSHL.c ****     *  Returns position value of the slider.
1058:.\Generated_Source\PSoC5/CapSense_CSD_CSHL.c ****     * 
1059:.\Generated_Source\PSoC5/CapSense_CSD_CSHL.c ****     *
1060:.\Generated_Source\PSoC5/CapSense_CSD_CSHL.c ****     * Reentrant:
1061:.\Generated_Source\PSoC5/CapSense_CSD_CSHL.c ****     *  No.
1062:.\Generated_Source\PSoC5/CapSense_CSD_CSHL.c ****     *
1063:.\Generated_Source\PSoC5/CapSense_CSD_CSHL.c ****     *******************************************************************************/
1064:.\Generated_Source\PSoC5/CapSense_CSD_CSHL.c ****     uint8 CapSense_CSD_CalcCentroid(uint8 maximum, uint8 offset, 
1065:.\Generated_Source\PSoC5/CapSense_CSD_CSHL.c ****                                         uint8 count, uint16 resolution, uint8 noiseThreshold)
1066:.\Generated_Source\PSoC5/CapSense_CSD_CSHL.c **** 	                                    
1067:.\Generated_Source\PSoC5/CapSense_CSD_CSHL.c ****     {
 1257              		.loc 1 1067 0
 1258              		.cfi_startproc
 1259              		@ args = 4, pretend = 0, frame = 24
 1260              		@ frame_needed = 1, uses_anonymous_args = 0
 1261              		@ link register save eliminated.
ARM GAS  C:\Users\yguan5\AppData\Local\Temp\ccX3ogeL.s 			page 42


 1262 0000 80B4     		push	{r7}
 1263              	.LCFI36:
 1264              		.cfi_def_cfa_offset 4
 1265 0002 87B0     		sub	sp, sp, #28
 1266              	.LCFI37:
 1267              		.cfi_def_cfa_offset 32
 1268 0004 00AF     		add	r7, sp, #0
 1269              		.cfi_offset 7, -4
 1270              	.LCFI38:
 1271              		.cfi_def_cfa_register 7
 1272 0006 F871     		strb	r0, [r7, #7]
 1273 0008 B971     		strb	r1, [r7, #6]
 1274 000a 7A71     		strb	r2, [r7, #5]
 1275 000c 7B80     		strh	r3, [r7, #2]	@ movhi
1068:.\Generated_Source\PSoC5/CapSense_CSD_CSHL.c ****         #if ((CapSense_CSD_TOTAL_LINEAR_SLIDERS_COUNT > 0u) || (CapSense_CSD_TOTAL_TOUCH_PADS_COUNT
1069:.\Generated_Source\PSoC5/CapSense_CSD_CSHL.c ****             uint8 posPrev;
1070:.\Generated_Source\PSoC5/CapSense_CSD_CSHL.c ****             uint8 posNext;
1071:.\Generated_Source\PSoC5/CapSense_CSD_CSHL.c ****         #endif /* ((CapSense_CSD_TOTAL_LINEAR_SLIDERS_COUNT>0u) || (CapSense_CSD_TOTAL_TOUCH_PADS_C
1072:.\Generated_Source\PSoC5/CapSense_CSD_CSHL.c ****                
1073:.\Generated_Source\PSoC5/CapSense_CSD_CSHL.c ****         #if (CapSense_CSD_IS_DIPLEX_SLIDER)                
1074:.\Generated_Source\PSoC5/CapSense_CSD_CSHL.c ****             uint8 pos;
1075:.\Generated_Source\PSoC5/CapSense_CSD_CSHL.c ****         #endif /* (CapSense_CSD_IS_DIPLEX_SLIDER) */
1076:.\Generated_Source\PSoC5/CapSense_CSD_CSHL.c **** 
1077:.\Generated_Source\PSoC5/CapSense_CSD_CSHL.c ****         uint8 position;
1078:.\Generated_Source\PSoC5/CapSense_CSD_CSHL.c ****         int32 numerator;
1079:.\Generated_Source\PSoC5/CapSense_CSD_CSHL.c ****         int32 denominator;
1080:.\Generated_Source\PSoC5/CapSense_CSD_CSHL.c ****         uint8 *startOfSlider = &CapSense_CSD_SensorSignal[offset];
 1276              		.loc 1 1080 0
 1277 000e BA79     		ldrb	r2, [r7, #6]	@ zero_extendqisi2
 1278 0010 40F20003 		movw	r3, #:lower16:CapSense_CSD_SensorSignal
 1279 0014 C0F20003 		movt	r3, #:upper16:CapSense_CSD_SensorSignal
 1280 0018 1344     		add	r3, r2, r3
 1281 001a 7B61     		str	r3, [r7, #20]
1081:.\Generated_Source\PSoC5/CapSense_CSD_CSHL.c ****                     
1082:.\Generated_Source\PSoC5/CapSense_CSD_CSHL.c ****         #if (CapSense_CSD_ADD_SLIDER_TYPE)
1083:.\Generated_Source\PSoC5/CapSense_CSD_CSHL.c ****             if(type == CapSense_CSD_TYPE_RADIAL_SLIDER)
1084:.\Generated_Source\PSoC5/CapSense_CSD_CSHL.c ****             {
1085:.\Generated_Source\PSoC5/CapSense_CSD_CSHL.c ****         #endif /* (CapSense_CSD_ADD_SLIDER_TYPE) */
1086:.\Generated_Source\PSoC5/CapSense_CSD_CSHL.c **** 
1087:.\Generated_Source\PSoC5/CapSense_CSD_CSHL.c ****             #if (CapSense_CSD_TOTAL_RADIAL_SLIDERS_COUNT > 0u)                
1088:.\Generated_Source\PSoC5/CapSense_CSD_CSHL.c ****                 /* Copy Signal for found centriod */
1089:.\Generated_Source\PSoC5/CapSense_CSD_CSHL.c ****                 CapSense_CSD_centroid[CapSense_CSD_POS] = startOfSlider[maximum];
1090:.\Generated_Source\PSoC5/CapSense_CSD_CSHL.c ****                  
1091:.\Generated_Source\PSoC5/CapSense_CSD_CSHL.c ****                 /* Check borders for ROTARY Slider */
1092:.\Generated_Source\PSoC5/CapSense_CSD_CSHL.c ****                 if (maximum == 0u)                   /* Start of centroid */
1093:.\Generated_Source\PSoC5/CapSense_CSD_CSHL.c ****                 { 
1094:.\Generated_Source\PSoC5/CapSense_CSD_CSHL.c ****                     CapSense_CSD_centroid[CapSense_CSD_POS_PREV] = startOfSlider[count - 1u];
1095:.\Generated_Source\PSoC5/CapSense_CSD_CSHL.c ****                     CapSense_CSD_centroid[CapSense_CSD_POS_NEXT] = startOfSlider[maximum + 1u];
1096:.\Generated_Source\PSoC5/CapSense_CSD_CSHL.c ****                 }
1097:.\Generated_Source\PSoC5/CapSense_CSD_CSHL.c ****                 else if (maximum == (count - 1u))    /* End of centroid */
1098:.\Generated_Source\PSoC5/CapSense_CSD_CSHL.c ****                 {
1099:.\Generated_Source\PSoC5/CapSense_CSD_CSHL.c ****                     CapSense_CSD_centroid[CapSense_CSD_POS_PREV] = startOfSlider[maximum - 1u];
1100:.\Generated_Source\PSoC5/CapSense_CSD_CSHL.c ****                     CapSense_CSD_centroid[CapSense_CSD_POS_NEXT] = startOfSlider[0u];
1101:.\Generated_Source\PSoC5/CapSense_CSD_CSHL.c ****                 }
1102:.\Generated_Source\PSoC5/CapSense_CSD_CSHL.c ****                 else                                /* Not first Not last */
1103:.\Generated_Source\PSoC5/CapSense_CSD_CSHL.c ****                 {
1104:.\Generated_Source\PSoC5/CapSense_CSD_CSHL.c ****                     CapSense_CSD_centroid[CapSense_CSD_POS_PREV] = startOfSlider[maximum - 1u];
ARM GAS  C:\Users\yguan5\AppData\Local\Temp\ccX3ogeL.s 			page 43


1105:.\Generated_Source\PSoC5/CapSense_CSD_CSHL.c ****                     CapSense_CSD_centroid[CapSense_CSD_POS_NEXT] = startOfSlider[maximum + 1u];
1106:.\Generated_Source\PSoC5/CapSense_CSD_CSHL.c ****                 }
1107:.\Generated_Source\PSoC5/CapSense_CSD_CSHL.c ****             #endif /* (CapSense_CSD_TOTAL_RADIAL_SLIDERS_COUNT > 0u) */
1108:.\Generated_Source\PSoC5/CapSense_CSD_CSHL.c **** 
1109:.\Generated_Source\PSoC5/CapSense_CSD_CSHL.c ****         #if (CapSense_CSD_ADD_SLIDER_TYPE)
1110:.\Generated_Source\PSoC5/CapSense_CSD_CSHL.c ****             }
1111:.\Generated_Source\PSoC5/CapSense_CSD_CSHL.c ****             else
1112:.\Generated_Source\PSoC5/CapSense_CSD_CSHL.c ****             {
1113:.\Generated_Source\PSoC5/CapSense_CSD_CSHL.c ****         #endif
1114:.\Generated_Source\PSoC5/CapSense_CSD_CSHL.c **** 
1115:.\Generated_Source\PSoC5/CapSense_CSD_CSHL.c ****             #if ((CapSense_CSD_TOTAL_LINEAR_SLIDERS_COUNT > 0u) || (CapSense_CSD_TOTAL_TOUCH_PADS_C
1116:.\Generated_Source\PSoC5/CapSense_CSD_CSHL.c ****                 #if (CapSense_CSD_IS_DIPLEX_SLIDER && CapSense_CSD_IS_NON_DIPLEX_SLIDER)           
1117:.\Generated_Source\PSoC5/CapSense_CSD_CSHL.c ****                     /* Calculate next and previous near to maximum */
1118:.\Generated_Source\PSoC5/CapSense_CSD_CSHL.c ****                     if(diplex == 0u)
1119:.\Generated_Source\PSoC5/CapSense_CSD_CSHL.c ****                     {
1120:.\Generated_Source\PSoC5/CapSense_CSD_CSHL.c ****                         pos     = maximum;
1121:.\Generated_Source\PSoC5/CapSense_CSD_CSHL.c ****                         posPrev = maximum - 1u;
1122:.\Generated_Source\PSoC5/CapSense_CSD_CSHL.c ****                         posNext = maximum + 1u; 
1123:.\Generated_Source\PSoC5/CapSense_CSD_CSHL.c ****                     }
1124:.\Generated_Source\PSoC5/CapSense_CSD_CSHL.c ****                     else
1125:.\Generated_Source\PSoC5/CapSense_CSD_CSHL.c ****                     {
1126:.\Generated_Source\PSoC5/CapSense_CSD_CSHL.c ****                         pos     = diplex[maximum];
1127:.\Generated_Source\PSoC5/CapSense_CSD_CSHL.c ****                         posPrev = diplex[maximum - 1u];
1128:.\Generated_Source\PSoC5/CapSense_CSD_CSHL.c ****                         posNext = diplex[maximum + 1u];
1129:.\Generated_Source\PSoC5/CapSense_CSD_CSHL.c ****                         count <<= 1u;
1130:.\Generated_Source\PSoC5/CapSense_CSD_CSHL.c ****                     }                    
1131:.\Generated_Source\PSoC5/CapSense_CSD_CSHL.c ****                 #elif (CapSense_CSD_IS_DIPLEX_SLIDER)
1132:.\Generated_Source\PSoC5/CapSense_CSD_CSHL.c ****                     /* Calculate next and previous near to maximum */
1133:.\Generated_Source\PSoC5/CapSense_CSD_CSHL.c ****                     pos     = diplex[maximum];
1134:.\Generated_Source\PSoC5/CapSense_CSD_CSHL.c ****                     posPrev = diplex[maximum - 1u];
1135:.\Generated_Source\PSoC5/CapSense_CSD_CSHL.c ****                     posNext = diplex[maximum + 1u];
1136:.\Generated_Source\PSoC5/CapSense_CSD_CSHL.c ****                     count <<= 1u;                    
1137:.\Generated_Source\PSoC5/CapSense_CSD_CSHL.c ****                 #else                    
1138:.\Generated_Source\PSoC5/CapSense_CSD_CSHL.c ****                     /* Calculate next and previous near to maximum */
1139:.\Generated_Source\PSoC5/CapSense_CSD_CSHL.c ****                     posPrev = maximum - 1u;
 1282              		.loc 1 1139 0
 1283 001c FB79     		ldrb	r3, [r7, #7]
 1284 001e 03F1FF33 		add	r3, r3, #-1
 1285 0022 7B72     		strb	r3, [r7, #9]
1140:.\Generated_Source\PSoC5/CapSense_CSD_CSHL.c ****                     posNext = maximum + 1u; 
 1286              		.loc 1 1140 0
 1287 0024 FB79     		ldrb	r3, [r7, #7]
 1288 0026 03F10103 		add	r3, r3, #1
 1289 002a BB72     		strb	r3, [r7, #10]
1141:.\Generated_Source\PSoC5/CapSense_CSD_CSHL.c ****                 #endif /* (CapSense_CSD_IS_DIPLEX_SLIDER && CapSense_CSD_IS_NON_DIPLEX_SLIDER) */
1142:.\Generated_Source\PSoC5/CapSense_CSD_CSHL.c ****                         
1143:.\Generated_Source\PSoC5/CapSense_CSD_CSHL.c ****                 /* Copy Signal for found centriod */
1144:.\Generated_Source\PSoC5/CapSense_CSD_CSHL.c ****                 #if (CapSense_CSD_IS_DIPLEX_SLIDER)
1145:.\Generated_Source\PSoC5/CapSense_CSD_CSHL.c ****                     CapSense_CSD_centroid[CapSense_CSD_POS] = startOfSlider[pos];
1146:.\Generated_Source\PSoC5/CapSense_CSD_CSHL.c ****                 #else
1147:.\Generated_Source\PSoC5/CapSense_CSD_CSHL.c ****                     CapSense_CSD_centroid[CapSense_CSD_POS] = startOfSlider[maximum];
 1290              		.loc 1 1147 0
 1291 002c FA79     		ldrb	r2, [r7, #7]	@ zero_extendqisi2
 1292 002e 7B69     		ldr	r3, [r7, #20]
 1293 0030 1344     		add	r3, r2, r3
 1294 0032 1A78     		ldrb	r2, [r3, #0]	@ zero_extendqisi2
 1295 0034 40F20003 		movw	r3, #:lower16:CapSense_CSD_centroid
ARM GAS  C:\Users\yguan5\AppData\Local\Temp\ccX3ogeL.s 			page 44


 1296 0038 C0F20003 		movt	r3, #:upper16:CapSense_CSD_centroid
 1297 003c 5A70     		strb	r2, [r3, #1]
1148:.\Generated_Source\PSoC5/CapSense_CSD_CSHL.c ****                 #endif /* (CapSense_CSD_IS_DIPLEX_SLIDER) */
1149:.\Generated_Source\PSoC5/CapSense_CSD_CSHL.c ****                     
1150:.\Generated_Source\PSoC5/CapSense_CSD_CSHL.c ****                 /* Check borders for LINEAR Slider */
1151:.\Generated_Source\PSoC5/CapSense_CSD_CSHL.c ****                 if (maximum == 0u)                   /* Start of centroid */
 1298              		.loc 1 1151 0
 1299 003e FB79     		ldrb	r3, [r7, #7]	@ zero_extendqisi2
 1300 0040 002B     		cmp	r3, #0
 1301 0042 10D1     		bne	.L69
1152:.\Generated_Source\PSoC5/CapSense_CSD_CSHL.c ****                 { 
1153:.\Generated_Source\PSoC5/CapSense_CSD_CSHL.c ****                     CapSense_CSD_centroid[CapSense_CSD_POS_PREV] = 0u;
 1302              		.loc 1 1153 0
 1303 0044 40F20003 		movw	r3, #:lower16:CapSense_CSD_centroid
 1304 0048 C0F20003 		movt	r3, #:upper16:CapSense_CSD_centroid
 1305 004c 4FF00002 		mov	r2, #0
 1306 0050 1A70     		strb	r2, [r3, #0]
1154:.\Generated_Source\PSoC5/CapSense_CSD_CSHL.c ****                     CapSense_CSD_centroid[CapSense_CSD_POS_NEXT] = startOfSlider[posNext];
 1307              		.loc 1 1154 0
 1308 0052 BA7A     		ldrb	r2, [r7, #10]	@ zero_extendqisi2
 1309 0054 7B69     		ldr	r3, [r7, #20]
 1310 0056 1344     		add	r3, r2, r3
 1311 0058 1A78     		ldrb	r2, [r3, #0]	@ zero_extendqisi2
 1312 005a 40F20003 		movw	r3, #:lower16:CapSense_CSD_centroid
 1313 005e C0F20003 		movt	r3, #:upper16:CapSense_CSD_centroid
 1314 0062 9A70     		strb	r2, [r3, #2]
 1315 0064 28E0     		b	.L70
 1316              	.L69:
1155:.\Generated_Source\PSoC5/CapSense_CSD_CSHL.c ****                 }
1156:.\Generated_Source\PSoC5/CapSense_CSD_CSHL.c ****                 else if (maximum == ((count) - 1u)) /* End of centroid */
 1317              		.loc 1 1156 0
 1318 0066 FA79     		ldrb	r2, [r7, #7]	@ zero_extendqisi2
 1319 0068 7B79     		ldrb	r3, [r7, #5]	@ zero_extendqisi2
 1320 006a 03F1FF33 		add	r3, r3, #-1
 1321 006e 9A42     		cmp	r2, r3
 1322 0070 10D1     		bne	.L71
1157:.\Generated_Source\PSoC5/CapSense_CSD_CSHL.c ****                 {
1158:.\Generated_Source\PSoC5/CapSense_CSD_CSHL.c ****                     CapSense_CSD_centroid[CapSense_CSD_POS_PREV] = startOfSlider[posPrev];
 1323              		.loc 1 1158 0
 1324 0072 7A7A     		ldrb	r2, [r7, #9]	@ zero_extendqisi2
 1325 0074 7B69     		ldr	r3, [r7, #20]
 1326 0076 1344     		add	r3, r2, r3
 1327 0078 1A78     		ldrb	r2, [r3, #0]	@ zero_extendqisi2
 1328 007a 40F20003 		movw	r3, #:lower16:CapSense_CSD_centroid
 1329 007e C0F20003 		movt	r3, #:upper16:CapSense_CSD_centroid
 1330 0082 1A70     		strb	r2, [r3, #0]
1159:.\Generated_Source\PSoC5/CapSense_CSD_CSHL.c ****                     CapSense_CSD_centroid[CapSense_CSD_POS_NEXT] = 0u;
 1331              		.loc 1 1159 0
 1332 0084 40F20003 		movw	r3, #:lower16:CapSense_CSD_centroid
 1333 0088 C0F20003 		movt	r3, #:upper16:CapSense_CSD_centroid
 1334 008c 4FF00002 		mov	r2, #0
 1335 0090 9A70     		strb	r2, [r3, #2]
 1336 0092 11E0     		b	.L70
 1337              	.L71:
1160:.\Generated_Source\PSoC5/CapSense_CSD_CSHL.c ****                 }
1161:.\Generated_Source\PSoC5/CapSense_CSD_CSHL.c ****                 else                                /* Not first Not last */
1162:.\Generated_Source\PSoC5/CapSense_CSD_CSHL.c ****                 {
ARM GAS  C:\Users\yguan5\AppData\Local\Temp\ccX3ogeL.s 			page 45


1163:.\Generated_Source\PSoC5/CapSense_CSD_CSHL.c ****                     CapSense_CSD_centroid[CapSense_CSD_POS_PREV] = startOfSlider[posPrev];
 1338              		.loc 1 1163 0
 1339 0094 7A7A     		ldrb	r2, [r7, #9]	@ zero_extendqisi2
 1340 0096 7B69     		ldr	r3, [r7, #20]
 1341 0098 1344     		add	r3, r2, r3
 1342 009a 1A78     		ldrb	r2, [r3, #0]	@ zero_extendqisi2
 1343 009c 40F20003 		movw	r3, #:lower16:CapSense_CSD_centroid
 1344 00a0 C0F20003 		movt	r3, #:upper16:CapSense_CSD_centroid
 1345 00a4 1A70     		strb	r2, [r3, #0]
1164:.\Generated_Source\PSoC5/CapSense_CSD_CSHL.c ****                     CapSense_CSD_centroid[CapSense_CSD_POS_NEXT] = startOfSlider[posNext];
 1346              		.loc 1 1164 0
 1347 00a6 BA7A     		ldrb	r2, [r7, #10]	@ zero_extendqisi2
 1348 00a8 7B69     		ldr	r3, [r7, #20]
 1349 00aa 1344     		add	r3, r2, r3
 1350 00ac 1A78     		ldrb	r2, [r3, #0]	@ zero_extendqisi2
 1351 00ae 40F20003 		movw	r3, #:lower16:CapSense_CSD_centroid
 1352 00b2 C0F20003 		movt	r3, #:upper16:CapSense_CSD_centroid
 1353 00b6 9A70     		strb	r2, [r3, #2]
 1354              	.L70:
1165:.\Generated_Source\PSoC5/CapSense_CSD_CSHL.c ****                 }
1166:.\Generated_Source\PSoC5/CapSense_CSD_CSHL.c ****             #endif /* ((CapSense_CSD_TOTAL_LINEAR_SLIDERS_COUNT>0u)||(CapSense_CSD_TOTAL_TOUCH_PADS
1167:.\Generated_Source\PSoC5/CapSense_CSD_CSHL.c **** 
1168:.\Generated_Source\PSoC5/CapSense_CSD_CSHL.c ****         #if (CapSense_CSD_ADD_SLIDER_TYPE)
1169:.\Generated_Source\PSoC5/CapSense_CSD_CSHL.c ****             }
1170:.\Generated_Source\PSoC5/CapSense_CSD_CSHL.c ****         #endif /* (CapSense_CSD_ADD_SLIDER_TYPE) */
1171:.\Generated_Source\PSoC5/CapSense_CSD_CSHL.c ****     
1172:.\Generated_Source\PSoC5/CapSense_CSD_CSHL.c ****         /* Subtract noiseThreshold */
1173:.\Generated_Source\PSoC5/CapSense_CSD_CSHL.c ****         if(CapSense_CSD_centroid[CapSense_CSD_POS_PREV] > noiseThreshold)
 1355              		.loc 1 1173 0
 1356 00b8 40F20003 		movw	r3, #:lower16:CapSense_CSD_centroid
 1357 00bc C0F20003 		movt	r3, #:upper16:CapSense_CSD_centroid
 1358 00c0 1B78     		ldrb	r3, [r3, #0]	@ zero_extendqisi2
 1359 00c2 97F82020 		ldrb	r2, [r7, #32]	@ zero_extendqisi2
 1360 00c6 9A42     		cmp	r2, r3
 1361 00c8 0FD2     		bcs	.L72
1174:.\Generated_Source\PSoC5/CapSense_CSD_CSHL.c ****         {
1175:.\Generated_Source\PSoC5/CapSense_CSD_CSHL.c ****             CapSense_CSD_centroid[CapSense_CSD_POS_PREV] -= noiseThreshold;
 1362              		.loc 1 1175 0
 1363 00ca 40F20003 		movw	r3, #:lower16:CapSense_CSD_centroid
 1364 00ce C0F20003 		movt	r3, #:upper16:CapSense_CSD_centroid
 1365 00d2 1A78     		ldrb	r2, [r3, #0]	@ zero_extendqisi2
 1366 00d4 97F82030 		ldrb	r3, [r7, #32]
 1367 00d8 C3EB0203 		rsb	r3, r3, r2
 1368 00dc DAB2     		uxtb	r2, r3
 1369 00de 40F20003 		movw	r3, #:lower16:CapSense_CSD_centroid
 1370 00e2 C0F20003 		movt	r3, #:upper16:CapSense_CSD_centroid
 1371 00e6 1A70     		strb	r2, [r3, #0]
 1372 00e8 06E0     		b	.L73
 1373              	.L72:
1176:.\Generated_Source\PSoC5/CapSense_CSD_CSHL.c ****         }
1177:.\Generated_Source\PSoC5/CapSense_CSD_CSHL.c ****         else
1178:.\Generated_Source\PSoC5/CapSense_CSD_CSHL.c ****         {
1179:.\Generated_Source\PSoC5/CapSense_CSD_CSHL.c ****             CapSense_CSD_centroid[CapSense_CSD_POS_PREV] = 0u;
 1374              		.loc 1 1179 0
 1375 00ea 40F20003 		movw	r3, #:lower16:CapSense_CSD_centroid
 1376 00ee C0F20003 		movt	r3, #:upper16:CapSense_CSD_centroid
 1377 00f2 4FF00002 		mov	r2, #0
ARM GAS  C:\Users\yguan5\AppData\Local\Temp\ccX3ogeL.s 			page 46


 1378 00f6 1A70     		strb	r2, [r3, #0]
 1379              	.L73:
1180:.\Generated_Source\PSoC5/CapSense_CSD_CSHL.c ****         }
1181:.\Generated_Source\PSoC5/CapSense_CSD_CSHL.c ****         
1182:.\Generated_Source\PSoC5/CapSense_CSD_CSHL.c ****         /* Maximum always grater than fingerThreshold, so grate than noiseThreshold */
1183:.\Generated_Source\PSoC5/CapSense_CSD_CSHL.c ****         CapSense_CSD_centroid[CapSense_CSD_POS] -= noiseThreshold;
 1380              		.loc 1 1183 0
 1381 00f8 40F20003 		movw	r3, #:lower16:CapSense_CSD_centroid
 1382 00fc C0F20003 		movt	r3, #:upper16:CapSense_CSD_centroid
 1383 0100 5A78     		ldrb	r2, [r3, #1]	@ zero_extendqisi2
 1384 0102 97F82030 		ldrb	r3, [r7, #32]
 1385 0106 C3EB0203 		rsb	r3, r3, r2
 1386 010a DAB2     		uxtb	r2, r3
 1387 010c 40F20003 		movw	r3, #:lower16:CapSense_CSD_centroid
 1388 0110 C0F20003 		movt	r3, #:upper16:CapSense_CSD_centroid
 1389 0114 5A70     		strb	r2, [r3, #1]
1184:.\Generated_Source\PSoC5/CapSense_CSD_CSHL.c ****         
1185:.\Generated_Source\PSoC5/CapSense_CSD_CSHL.c ****         /* Subtract noiseThreshold */
1186:.\Generated_Source\PSoC5/CapSense_CSD_CSHL.c ****         if(CapSense_CSD_centroid[CapSense_CSD_POS_NEXT] > noiseThreshold)
 1390              		.loc 1 1186 0
 1391 0116 40F20003 		movw	r3, #:lower16:CapSense_CSD_centroid
 1392 011a C0F20003 		movt	r3, #:upper16:CapSense_CSD_centroid
 1393 011e 9B78     		ldrb	r3, [r3, #2]	@ zero_extendqisi2
 1394 0120 97F82020 		ldrb	r2, [r7, #32]	@ zero_extendqisi2
 1395 0124 9A42     		cmp	r2, r3
 1396 0126 0FD2     		bcs	.L74
1187:.\Generated_Source\PSoC5/CapSense_CSD_CSHL.c ****         {
1188:.\Generated_Source\PSoC5/CapSense_CSD_CSHL.c ****             CapSense_CSD_centroid[CapSense_CSD_POS_NEXT] -= noiseThreshold;
 1397              		.loc 1 1188 0
 1398 0128 40F20003 		movw	r3, #:lower16:CapSense_CSD_centroid
 1399 012c C0F20003 		movt	r3, #:upper16:CapSense_CSD_centroid
 1400 0130 9A78     		ldrb	r2, [r3, #2]	@ zero_extendqisi2
 1401 0132 97F82030 		ldrb	r3, [r7, #32]
 1402 0136 C3EB0203 		rsb	r3, r3, r2
 1403 013a DAB2     		uxtb	r2, r3
 1404 013c 40F20003 		movw	r3, #:lower16:CapSense_CSD_centroid
 1405 0140 C0F20003 		movt	r3, #:upper16:CapSense_CSD_centroid
 1406 0144 9A70     		strb	r2, [r3, #2]
 1407 0146 06E0     		b	.L75
 1408              	.L74:
1189:.\Generated_Source\PSoC5/CapSense_CSD_CSHL.c ****         }
1190:.\Generated_Source\PSoC5/CapSense_CSD_CSHL.c ****         else
1191:.\Generated_Source\PSoC5/CapSense_CSD_CSHL.c ****         {
1192:.\Generated_Source\PSoC5/CapSense_CSD_CSHL.c ****             CapSense_CSD_centroid[CapSense_CSD_POS_NEXT] = 0u;
 1409              		.loc 1 1192 0
 1410 0148 40F20003 		movw	r3, #:lower16:CapSense_CSD_centroid
 1411 014c C0F20003 		movt	r3, #:upper16:CapSense_CSD_centroid
 1412 0150 4FF00002 		mov	r2, #0
 1413 0154 9A70     		strb	r2, [r3, #2]
 1414              	.L75:
1193:.\Generated_Source\PSoC5/CapSense_CSD_CSHL.c ****         }
1194:.\Generated_Source\PSoC5/CapSense_CSD_CSHL.c ****         
1195:.\Generated_Source\PSoC5/CapSense_CSD_CSHL.c ****         
1196:.\Generated_Source\PSoC5/CapSense_CSD_CSHL.c ****         /* Si+1 - Si-1 */
1197:.\Generated_Source\PSoC5/CapSense_CSD_CSHL.c ****         numerator = (int32) CapSense_CSD_centroid[CapSense_CSD_POS_NEXT] - 
 1415              		.loc 1 1197 0
 1416 0156 40F20003 		movw	r3, #:lower16:CapSense_CSD_centroid
ARM GAS  C:\Users\yguan5\AppData\Local\Temp\ccX3ogeL.s 			page 47


 1417 015a C0F20003 		movt	r3, #:upper16:CapSense_CSD_centroid
 1418 015e 9B78     		ldrb	r3, [r3, #2]	@ zero_extendqisi2
 1419 0160 1A46     		mov	r2, r3
1198:.\Generated_Source\PSoC5/CapSense_CSD_CSHL.c ****                     (int32) CapSense_CSD_centroid[CapSense_CSD_POS_PREV];
 1420              		.loc 1 1198 0
 1421 0162 40F20003 		movw	r3, #:lower16:CapSense_CSD_centroid
 1422 0166 C0F20003 		movt	r3, #:upper16:CapSense_CSD_centroid
 1423 016a 1B78     		ldrb	r3, [r3, #0]	@ zero_extendqisi2
 1424              		.loc 1 1197 0
 1425 016c C3EB0203 		rsb	r3, r3, r2
 1426 0170 FB60     		str	r3, [r7, #12]
1199:.\Generated_Source\PSoC5/CapSense_CSD_CSHL.c ****         
1200:.\Generated_Source\PSoC5/CapSense_CSD_CSHL.c ****         /* Si+1 + Si + Si-1 */
1201:.\Generated_Source\PSoC5/CapSense_CSD_CSHL.c ****         denominator = (int32) CapSense_CSD_centroid[CapSense_CSD_POS_PREV] + 
 1427              		.loc 1 1201 0
 1428 0172 40F20003 		movw	r3, #:lower16:CapSense_CSD_centroid
 1429 0176 C0F20003 		movt	r3, #:upper16:CapSense_CSD_centroid
 1430 017a 1B78     		ldrb	r3, [r3, #0]	@ zero_extendqisi2
1202:.\Generated_Source\PSoC5/CapSense_CSD_CSHL.c ****                       (int32) CapSense_CSD_centroid[CapSense_CSD_POS] + 
 1431              		.loc 1 1202 0
 1432 017c 1A46     		mov	r2, r3
 1433 017e 40F20003 		movw	r3, #:lower16:CapSense_CSD_centroid
 1434 0182 C0F20003 		movt	r3, #:upper16:CapSense_CSD_centroid
 1435 0186 5B78     		ldrb	r3, [r3, #1]	@ zero_extendqisi2
 1436 0188 1A44     		add	r2, r2, r3
1203:.\Generated_Source\PSoC5/CapSense_CSD_CSHL.c ****                       (int32) CapSense_CSD_centroid[CapSense_CSD_POS_NEXT];
 1437              		.loc 1 1203 0
 1438 018a 40F20003 		movw	r3, #:lower16:CapSense_CSD_centroid
 1439 018e C0F20003 		movt	r3, #:upper16:CapSense_CSD_centroid
 1440 0192 9B78     		ldrb	r3, [r3, #2]	@ zero_extendqisi2
 1441              		.loc 1 1201 0
 1442 0194 1344     		add	r3, r2, r3
 1443 0196 3B61     		str	r3, [r7, #16]
1204:.\Generated_Source\PSoC5/CapSense_CSD_CSHL.c ****         
1205:.\Generated_Source\PSoC5/CapSense_CSD_CSHL.c ****         /* (numerator/denominator) + maximum */
1206:.\Generated_Source\PSoC5/CapSense_CSD_CSHL.c ****         denominator = (numerator << 8u)/denominator + ((uint16) maximum << 8u);
 1444              		.loc 1 1206 0
 1445 0198 FB68     		ldr	r3, [r7, #12]
 1446 019a 4FEA0322 		lsl	r2, r3, #8
 1447 019e 3B69     		ldr	r3, [r7, #16]
 1448 01a0 92FBF3F2 		sdiv	r2, r2, r3
 1449 01a4 FB79     		ldrb	r3, [r7, #7]	@ zero_extendqisi2
 1450 01a6 4FEA0323 		lsl	r3, r3, #8
 1451 01aa 1344     		add	r3, r2, r3
 1452 01ac 3B61     		str	r3, [r7, #16]
1207:.\Generated_Source\PSoC5/CapSense_CSD_CSHL.c ****         
1208:.\Generated_Source\PSoC5/CapSense_CSD_CSHL.c ****         #if(CapSense_CSD_TOTAL_RADIAL_SLIDERS_COUNT > 0u)
1209:.\Generated_Source\PSoC5/CapSense_CSD_CSHL.c ****             /* Only required for RADIAL Slider */
1210:.\Generated_Source\PSoC5/CapSense_CSD_CSHL.c ****             if(denominator < 0)
1211:.\Generated_Source\PSoC5/CapSense_CSD_CSHL.c ****             {
1212:.\Generated_Source\PSoC5/CapSense_CSD_CSHL.c ****                 denominator += ((uint16) count << 8u);
1213:.\Generated_Source\PSoC5/CapSense_CSD_CSHL.c ****             }
1214:.\Generated_Source\PSoC5/CapSense_CSD_CSHL.c ****         #endif /* (CapSense_CSD_TOTAL_RADIAL_SLIDERS_COUNT > 0u) */
1215:.\Generated_Source\PSoC5/CapSense_CSD_CSHL.c ****         
1216:.\Generated_Source\PSoC5/CapSense_CSD_CSHL.c ****         denominator *= resolution;
 1453              		.loc 1 1216 0
 1454 01ae 7A88     		ldrh	r2, [r7, #2]
ARM GAS  C:\Users\yguan5\AppData\Local\Temp\ccX3ogeL.s 			page 48


 1455 01b0 3B69     		ldr	r3, [r7, #16]
 1456 01b2 02FB03F3 		mul	r3, r2, r3
 1457 01b6 3B61     		str	r3, [r7, #16]
1217:.\Generated_Source\PSoC5/CapSense_CSD_CSHL.c ****         
1218:.\Generated_Source\PSoC5/CapSense_CSD_CSHL.c ****         /* Round the relust and put it to uint8 */
1219:.\Generated_Source\PSoC5/CapSense_CSD_CSHL.c ****         position = ((uint8) HI16(denominator + CapSense_CSD_CENTROID_ROUND_VALUE));
 1458              		.loc 1 1219 0
 1459 01b8 3B69     		ldr	r3, [r7, #16]
 1460 01ba 03F5FE43 		add	r3, r3, #32512
 1461 01be 4FEA1343 		lsr	r3, r3, #16
 1462 01c2 FB72     		strb	r3, [r7, #11]
1220:.\Generated_Source\PSoC5/CapSense_CSD_CSHL.c **** 
1221:.\Generated_Source\PSoC5/CapSense_CSD_CSHL.c ****         return (position);
 1463              		.loc 1 1221 0
 1464 01c4 FB7A     		ldrb	r3, [r7, #11]	@ zero_extendqisi2
1222:.\Generated_Source\PSoC5/CapSense_CSD_CSHL.c ****     }    
 1465              		.loc 1 1222 0
 1466 01c6 1846     		mov	r0, r3
 1467 01c8 07F11C07 		add	r7, r7, #28
 1468 01cc BD46     		mov	sp, r7
 1469 01ce 80BC     		pop	{r7}
 1470 01d0 7047     		bx	lr
 1471              		.cfi_endproc
 1472              	.LFE12:
 1473              		.size	CapSense_CSD_CalcCentroid, .-CapSense_CSD_CalcCentroid
 1474 01d2 00BF     		.section	.text.CapSense_CSD_GetCentroidPos,"ax",%progbits
 1475              		.align	2
 1476              		.global	CapSense_CSD_GetCentroidPos
 1477              		.thumb
 1478              		.thumb_func
 1479              		.type	CapSense_CSD_GetCentroidPos, %function
 1480              	CapSense_CSD_GetCentroidPos:
 1481              	.LFB13:
1223:.\Generated_Source\PSoC5/CapSense_CSD_CSHL.c **** #endif /* (CapSense_CSD_TOTAL_CENTROIDS_COUNT) */
1224:.\Generated_Source\PSoC5/CapSense_CSD_CSHL.c **** 
1225:.\Generated_Source\PSoC5/CapSense_CSD_CSHL.c **** 
1226:.\Generated_Source\PSoC5/CapSense_CSD_CSHL.c **** #if(CapSense_CSD_TOTAL_LINEAR_SLIDERS_COUNT > 0u)
1227:.\Generated_Source\PSoC5/CapSense_CSD_CSHL.c ****     /*******************************************************************************
1228:.\Generated_Source\PSoC5/CapSense_CSD_CSHL.c ****     * Function Name: CapSense_CSD_GetCentroidPos
1229:.\Generated_Source\PSoC5/CapSense_CSD_CSHL.c ****     ********************************************************************************
1230:.\Generated_Source\PSoC5/CapSense_CSD_CSHL.c ****     *
1231:.\Generated_Source\PSoC5/CapSense_CSD_CSHL.c ****     * Summary:
1232:.\Generated_Source\PSoC5/CapSense_CSD_CSHL.c ****     *  Checks the CapSense_CSD_Signal[ ] array for a centroid within
1233:.\Generated_Source\PSoC5/CapSense_CSD_CSHL.c ****     *  slider specified range. The centroid position is calculated to the resolution
1234:.\Generated_Source\PSoC5/CapSense_CSD_CSHL.c ****     *  specified in the CapSense customizer. The position filters are applied to the
1235:.\Generated_Source\PSoC5/CapSense_CSD_CSHL.c ****     *  result if enabled.
1236:.\Generated_Source\PSoC5/CapSense_CSD_CSHL.c ****     *
1237:.\Generated_Source\PSoC5/CapSense_CSD_CSHL.c ****     * Parameters:
1238:.\Generated_Source\PSoC5/CapSense_CSD_CSHL.c ****     *  widget:  Widget number.
1239:.\Generated_Source\PSoC5/CapSense_CSD_CSHL.c ****     *  For every linear slider widget there are defines in this format:
1240:.\Generated_Source\PSoC5/CapSense_CSD_CSHL.c ****     *  #define CapSense_CSD_LS__"widget_name"            5
1241:.\Generated_Source\PSoC5/CapSense_CSD_CSHL.c ****     * 
1242:.\Generated_Source\PSoC5/CapSense_CSD_CSHL.c ****     * Return:
1243:.\Generated_Source\PSoC5/CapSense_CSD_CSHL.c ****     *  Returns position value of the linear slider.
1244:.\Generated_Source\PSoC5/CapSense_CSD_CSHL.c ****     *
1245:.\Generated_Source\PSoC5/CapSense_CSD_CSHL.c ****     * Side Effects:
1246:.\Generated_Source\PSoC5/CapSense_CSD_CSHL.c ****     *  If any sensor within the slider widget is active, the function returns values
ARM GAS  C:\Users\yguan5\AppData\Local\Temp\ccX3ogeL.s 			page 49


1247:.\Generated_Source\PSoC5/CapSense_CSD_CSHL.c ****     *  from zero to the API resolution value set in the CapSense customizer. If no
1248:.\Generated_Source\PSoC5/CapSense_CSD_CSHL.c ****     *  sensors are active, the function returns 0xFFFF. If an error occurs during
1249:.\Generated_Source\PSoC5/CapSense_CSD_CSHL.c ****     *  execution of the centroid/diplexing algorithm, the function returns 0xFFFF.
1250:.\Generated_Source\PSoC5/CapSense_CSD_CSHL.c ****     *  There are no checks of widget type argument provided to this function.
1251:.\Generated_Source\PSoC5/CapSense_CSD_CSHL.c ****     *  The unproper widget type provided will cause unexpected position calculations.
1252:.\Generated_Source\PSoC5/CapSense_CSD_CSHL.c ****     *
1253:.\Generated_Source\PSoC5/CapSense_CSD_CSHL.c ****     * Note:
1254:.\Generated_Source\PSoC5/CapSense_CSD_CSHL.c ****     *  If noise counts on the slider segments are greater than the noise
1255:.\Generated_Source\PSoC5/CapSense_CSD_CSHL.c ****     *  threshold, this subroutine may generate a false centroid result. The noise
1256:.\Generated_Source\PSoC5/CapSense_CSD_CSHL.c ****     *  threshold should be set carefully (high enough above the noise level) so
1257:.\Generated_Source\PSoC5/CapSense_CSD_CSHL.c ****     *  that noise will not generate a false centroid.
1258:.\Generated_Source\PSoC5/CapSense_CSD_CSHL.c ****     *
1259:.\Generated_Source\PSoC5/CapSense_CSD_CSHL.c ****     * Reentrant:
1260:.\Generated_Source\PSoC5/CapSense_CSD_CSHL.c ****     *  No.
1261:.\Generated_Source\PSoC5/CapSense_CSD_CSHL.c ****     *
1262:.\Generated_Source\PSoC5/CapSense_CSD_CSHL.c ****     *******************************************************************************/
1263:.\Generated_Source\PSoC5/CapSense_CSD_CSHL.c ****     uint16 CapSense_CSD_GetCentroidPos(uint8 widget) 
1264:.\Generated_Source\PSoC5/CapSense_CSD_CSHL.c ****     {
 1482              		.loc 1 1264 0
 1483              		.cfi_startproc
 1484              		@ args = 0, pretend = 0, frame = 16
 1485              		@ frame_needed = 1, uses_anonymous_args = 0
 1486 0000 80B5     		push	{r7, lr}
 1487              	.LCFI39:
 1488              		.cfi_def_cfa_offset 8
 1489 0002 86B0     		sub	sp, sp, #24
 1490              	.LCFI40:
 1491              		.cfi_def_cfa_offset 32
 1492 0004 02AF     		add	r7, sp, #8
 1493              		.cfi_offset 14, -4
 1494              		.cfi_offset 7, -8
 1495              	.LCFI41:
 1496              		.cfi_def_cfa 7, 24
 1497 0006 0346     		mov	r3, r0
 1498 0008 FB71     		strb	r3, [r7, #7]
1265:.\Generated_Source\PSoC5/CapSense_CSD_CSHL.c ****         #if (CapSense_CSD_IS_DIPLEX_SLIDER)
1266:.\Generated_Source\PSoC5/CapSense_CSD_CSHL.c ****             const uint8 CYCODE *diplex;
1267:.\Generated_Source\PSoC5/CapSense_CSD_CSHL.c ****         #endif /* (CapSense_CSD_IS_DIPLEX_SLIDER) */
1268:.\Generated_Source\PSoC5/CapSense_CSD_CSHL.c ****                 
1269:.\Generated_Source\PSoC5/CapSense_CSD_CSHL.c ****         #if (0u != CapSense_CSD_LINEAR_SLIDERS_POS_FILTERS_MASK)
1270:.\Generated_Source\PSoC5/CapSense_CSD_CSHL.c ****             uint8 posIndex;
1271:.\Generated_Source\PSoC5/CapSense_CSD_CSHL.c ****             uint8 firstTimeIndex = CapSense_CSD_posFiltersData[widget];
1272:.\Generated_Source\PSoC5/CapSense_CSD_CSHL.c ****             uint8 posFiltersMask = CapSense_CSD_posFiltersMask[widget];  
1273:.\Generated_Source\PSoC5/CapSense_CSD_CSHL.c ****         #endif /* (0u != CapSense_CSD_LINEAR_SLIDERS_POS_FILTERS_MASK) */
1274:.\Generated_Source\PSoC5/CapSense_CSD_CSHL.c **** 
1275:.\Generated_Source\PSoC5/CapSense_CSD_CSHL.c ****         #if ((0u != (CapSense_CSD_MEDIAN_FILTER & CapSense_CSD_LINEAR_SLIDERS_POS_FILTERS_MASK)) ||
1276:.\Generated_Source\PSoC5/CapSense_CSD_CSHL.c ****              (0u != (CapSense_CSD_AVERAGING_FILTER & CapSense_CSD_LINEAR_SLIDERS_POS_FILTERS_MASK))
1277:.\Generated_Source\PSoC5/CapSense_CSD_CSHL.c ****             uint8 tempPos;
1278:.\Generated_Source\PSoC5/CapSense_CSD_CSHL.c ****         #endif /* ((0u != (CapSense_CSD_MEDIAN_FILTER & CapSense_CSD_LINEAR_SLIDERS_POS_FILTERS_MAS
1279:.\Generated_Source\PSoC5/CapSense_CSD_CSHL.c ****                *   (0u != (CapSense_CSD_AVERAGING_FILTER & CapSense_CSD_LINEAR_SLIDERS_POS_FILTERS_
1280:.\Generated_Source\PSoC5/CapSense_CSD_CSHL.c ****                */
1281:.\Generated_Source\PSoC5/CapSense_CSD_CSHL.c **** 
1282:.\Generated_Source\PSoC5/CapSense_CSD_CSHL.c ****         uint8 maximum;
1283:.\Generated_Source\PSoC5/CapSense_CSD_CSHL.c ****         uint16 position;
1284:.\Generated_Source\PSoC5/CapSense_CSD_CSHL.c ****         uint8 offset = CapSense_CSD_rawDataIndex[widget];
 1499              		.loc 1 1284 0
 1500 000a FA79     		ldrb	r2, [r7, #7]	@ zero_extendqisi2
ARM GAS  C:\Users\yguan5\AppData\Local\Temp\ccX3ogeL.s 			page 50


 1501 000c 40F20003 		movw	r3, #:lower16:CapSense_CSD_rawDataIndex
 1502 0010 C0F20003 		movt	r3, #:upper16:CapSense_CSD_rawDataIndex
 1503 0014 9B5C     		ldrb	r3, [r3, r2]
 1504 0016 BB73     		strb	r3, [r7, #14]
1285:.\Generated_Source\PSoC5/CapSense_CSD_CSHL.c ****         uint8 count = CapSense_CSD_numberOfSensors[widget];
 1505              		.loc 1 1285 0
 1506 0018 FA79     		ldrb	r2, [r7, #7]	@ zero_extendqisi2
 1507 001a 40F20003 		movw	r3, #:lower16:CapSense_CSD_numberOfSensors
 1508 001e C0F20003 		movt	r3, #:upper16:CapSense_CSD_numberOfSensors
 1509 0022 9B5C     		ldrb	r3, [r3, r2]
 1510 0024 FB73     		strb	r3, [r7, #15]
1286:.\Generated_Source\PSoC5/CapSense_CSD_CSHL.c ****                         
1287:.\Generated_Source\PSoC5/CapSense_CSD_CSHL.c ****         #if (CapSense_CSD_IS_DIPLEX_SLIDER)
1288:.\Generated_Source\PSoC5/CapSense_CSD_CSHL.c ****             if(widget < CapSense_CSD_TOTAL_DIPLEXED_SLIDERS_COUNT)
1289:.\Generated_Source\PSoC5/CapSense_CSD_CSHL.c ****             {
1290:.\Generated_Source\PSoC5/CapSense_CSD_CSHL.c ****                 maximum = CapSense_CSD_diplexTable[widget];
1291:.\Generated_Source\PSoC5/CapSense_CSD_CSHL.c ****                 diplex = &CapSense_CSD_diplexTable[maximum];
1292:.\Generated_Source\PSoC5/CapSense_CSD_CSHL.c ****             }
1293:.\Generated_Source\PSoC5/CapSense_CSD_CSHL.c ****             else
1294:.\Generated_Source\PSoC5/CapSense_CSD_CSHL.c ****             {
1295:.\Generated_Source\PSoC5/CapSense_CSD_CSHL.c ****                 diplex = 0u;
1296:.\Generated_Source\PSoC5/CapSense_CSD_CSHL.c ****             }
1297:.\Generated_Source\PSoC5/CapSense_CSD_CSHL.c ****         #endif /* (CapSense_CSD_IS_DIPLEX_SLIDER) */
1298:.\Generated_Source\PSoC5/CapSense_CSD_CSHL.c **** 
1299:.\Generated_Source\PSoC5/CapSense_CSD_CSHL.c ****         /* Find Maximum within centroid */      
1300:.\Generated_Source\PSoC5/CapSense_CSD_CSHL.c ****         #if (CapSense_CSD_IS_DIPLEX_SLIDER)        
1301:.\Generated_Source\PSoC5/CapSense_CSD_CSHL.c ****             maximum = CapSense_CSD_FindMaximum(offset, count, CapSense_CSD_fingerThreshold[widget],
1302:.\Generated_Source\PSoC5/CapSense_CSD_CSHL.c ****         #else
1303:.\Generated_Source\PSoC5/CapSense_CSD_CSHL.c ****             maximum = CapSense_CSD_FindMaximum(offset, count, CapSense_CSD_fingerThreshold[widget])
 1511              		.loc 1 1303 0
 1512 0026 FA79     		ldrb	r2, [r7, #7]	@ zero_extendqisi2
 1513 0028 40F20003 		movw	r3, #:lower16:CapSense_CSD_fingerThreshold
 1514 002c C0F20003 		movt	r3, #:upper16:CapSense_CSD_fingerThreshold
 1515 0030 9B5C     		ldrb	r3, [r3, r2]	@ zero_extendqisi2
 1516 0032 B97B     		ldrb	r1, [r7, #14]	@ zero_extendqisi2
 1517 0034 FA7B     		ldrb	r2, [r7, #15]	@ zero_extendqisi2
 1518 0036 0846     		mov	r0, r1
 1519 0038 1146     		mov	r1, r2
 1520 003a 1A46     		mov	r2, r3
 1521 003c FFF7FEFF 		bl	CapSense_CSD_FindMaximum
 1522 0040 0346     		mov	r3, r0
 1523 0042 FB72     		strb	r3, [r7, #11]
1304:.\Generated_Source\PSoC5/CapSense_CSD_CSHL.c ****         #endif /* (CapSense_CSD_IS_DIPLEX_SLIDER) */
1305:.\Generated_Source\PSoC5/CapSense_CSD_CSHL.c **** 
1306:.\Generated_Source\PSoC5/CapSense_CSD_CSHL.c ****         if (maximum != 0xFFu)
 1524              		.loc 1 1306 0
 1525 0044 FB7A     		ldrb	r3, [r7, #11]	@ zero_extendqisi2
 1526 0046 FF2B     		cmp	r3, #255
 1527 0048 19D0     		beq	.L78
1307:.\Generated_Source\PSoC5/CapSense_CSD_CSHL.c ****         {
1308:.\Generated_Source\PSoC5/CapSense_CSD_CSHL.c ****             /* Calculate centroid */
1309:.\Generated_Source\PSoC5/CapSense_CSD_CSHL.c ****             position = (uint16) CapSense_CSD_CalcCentroid(maximum, 
 1528              		.loc 1 1309 0
 1529 004a FA79     		ldrb	r2, [r7, #7]	@ zero_extendqisi2
 1530 004c 40F20003 		movw	r3, #:lower16:CapSense_CSD_centroidMult
 1531 0050 C0F20003 		movt	r3, #:upper16:CapSense_CSD_centroidMult
 1532 0054 33F812C0 		ldrh	ip, [r3, r2, lsl #1]
ARM GAS  C:\Users\yguan5\AppData\Local\Temp\ccX3ogeL.s 			page 51


 1533 0058 FA79     		ldrb	r2, [r7, #7]	@ zero_extendqisi2
 1534 005a 40F20003 		movw	r3, #:lower16:CapSense_CSD_noiseThreshold
 1535 005e C0F20003 		movt	r3, #:upper16:CapSense_CSD_noiseThreshold
 1536 0062 985C     		ldrb	r0, [r3, r2]	@ zero_extendqisi2
 1537 0064 F97A     		ldrb	r1, [r7, #11]	@ zero_extendqisi2
 1538 0066 BA7B     		ldrb	r2, [r7, #14]	@ zero_extendqisi2
 1539 0068 FB7B     		ldrb	r3, [r7, #15]	@ zero_extendqisi2
 1540 006a 0090     		str	r0, [sp, #0]
 1541 006c 0846     		mov	r0, r1
 1542 006e 1146     		mov	r1, r2
 1543 0070 1A46     		mov	r2, r3
 1544 0072 6346     		mov	r3, ip
 1545 0074 FFF7FEFF 		bl	CapSense_CSD_CalcCentroid
 1546 0078 0346     		mov	r3, r0
 1547 007a BB81     		strh	r3, [r7, #12]	@ movhi
 1548 007c 02E0     		b	.L79
 1549              	.L78:
1310:.\Generated_Source\PSoC5/CapSense_CSD_CSHL.c ****                          offset, count, CapSense_CSD_centroidMult[widget], CapSense_CSD_noiseThresh
1311:.\Generated_Source\PSoC5/CapSense_CSD_CSHL.c **** 
1312:.\Generated_Source\PSoC5/CapSense_CSD_CSHL.c ****             #if (0u != CapSense_CSD_LINEAR_SLIDERS_POS_FILTERS_MASK)
1313:.\Generated_Source\PSoC5/CapSense_CSD_CSHL.c ****                 /* Check if this linear slider has enabled filters */
1314:.\Generated_Source\PSoC5/CapSense_CSD_CSHL.c ****                 if (0u != (posFiltersMask & CapSense_CSD_ANY_POS_FILTER))
1315:.\Generated_Source\PSoC5/CapSense_CSD_CSHL.c ****                 {
1316:.\Generated_Source\PSoC5/CapSense_CSD_CSHL.c ****                     /* Caluclate position to store filters data */
1317:.\Generated_Source\PSoC5/CapSense_CSD_CSHL.c ****                     posIndex  = firstTimeIndex + 1u;
1318:.\Generated_Source\PSoC5/CapSense_CSD_CSHL.c ****                     
1319:.\Generated_Source\PSoC5/CapSense_CSD_CSHL.c ****                     if (0u == CapSense_CSD_posFiltersData[firstTimeIndex])
1320:.\Generated_Source\PSoC5/CapSense_CSD_CSHL.c ****                     {
1321:.\Generated_Source\PSoC5/CapSense_CSD_CSHL.c ****                         /* Init filters */
1322:.\Generated_Source\PSoC5/CapSense_CSD_CSHL.c ****                         CapSense_CSD_posFiltersData[posIndex] = (uint8) position;
1323:.\Generated_Source\PSoC5/CapSense_CSD_CSHL.c ****                         #if ((0u != (CapSense_CSD_MEDIAN_FILTER & \
1324:.\Generated_Source\PSoC5/CapSense_CSD_CSHL.c ****                                      CapSense_CSD_LINEAR_SLIDERS_POS_FILTERS_MASK)) || \
1325:.\Generated_Source\PSoC5/CapSense_CSD_CSHL.c ****                              (0u != (CapSense_CSD_AVERAGING_FILTER & \
1326:.\Generated_Source\PSoC5/CapSense_CSD_CSHL.c ****                                      CapSense_CSD_LINEAR_SLIDERS_POS_FILTERS_MASK)))
1327:.\Generated_Source\PSoC5/CapSense_CSD_CSHL.c **** 
1328:.\Generated_Source\PSoC5/CapSense_CSD_CSHL.c ****                             if ( (0u != (posFiltersMask & CapSense_CSD_MEDIAN_FILTER)) || 
1329:.\Generated_Source\PSoC5/CapSense_CSD_CSHL.c ****                                  (0u != (posFiltersMask & CapSense_CSD_AVERAGING_FILTER)) )
1330:.\Generated_Source\PSoC5/CapSense_CSD_CSHL.c ****                             {
1331:.\Generated_Source\PSoC5/CapSense_CSD_CSHL.c ****                                 CapSense_CSD_posFiltersData[posIndex + 1u] = (uint8) position;
1332:.\Generated_Source\PSoC5/CapSense_CSD_CSHL.c ****                             }
1333:.\Generated_Source\PSoC5/CapSense_CSD_CSHL.c ****                         #endif /* ((0u != (CapSense_CSD_MEDIAN_FILTER & \
1334:.\Generated_Source\PSoC5/CapSense_CSD_CSHL.c ****                                *           CapSense_CSD_LINEAR_SLIDERS_POS_FILTERS_MASK)) || \
1335:.\Generated_Source\PSoC5/CapSense_CSD_CSHL.c ****                                *   (0u != (CapSense_CSD_AVERAGING_FILTER & \
1336:.\Generated_Source\PSoC5/CapSense_CSD_CSHL.c ****                                *           CapSense_CSD_LINEAR_SLIDERS_POS_FILTERS_MASK)))
1337:.\Generated_Source\PSoC5/CapSense_CSD_CSHL.c ****                                */
1338:.\Generated_Source\PSoC5/CapSense_CSD_CSHL.c ****                         
1339:.\Generated_Source\PSoC5/CapSense_CSD_CSHL.c ****                         CapSense_CSD_posFiltersData[firstTimeIndex] = 1u;
1340:.\Generated_Source\PSoC5/CapSense_CSD_CSHL.c ****                     }
1341:.\Generated_Source\PSoC5/CapSense_CSD_CSHL.c ****                     else
1342:.\Generated_Source\PSoC5/CapSense_CSD_CSHL.c ****                     {
1343:.\Generated_Source\PSoC5/CapSense_CSD_CSHL.c ****                         /* Do filtering */
1344:.\Generated_Source\PSoC5/CapSense_CSD_CSHL.c ****                         #if (0u != (CapSense_CSD_MEDIAN_FILTER & CapSense_CSD_LINEAR_SLIDERS_POS_FI
1345:.\Generated_Source\PSoC5/CapSense_CSD_CSHL.c ****                             if (0u != (posFiltersMask & CapSense_CSD_MEDIAN_FILTER))
1346:.\Generated_Source\PSoC5/CapSense_CSD_CSHL.c ****                             {
1347:.\Generated_Source\PSoC5/CapSense_CSD_CSHL.c ****                                 tempPos = (uint8) position;
1348:.\Generated_Source\PSoC5/CapSense_CSD_CSHL.c ****                                 position = CapSense_CSD_MedianFilter(position, 
1349:.\Generated_Source\PSoC5/CapSense_CSD_CSHL.c ****                                                                     CapSense_CSD_posFiltersData[pos
ARM GAS  C:\Users\yguan5\AppData\Local\Temp\ccX3ogeL.s 			page 52


1350:.\Generated_Source\PSoC5/CapSense_CSD_CSHL.c ****                                                                     CapSense_CSD_posFiltersData[pos
1351:.\Generated_Source\PSoC5/CapSense_CSD_CSHL.c ****                                 CapSense_CSD_posFiltersData[posIndex + 1u] = 
1352:.\Generated_Source\PSoC5/CapSense_CSD_CSHL.c ****                                                                              CapSense_CSD_posFilter
1353:.\Generated_Source\PSoC5/CapSense_CSD_CSHL.c ****                                 CapSense_CSD_posFiltersData[posIndex] = tempPos;
1354:.\Generated_Source\PSoC5/CapSense_CSD_CSHL.c ****                             }
1355:.\Generated_Source\PSoC5/CapSense_CSD_CSHL.c ****                         #endif /*(0u != (CapSense_CSD_MEDIAN_FILTER &
1356:.\Generated_Source\PSoC5/CapSense_CSD_CSHL.c ****                                *         CapSense_CSD_LINEAR_SLIDERS_POS_FILTERS_MASK))
1357:.\Generated_Source\PSoC5/CapSense_CSD_CSHL.c ****                                */
1358:.\Generated_Source\PSoC5/CapSense_CSD_CSHL.c **** 
1359:.\Generated_Source\PSoC5/CapSense_CSD_CSHL.c ****                         #if(0u!=(CapSense_CSD_AVERAGING_FILTER & CapSense_CSD_LINEAR_SLIDERS_POS_FI
1360:.\Generated_Source\PSoC5/CapSense_CSD_CSHL.c ****                             if (0u != (posFiltersMask & CapSense_CSD_AVERAGING_FILTER)) 
1361:.\Generated_Source\PSoC5/CapSense_CSD_CSHL.c ****                             {
1362:.\Generated_Source\PSoC5/CapSense_CSD_CSHL.c ****                                 tempPos = (uint8) position;
1363:.\Generated_Source\PSoC5/CapSense_CSD_CSHL.c ****                                 position = CapSense_CSD_AveragingFilter(position, 
1364:.\Generated_Source\PSoC5/CapSense_CSD_CSHL.c ****                                                                        CapSense_CSD_posFiltersData[
1365:.\Generated_Source\PSoC5/CapSense_CSD_CSHL.c ****                                                                        CapSense_CSD_posFiltersData[
1366:.\Generated_Source\PSoC5/CapSense_CSD_CSHL.c ****                                 CapSense_CSD_posFiltersData[posIndex+1u]=CapSense_CSD_posFiltersDat
1367:.\Generated_Source\PSoC5/CapSense_CSD_CSHL.c ****                                 CapSense_CSD_posFiltersData[posIndex] = tempPos;
1368:.\Generated_Source\PSoC5/CapSense_CSD_CSHL.c ****                             }
1369:.\Generated_Source\PSoC5/CapSense_CSD_CSHL.c ****                         #endif /* (0u != (CapSense_CSD_AVERAGING_FILTER & \
1370:.\Generated_Source\PSoC5/CapSense_CSD_CSHL.c ****                                *           CapSense_CSD_LINEAR_SLIDERS_POS_FILTERS_MASK))
1371:.\Generated_Source\PSoC5/CapSense_CSD_CSHL.c ****                                */
1372:.\Generated_Source\PSoC5/CapSense_CSD_CSHL.c **** 
1373:.\Generated_Source\PSoC5/CapSense_CSD_CSHL.c ****                         #if (0u != (CapSense_CSD_IIR2_FILTER & CapSense_CSD_LINEAR_SLIDERS_POS_FILT
1374:.\Generated_Source\PSoC5/CapSense_CSD_CSHL.c ****                             if (0u != (posFiltersMask & CapSense_CSD_IIR2_FILTER)) 
1375:.\Generated_Source\PSoC5/CapSense_CSD_CSHL.c ****                             {
1376:.\Generated_Source\PSoC5/CapSense_CSD_CSHL.c ****                                 position = CapSense_CSD_IIR2Filter(position,
1377:.\Generated_Source\PSoC5/CapSense_CSD_CSHL.c ****                                                                        CapSense_CSD_posFiltersData[
1378:.\Generated_Source\PSoC5/CapSense_CSD_CSHL.c ****                                 CapSense_CSD_posFiltersData[posIndex] = (uint8) position;
1379:.\Generated_Source\PSoC5/CapSense_CSD_CSHL.c ****                             }
1380:.\Generated_Source\PSoC5/CapSense_CSD_CSHL.c ****                         #endif /* (0u != (CapSense_CSD_IIR2_FILTER & \
1381:.\Generated_Source\PSoC5/CapSense_CSD_CSHL.c ****                                *          CapSense_CSD_LINEAR_SLIDERS_POS_FILTERS_MASK))
1382:.\Generated_Source\PSoC5/CapSense_CSD_CSHL.c ****                                */
1383:.\Generated_Source\PSoC5/CapSense_CSD_CSHL.c **** 
1384:.\Generated_Source\PSoC5/CapSense_CSD_CSHL.c ****                         #if (0u != (CapSense_CSD_IIR4_FILTER & CapSense_CSD_LINEAR_SLIDERS_POS_FILT
1385:.\Generated_Source\PSoC5/CapSense_CSD_CSHL.c ****                             if (0u != (posFiltersMask & CapSense_CSD_IIR4_FILTER))
1386:.\Generated_Source\PSoC5/CapSense_CSD_CSHL.c ****                             {
1387:.\Generated_Source\PSoC5/CapSense_CSD_CSHL.c ****                                 position = CapSense_CSD_IIR4Filter(position, 
1388:.\Generated_Source\PSoC5/CapSense_CSD_CSHL.c ****                                                                        CapSense_CSD_posFiltersData[
1389:.\Generated_Source\PSoC5/CapSense_CSD_CSHL.c ****                                 CapSense_CSD_posFiltersData[posIndex] = (uint8) position;
1390:.\Generated_Source\PSoC5/CapSense_CSD_CSHL.c ****                             }                                
1391:.\Generated_Source\PSoC5/CapSense_CSD_CSHL.c ****                         #endif /* (0u != (CapSense_CSD_IIR4_FILTER & \
1392:.\Generated_Source\PSoC5/CapSense_CSD_CSHL.c ****                                *          CapSense_CSD_LINEAR_SLIDERS_POS_FILTERS_MASK))
1393:.\Generated_Source\PSoC5/CapSense_CSD_CSHL.c ****                                */
1394:.\Generated_Source\PSoC5/CapSense_CSD_CSHL.c **** 
1395:.\Generated_Source\PSoC5/CapSense_CSD_CSHL.c ****                         #if (0u != (CapSense_CSD_JITTER_FILTER & CapSense_CSD_LINEAR_SLIDERS_POS_FI
1396:.\Generated_Source\PSoC5/CapSense_CSD_CSHL.c ****                             if (0u != (posFiltersMask & CapSense_CSD_JITTER_FILTER))
1397:.\Generated_Source\PSoC5/CapSense_CSD_CSHL.c ****                             {
1398:.\Generated_Source\PSoC5/CapSense_CSD_CSHL.c ****                                 position = CapSense_CSD_JitterFilter(position, 
1399:.\Generated_Source\PSoC5/CapSense_CSD_CSHL.c ****                                                                          CapSense_CSD_posFiltersDat
1400:.\Generated_Source\PSoC5/CapSense_CSD_CSHL.c ****                                 CapSense_CSD_posFiltersData[posIndex] = (uint8) position;
1401:.\Generated_Source\PSoC5/CapSense_CSD_CSHL.c ****                             }
1402:.\Generated_Source\PSoC5/CapSense_CSD_CSHL.c ****                         #endif /* (0u != (CapSense_CSD_JITTER_FILTER & \
1403:.\Generated_Source\PSoC5/CapSense_CSD_CSHL.c ****                                *           CapSense_CSD_LINEAR_SLIDERS_POS_FILTERS_MASK))
1404:.\Generated_Source\PSoC5/CapSense_CSD_CSHL.c ****                                */
1405:.\Generated_Source\PSoC5/CapSense_CSD_CSHL.c ****                     }
1406:.\Generated_Source\PSoC5/CapSense_CSD_CSHL.c ****                 }
ARM GAS  C:\Users\yguan5\AppData\Local\Temp\ccX3ogeL.s 			page 53


1407:.\Generated_Source\PSoC5/CapSense_CSD_CSHL.c ****             #endif /* (0u != CapSense_CSD_LINEAR_SLIDERS_POS_FILTERS_MASK) */
1408:.\Generated_Source\PSoC5/CapSense_CSD_CSHL.c **** 
1409:.\Generated_Source\PSoC5/CapSense_CSD_CSHL.c ****         }
1410:.\Generated_Source\PSoC5/CapSense_CSD_CSHL.c ****         else
1411:.\Generated_Source\PSoC5/CapSense_CSD_CSHL.c ****         {
1412:.\Generated_Source\PSoC5/CapSense_CSD_CSHL.c ****             /* The maximum didn't find */
1413:.\Generated_Source\PSoC5/CapSense_CSD_CSHL.c ****             position = 0xFFFFu;
 1550              		.loc 1 1413 0
 1551 007e 4FF6FF73 		movw	r3, #65535
 1552 0082 BB81     		strh	r3, [r7, #12]	@ movhi
 1553              	.L79:
1414:.\Generated_Source\PSoC5/CapSense_CSD_CSHL.c **** 
1415:.\Generated_Source\PSoC5/CapSense_CSD_CSHL.c ****             #if(0u != CapSense_CSD_LINEAR_SLIDERS_POS_FILTERS_MASK)
1416:.\Generated_Source\PSoC5/CapSense_CSD_CSHL.c ****                 /* Reset the filters */
1417:.\Generated_Source\PSoC5/CapSense_CSD_CSHL.c ****                 if(0u != (posFiltersMask & CapSense_CSD_ANY_POS_FILTER))
1418:.\Generated_Source\PSoC5/CapSense_CSD_CSHL.c ****                 {
1419:.\Generated_Source\PSoC5/CapSense_CSD_CSHL.c ****                     CapSense_CSD_posFiltersData[firstTimeIndex] = 0u;
1420:.\Generated_Source\PSoC5/CapSense_CSD_CSHL.c ****                 }
1421:.\Generated_Source\PSoC5/CapSense_CSD_CSHL.c ****             #endif /* (0u != CapSense_CSD_LINEAR_SLIDERS_POS_FILTERS_MASK) */
1422:.\Generated_Source\PSoC5/CapSense_CSD_CSHL.c ****         }
1423:.\Generated_Source\PSoC5/CapSense_CSD_CSHL.c **** 
1424:.\Generated_Source\PSoC5/CapSense_CSD_CSHL.c ****         
1425:.\Generated_Source\PSoC5/CapSense_CSD_CSHL.c ****         return (position);
 1554              		.loc 1 1425 0
 1555 0084 BB89     		ldrh	r3, [r7, #12]
1426:.\Generated_Source\PSoC5/CapSense_CSD_CSHL.c ****     }
 1556              		.loc 1 1426 0
 1557 0086 1846     		mov	r0, r3
 1558 0088 07F11007 		add	r7, r7, #16
 1559 008c BD46     		mov	sp, r7
 1560 008e 80BD     		pop	{r7, pc}
 1561              		.cfi_endproc
 1562              	.LFE13:
 1563              		.size	CapSense_CSD_GetCentroidPos, .-CapSense_CSD_GetCentroidPos
 1564              		.text
 1565              	.Letext0:
 1566              		.section	.debug_loc,"",%progbits
 1567              	.Ldebug_loc0:
 1568              	.LLST0:
 1569 0000 00000000 		.4byte	.LFB0
 1570 0004 02000000 		.4byte	.LCFI0
 1571 0008 0100     		.2byte	0x1
 1572 000a 5D       		.byte	0x5d
 1573 000b 02000000 		.4byte	.LCFI0
 1574 000f 04000000 		.4byte	.LCFI1
 1575 0013 0200     		.2byte	0x2
 1576 0015 7D       		.byte	0x7d
 1577 0016 04       		.sleb128 4
 1578 0017 04000000 		.4byte	.LCFI1
 1579 001b 06000000 		.4byte	.LCFI2
 1580 001f 0200     		.2byte	0x2
 1581 0021 7D       		.byte	0x7d
 1582 0022 18       		.sleb128 24
 1583 0023 06000000 		.4byte	.LCFI2
 1584 0027 80000000 		.4byte	.LFE0
 1585 002b 0200     		.2byte	0x2
 1586 002d 77       		.byte	0x77
ARM GAS  C:\Users\yguan5\AppData\Local\Temp\ccX3ogeL.s 			page 54


 1587 002e 18       		.sleb128 24
 1588 002f 00000000 		.4byte	0x0
 1589 0033 00000000 		.4byte	0x0
 1590              	.LLST1:
 1591 0037 00000000 		.4byte	.LFB1
 1592 003b 02000000 		.4byte	.LCFI3
 1593 003f 0100     		.2byte	0x1
 1594 0041 5D       		.byte	0x5d
 1595 0042 02000000 		.4byte	.LCFI3
 1596 0046 04000000 		.4byte	.LCFI4
 1597 004a 0200     		.2byte	0x2
 1598 004c 7D       		.byte	0x7d
 1599 004d 08       		.sleb128 8
 1600 004e 04000000 		.4byte	.LCFI4
 1601 0052 06000000 		.4byte	.LCFI5
 1602 0056 0200     		.2byte	0x2
 1603 0058 7D       		.byte	0x7d
 1604 0059 10       		.sleb128 16
 1605 005a 06000000 		.4byte	.LCFI5
 1606 005e 2C000000 		.4byte	.LFE1
 1607 0062 0200     		.2byte	0x2
 1608 0064 77       		.byte	0x77
 1609 0065 10       		.sleb128 16
 1610 0066 00000000 		.4byte	0x0
 1611 006a 00000000 		.4byte	0x0
 1612              	.LLST2:
 1613 006e 00000000 		.4byte	.LFB2
 1614 0072 02000000 		.4byte	.LCFI6
 1615 0076 0100     		.2byte	0x1
 1616 0078 5D       		.byte	0x5d
 1617 0079 02000000 		.4byte	.LCFI6
 1618 007d 04000000 		.4byte	.LCFI7
 1619 0081 0200     		.2byte	0x2
 1620 0083 7D       		.byte	0x7d
 1621 0084 08       		.sleb128 8
 1622 0085 04000000 		.4byte	.LCFI7
 1623 0089 06000000 		.4byte	.LCFI8
 1624 008d 0200     		.2byte	0x2
 1625 008f 7D       		.byte	0x7d
 1626 0090 10       		.sleb128 16
 1627 0091 06000000 		.4byte	.LCFI8
 1628 0095 2C000000 		.4byte	.LFE2
 1629 0099 0200     		.2byte	0x2
 1630 009b 77       		.byte	0x77
 1631 009c 10       		.sleb128 16
 1632 009d 00000000 		.4byte	0x0
 1633 00a1 00000000 		.4byte	0x0
 1634              	.LLST3:
 1635 00a5 00000000 		.4byte	.LFB3
 1636 00a9 02000000 		.4byte	.LCFI9
 1637 00ad 0100     		.2byte	0x1
 1638 00af 5D       		.byte	0x5d
 1639 00b0 02000000 		.4byte	.LCFI9
 1640 00b4 04000000 		.4byte	.LCFI10
 1641 00b8 0200     		.2byte	0x2
 1642 00ba 7D       		.byte	0x7d
 1643 00bb 08       		.sleb128 8
ARM GAS  C:\Users\yguan5\AppData\Local\Temp\ccX3ogeL.s 			page 55


 1644 00bc 04000000 		.4byte	.LCFI10
 1645 00c0 06000000 		.4byte	.LCFI11
 1646 00c4 0200     		.2byte	0x2
 1647 00c6 7D       		.byte	0x7d
 1648 00c7 10       		.sleb128 16
 1649 00c8 06000000 		.4byte	.LCFI11
 1650 00cc 7C000000 		.4byte	.LFE3
 1651 00d0 0200     		.2byte	0x2
 1652 00d2 77       		.byte	0x77
 1653 00d3 10       		.sleb128 16
 1654 00d4 00000000 		.4byte	0x0
 1655 00d8 00000000 		.4byte	0x0
 1656              	.LLST4:
 1657 00dc 00000000 		.4byte	.LFB4
 1658 00e0 02000000 		.4byte	.LCFI12
 1659 00e4 0100     		.2byte	0x1
 1660 00e6 5D       		.byte	0x5d
 1661 00e7 02000000 		.4byte	.LCFI12
 1662 00eb 04000000 		.4byte	.LCFI13
 1663 00ef 0200     		.2byte	0x2
 1664 00f1 7D       		.byte	0x7d
 1665 00f2 08       		.sleb128 8
 1666 00f3 04000000 		.4byte	.LCFI13
 1667 00f7 06000000 		.4byte	.LCFI14
 1668 00fb 0200     		.2byte	0x2
 1669 00fd 7D       		.byte	0x7d
 1670 00fe 20       		.sleb128 32
 1671 00ff 06000000 		.4byte	.LCFI14
 1672 0103 B8010000 		.4byte	.LFE4
 1673 0107 0200     		.2byte	0x2
 1674 0109 77       		.byte	0x77
 1675 010a 20       		.sleb128 32
 1676 010b 00000000 		.4byte	0x0
 1677 010f 00000000 		.4byte	0x0
 1678              	.LLST5:
 1679 0113 00000000 		.4byte	.LFB5
 1680 0117 02000000 		.4byte	.LCFI15
 1681 011b 0100     		.2byte	0x1
 1682 011d 5D       		.byte	0x5d
 1683 011e 02000000 		.4byte	.LCFI15
 1684 0122 04000000 		.4byte	.LCFI16
 1685 0126 0200     		.2byte	0x2
 1686 0128 7D       		.byte	0x7d
 1687 0129 08       		.sleb128 8
 1688 012a 04000000 		.4byte	.LCFI16
 1689 012e 06000000 		.4byte	.LCFI17
 1690 0132 0200     		.2byte	0x2
 1691 0134 7D       		.byte	0x7d
 1692 0135 10       		.sleb128 16
 1693 0136 06000000 		.4byte	.LCFI17
 1694 013a 5C000000 		.4byte	.LFE5
 1695 013e 0200     		.2byte	0x2
 1696 0140 77       		.byte	0x77
 1697 0141 10       		.sleb128 16
 1698 0142 00000000 		.4byte	0x0
 1699 0146 00000000 		.4byte	0x0
 1700              	.LLST6:
ARM GAS  C:\Users\yguan5\AppData\Local\Temp\ccX3ogeL.s 			page 56


 1701 014a 00000000 		.4byte	.LFB6
 1702 014e 02000000 		.4byte	.LCFI18
 1703 0152 0100     		.2byte	0x1
 1704 0154 5D       		.byte	0x5d
 1705 0155 02000000 		.4byte	.LCFI18
 1706 0159 04000000 		.4byte	.LCFI19
 1707 015d 0200     		.2byte	0x2
 1708 015f 7D       		.byte	0x7d
 1709 0160 04       		.sleb128 4
 1710 0161 04000000 		.4byte	.LCFI19
 1711 0165 06000000 		.4byte	.LCFI20
 1712 0169 0200     		.2byte	0x2
 1713 016b 7D       		.byte	0x7d
 1714 016c 18       		.sleb128 24
 1715 016d 06000000 		.4byte	.LCFI20
 1716 0171 94010000 		.4byte	.LFE6
 1717 0175 0200     		.2byte	0x2
 1718 0177 77       		.byte	0x77
 1719 0178 18       		.sleb128 24
 1720 0179 00000000 		.4byte	0x0
 1721 017d 00000000 		.4byte	0x0
 1722              	.LLST7:
 1723 0181 00000000 		.4byte	.LFB7
 1724 0185 02000000 		.4byte	.LCFI21
 1725 0189 0100     		.2byte	0x1
 1726 018b 5D       		.byte	0x5d
 1727 018c 02000000 		.4byte	.LCFI21
 1728 0190 04000000 		.4byte	.LCFI22
 1729 0194 0200     		.2byte	0x2
 1730 0196 7D       		.byte	0x7d
 1731 0197 08       		.sleb128 8
 1732 0198 04000000 		.4byte	.LCFI22
 1733 019c 06000000 		.4byte	.LCFI23
 1734 01a0 0200     		.2byte	0x2
 1735 01a2 7D       		.byte	0x7d
 1736 01a3 18       		.sleb128 24
 1737 01a4 06000000 		.4byte	.LCFI23
 1738 01a8 60000000 		.4byte	.LFE7
 1739 01ac 0200     		.2byte	0x2
 1740 01ae 77       		.byte	0x77
 1741 01af 18       		.sleb128 24
 1742 01b0 00000000 		.4byte	0x0
 1743 01b4 00000000 		.4byte	0x0
 1744              	.LLST8:
 1745 01b8 00000000 		.4byte	.LFB8
 1746 01bc 02000000 		.4byte	.LCFI24
 1747 01c0 0100     		.2byte	0x1
 1748 01c2 5D       		.byte	0x5d
 1749 01c3 02000000 		.4byte	.LCFI24
 1750 01c7 04000000 		.4byte	.LCFI25
 1751 01cb 0200     		.2byte	0x2
 1752 01cd 7D       		.byte	0x7d
 1753 01ce 08       		.sleb128 8
 1754 01cf 04000000 		.4byte	.LCFI25
 1755 01d3 06000000 		.4byte	.LCFI26
 1756 01d7 0200     		.2byte	0x2
 1757 01d9 7D       		.byte	0x7d
ARM GAS  C:\Users\yguan5\AppData\Local\Temp\ccX3ogeL.s 			page 57


 1758 01da 10       		.sleb128 16
 1759 01db 06000000 		.4byte	.LCFI26
 1760 01df 42000000 		.4byte	.LFE8
 1761 01e3 0200     		.2byte	0x2
 1762 01e5 77       		.byte	0x77
 1763 01e6 10       		.sleb128 16
 1764 01e7 00000000 		.4byte	0x0
 1765 01eb 00000000 		.4byte	0x0
 1766              	.LLST9:
 1767 01ef 00000000 		.4byte	.LFB9
 1768 01f3 02000000 		.4byte	.LCFI27
 1769 01f7 0100     		.2byte	0x1
 1770 01f9 5D       		.byte	0x5d
 1771 01fa 02000000 		.4byte	.LCFI27
 1772 01fe 04000000 		.4byte	.LCFI28
 1773 0202 0200     		.2byte	0x2
 1774 0204 7D       		.byte	0x7d
 1775 0205 04       		.sleb128 4
 1776 0206 04000000 		.4byte	.LCFI28
 1777 020a 06000000 		.4byte	.LCFI29
 1778 020e 0200     		.2byte	0x2
 1779 0210 7D       		.byte	0x7d
 1780 0211 18       		.sleb128 24
 1781 0212 06000000 		.4byte	.LCFI29
 1782 0216 7C000000 		.4byte	.LFE9
 1783 021a 0200     		.2byte	0x2
 1784 021c 77       		.byte	0x77
 1785 021d 18       		.sleb128 24
 1786 021e 00000000 		.4byte	0x0
 1787 0222 00000000 		.4byte	0x0
 1788              	.LLST10:
 1789 0226 00000000 		.4byte	.LFB10
 1790 022a 02000000 		.4byte	.LCFI30
 1791 022e 0100     		.2byte	0x1
 1792 0230 5D       		.byte	0x5d
 1793 0231 02000000 		.4byte	.LCFI30
 1794 0235 04000000 		.4byte	.LCFI31
 1795 0239 0200     		.2byte	0x2
 1796 023b 7D       		.byte	0x7d
 1797 023c 04       		.sleb128 4
 1798 023d 04000000 		.4byte	.LCFI31
 1799 0241 06000000 		.4byte	.LCFI32
 1800 0245 0200     		.2byte	0x2
 1801 0247 7D       		.byte	0x7d
 1802 0248 18       		.sleb128 24
 1803 0249 06000000 		.4byte	.LCFI32
 1804 024d 86000000 		.4byte	.LFE10
 1805 0251 0200     		.2byte	0x2
 1806 0253 77       		.byte	0x77
 1807 0254 18       		.sleb128 24
 1808 0255 00000000 		.4byte	0x0
 1809 0259 00000000 		.4byte	0x0
 1810              	.LLST11:
 1811 025d 00000000 		.4byte	.LFB11
 1812 0261 02000000 		.4byte	.LCFI33
 1813 0265 0100     		.2byte	0x1
 1814 0267 5D       		.byte	0x5d
ARM GAS  C:\Users\yguan5\AppData\Local\Temp\ccX3ogeL.s 			page 58


 1815 0268 02000000 		.4byte	.LCFI33
 1816 026c 04000000 		.4byte	.LCFI34
 1817 0270 0200     		.2byte	0x2
 1818 0272 7D       		.byte	0x7d
 1819 0273 04       		.sleb128 4
 1820 0274 04000000 		.4byte	.LCFI34
 1821 0278 06000000 		.4byte	.LCFI35
 1822 027c 0200     		.2byte	0x2
 1823 027e 7D       		.byte	0x7d
 1824 027f 18       		.sleb128 24
 1825 0280 06000000 		.4byte	.LCFI35
 1826 0284 7C000000 		.4byte	.LFE11
 1827 0288 0200     		.2byte	0x2
 1828 028a 77       		.byte	0x77
 1829 028b 18       		.sleb128 24
 1830 028c 00000000 		.4byte	0x0
 1831 0290 00000000 		.4byte	0x0
 1832              	.LLST12:
 1833 0294 00000000 		.4byte	.LFB12
 1834 0298 02000000 		.4byte	.LCFI36
 1835 029c 0100     		.2byte	0x1
 1836 029e 5D       		.byte	0x5d
 1837 029f 02000000 		.4byte	.LCFI36
 1838 02a3 04000000 		.4byte	.LCFI37
 1839 02a7 0200     		.2byte	0x2
 1840 02a9 7D       		.byte	0x7d
 1841 02aa 04       		.sleb128 4
 1842 02ab 04000000 		.4byte	.LCFI37
 1843 02af 06000000 		.4byte	.LCFI38
 1844 02b3 0200     		.2byte	0x2
 1845 02b5 7D       		.byte	0x7d
 1846 02b6 20       		.sleb128 32
 1847 02b7 06000000 		.4byte	.LCFI38
 1848 02bb D2010000 		.4byte	.LFE12
 1849 02bf 0200     		.2byte	0x2
 1850 02c1 77       		.byte	0x77
 1851 02c2 20       		.sleb128 32
 1852 02c3 00000000 		.4byte	0x0
 1853 02c7 00000000 		.4byte	0x0
 1854              	.LLST13:
 1855 02cb 00000000 		.4byte	.LFB13
 1856 02cf 02000000 		.4byte	.LCFI39
 1857 02d3 0100     		.2byte	0x1
 1858 02d5 5D       		.byte	0x5d
 1859 02d6 02000000 		.4byte	.LCFI39
 1860 02da 04000000 		.4byte	.LCFI40
 1861 02de 0200     		.2byte	0x2
 1862 02e0 7D       		.byte	0x7d
 1863 02e1 08       		.sleb128 8
 1864 02e2 04000000 		.4byte	.LCFI40
 1865 02e6 06000000 		.4byte	.LCFI41
 1866 02ea 0200     		.2byte	0x2
 1867 02ec 7D       		.byte	0x7d
 1868 02ed 20       		.sleb128 32
 1869 02ee 06000000 		.4byte	.LCFI41
 1870 02f2 90000000 		.4byte	.LFE13
 1871 02f6 0200     		.2byte	0x2
ARM GAS  C:\Users\yguan5\AppData\Local\Temp\ccX3ogeL.s 			page 59


 1872 02f8 77       		.byte	0x77
 1873 02f9 18       		.sleb128 24
 1874 02fa 00000000 		.4byte	0x0
 1875 02fe 00000000 		.4byte	0x0
 1876              		.file 2 ".\\Generated_Source\\PSoC5\\/cytypes.h"
 1877              		.section	.debug_info
 1878 0000 91070000 		.4byte	0x791
 1879 0004 0200     		.2byte	0x2
 1880 0006 00000000 		.4byte	.Ldebug_abbrev0
 1881 000a 04       		.byte	0x4
 1882 000b 01       		.uleb128 0x1
 1883 000c AA000000 		.4byte	.LASF73
 1884 0010 01       		.byte	0x1
 1885 0011 49050000 		.4byte	.LASF74
 1886 0015 FB010000 		.4byte	.LASF75
 1887 0019 00000000 		.4byte	0x0
 1888 001d 00000000 		.4byte	0x0
 1889 0021 00000000 		.4byte	.Ldebug_ranges0+0x0
 1890 0025 00000000 		.4byte	.Ldebug_line0
 1891 0029 02       		.uleb128 0x2
 1892 002a 01       		.byte	0x1
 1893 002b 06       		.byte	0x6
 1894 002c C4000000 		.4byte	.LASF0
 1895 0030 02       		.uleb128 0x2
 1896 0031 01       		.byte	0x1
 1897 0032 08       		.byte	0x8
 1898 0033 9F030000 		.4byte	.LASF1
 1899 0037 02       		.uleb128 0x2
 1900 0038 02       		.byte	0x2
 1901 0039 05       		.byte	0x5
 1902 003a BC030000 		.4byte	.LASF2
 1903 003e 02       		.uleb128 0x2
 1904 003f 02       		.byte	0x2
 1905 0040 07       		.byte	0x7
 1906 0041 61020000 		.4byte	.LASF3
 1907 0045 02       		.uleb128 0x2
 1908 0046 04       		.byte	0x4
 1909 0047 05       		.byte	0x5
 1910 0048 16010000 		.4byte	.LASF4
 1911 004c 02       		.uleb128 0x2
 1912 004d 04       		.byte	0x4
 1913 004e 07       		.byte	0x7
 1914 004f E9010000 		.4byte	.LASF5
 1915 0053 02       		.uleb128 0x2
 1916 0054 08       		.byte	0x8
 1917 0055 05       		.byte	0x5
 1918 0056 B6000000 		.4byte	.LASF6
 1919 005a 02       		.uleb128 0x2
 1920 005b 08       		.byte	0x8
 1921 005c 07       		.byte	0x7
 1922 005d 93000000 		.4byte	.LASF7
 1923 0061 03       		.uleb128 0x3
 1924 0062 04       		.byte	0x4
 1925 0063 05       		.byte	0x5
 1926 0064 696E7400 		.ascii	"int\000"
 1927 0068 02       		.uleb128 0x2
 1928 0069 04       		.byte	0x4
ARM GAS  C:\Users\yguan5\AppData\Local\Temp\ccX3ogeL.s 			page 60


 1929 006a 07       		.byte	0x7
 1930 006b D3010000 		.4byte	.LASF8
 1931 006f 04       		.uleb128 0x4
 1932 0070 4F010000 		.4byte	.LASF9
 1933 0074 02       		.byte	0x2
 1934 0075 4C       		.byte	0x4c
 1935 0076 30000000 		.4byte	0x30
 1936 007a 04       		.uleb128 0x4
 1937 007b 22000000 		.4byte	.LASF10
 1938 007f 02       		.byte	0x2
 1939 0080 4D       		.byte	0x4d
 1940 0081 3E000000 		.4byte	0x3e
 1941 0085 04       		.uleb128 0x4
 1942 0086 7A010000 		.4byte	.LASF11
 1943 008a 02       		.byte	0x2
 1944 008b 4E       		.byte	0x4e
 1945 008c 4C000000 		.4byte	0x4c
 1946 0090 04       		.uleb128 0x4
 1947 0091 E9000000 		.4byte	.LASF12
 1948 0095 02       		.byte	0x2
 1949 0096 51       		.byte	0x51
 1950 0097 45000000 		.4byte	0x45
 1951 009b 02       		.uleb128 0x2
 1952 009c 04       		.byte	0x4
 1953 009d 04       		.byte	0x4
 1954 009e 58030000 		.4byte	.LASF13
 1955 00a2 02       		.uleb128 0x2
 1956 00a3 08       		.byte	0x8
 1957 00a4 04       		.byte	0x4
 1958 00a5 73010000 		.4byte	.LASF14
 1959 00a9 02       		.uleb128 0x2
 1960 00aa 01       		.byte	0x1
 1961 00ab 08       		.byte	0x8
 1962 00ac 42040000 		.4byte	.LASF15
 1963 00b0 05       		.uleb128 0x5
 1964 00b1 04       		.byte	0x4
 1965 00b2 07       		.byte	0x7
 1966 00b3 06       		.uleb128 0x6
 1967 00b4 01       		.byte	0x1
 1968 00b5 8C010000 		.4byte	.LASF16
 1969 00b9 01       		.byte	0x1
 1970 00ba BA       		.byte	0xba
 1971 00bb 01       		.byte	0x1
 1972 00bc 00000000 		.4byte	.LFB0
 1973 00c0 80000000 		.4byte	.LFE0
 1974 00c4 00000000 		.4byte	.LLST0
 1975 00c8 E9000000 		.4byte	0xe9
 1976 00cc 07       		.uleb128 0x7
 1977 00cd 74020000 		.4byte	.LASF18
 1978 00d1 01       		.byte	0x1
 1979 00d2 BA       		.byte	0xba
 1980 00d3 6F000000 		.4byte	0x6f
 1981 00d7 02       		.byte	0x2
 1982 00d8 91       		.byte	0x91
 1983 00d9 6F       		.sleb128 -17
 1984 00da 08       		.uleb128 0x8
 1985 00db C6030000 		.4byte	.LASF20
ARM GAS  C:\Users\yguan5\AppData\Local\Temp\ccX3ogeL.s 			page 61


 1986 00df 01       		.byte	0x1
 1987 00e0 BE       		.byte	0xbe
 1988 00e1 6F000000 		.4byte	0x6f
 1989 00e5 02       		.byte	0x2
 1990 00e6 91       		.byte	0x91
 1991 00e7 77       		.sleb128 -9
 1992 00e8 00       		.byte	0x0
 1993 00e9 09       		.uleb128 0x9
 1994 00ea 01       		.byte	0x1
 1995 00eb 65000000 		.4byte	.LASF17
 1996 00ef 01       		.byte	0x1
 1997 00f0 0601     		.2byte	0x106
 1998 00f2 01       		.byte	0x1
 1999 00f3 00000000 		.4byte	.LFB1
 2000 00f7 2C000000 		.4byte	.LFE1
 2001 00fb 37000000 		.4byte	.LLST1
 2002 00ff 13010000 		.4byte	0x113
 2003 0103 0A       		.uleb128 0xa
 2004 0104 74020000 		.4byte	.LASF18
 2005 0108 01       		.byte	0x1
 2006 0109 0601     		.2byte	0x106
 2007 010b 6F000000 		.4byte	0x6f
 2008 010f 02       		.byte	0x2
 2009 0110 91       		.byte	0x91
 2010 0111 77       		.sleb128 -9
 2011 0112 00       		.byte	0x0
 2012 0113 09       		.uleb128 0x9
 2013 0114 01       		.byte	0x1
 2014 0115 5E030000 		.4byte	.LASF19
 2015 0119 01       		.byte	0x1
 2016 011a 3701     		.2byte	0x137
 2017 011c 01       		.byte	0x1
 2018 011d 00000000 		.4byte	.LFB2
 2019 0121 2C000000 		.4byte	.LFE2
 2020 0125 6E000000 		.4byte	.LLST2
 2021 0129 3B010000 		.4byte	0x13b
 2022 012d 0B       		.uleb128 0xb
 2023 012e 6900     		.ascii	"i\000"
 2024 0130 01       		.byte	0x1
 2025 0131 3A01     		.2byte	0x13a
 2026 0133 6F000000 		.4byte	0x6f
 2027 0137 02       		.byte	0x2
 2028 0138 91       		.byte	0x91
 2029 0139 77       		.sleb128 -9
 2030 013a 00       		.byte	0x0
 2031 013b 09       		.uleb128 0x9
 2032 013c 01       		.byte	0x1
 2033 013d D7020000 		.4byte	.LASF21
 2034 0141 01       		.byte	0x1
 2035 0142 5801     		.2byte	0x158
 2036 0144 01       		.byte	0x1
 2037 0145 00000000 		.4byte	.LFB3
 2038 0149 7C000000 		.4byte	.LFE3
 2039 014d A5000000 		.4byte	.LLST3
 2040 0151 81010000 		.4byte	0x181
 2041 0155 0B       		.uleb128 0xb
 2042 0156 6900     		.ascii	"i\000"
ARM GAS  C:\Users\yguan5\AppData\Local\Temp\ccX3ogeL.s 			page 62


 2043 0158 01       		.byte	0x1
 2044 0159 5B01     		.2byte	0x15b
 2045 015b 6F000000 		.4byte	0x6f
 2046 015f 02       		.byte	0x2
 2047 0160 91       		.byte	0x91
 2048 0161 75       		.sleb128 -11
 2049 0162 0B       		.uleb128 0xb
 2050 0163 706F7300 		.ascii	"pos\000"
 2051 0167 01       		.byte	0x1
 2052 0168 5C01     		.2byte	0x15c
 2053 016a 6F000000 		.4byte	0x6f
 2054 016e 02       		.byte	0x2
 2055 016f 91       		.byte	0x91
 2056 0170 76       		.sleb128 -10
 2057 0171 0C       		.uleb128 0xc
 2058 0172 19030000 		.4byte	.LASF22
 2059 0176 01       		.byte	0x1
 2060 0177 5D01     		.2byte	0x15d
 2061 0179 6F000000 		.4byte	0x6f
 2062 017d 02       		.byte	0x2
 2063 017e 91       		.byte	0x91
 2064 017f 77       		.sleb128 -9
 2065 0180 00       		.byte	0x0
 2066 0181 09       		.uleb128 0x9
 2067 0182 01       		.byte	0x1
 2068 0183 DC030000 		.4byte	.LASF23
 2069 0187 01       		.byte	0x1
 2070 0188 9801     		.2byte	0x198
 2071 018a 01       		.byte	0x1
 2072 018b 00000000 		.4byte	.LFB4
 2073 018f B8010000 		.4byte	.LFE4
 2074 0193 DC000000 		.4byte	.LLST4
 2075 0197 F6010000 		.4byte	0x1f6
 2076 019b 0A       		.uleb128 0xa
 2077 019c 74020000 		.4byte	.LASF18
 2078 01a0 01       		.byte	0x1
 2079 01a1 9801     		.2byte	0x198
 2080 01a3 6F000000 		.4byte	0x6f
 2081 01a7 02       		.byte	0x2
 2082 01a8 91       		.byte	0x91
 2083 01a9 67       		.sleb128 -25
 2084 01aa 0C       		.uleb128 0xc
 2085 01ab AF020000 		.4byte	.LASF24
 2086 01af 01       		.byte	0x1
 2087 01b0 9B01     		.2byte	0x19b
 2088 01b2 85000000 		.4byte	0x85
 2089 01b6 02       		.byte	0x2
 2090 01b7 91       		.byte	0x91
 2091 01b8 6C       		.sleb128 -20
 2092 01b9 0C       		.uleb128 0xc
 2093 01ba 93050000 		.4byte	.LASF25
 2094 01be 01       		.byte	0x1
 2095 01bf 9C01     		.2byte	0x19c
 2096 01c1 7A000000 		.4byte	0x7a
 2097 01c5 02       		.byte	0x2
 2098 01c6 91       		.byte	0x91
 2099 01c7 72       		.sleb128 -14
ARM GAS  C:\Users\yguan5\AppData\Local\Temp\ccX3ogeL.s 			page 63


 2100 01c8 0C       		.uleb128 0xc
 2101 01c9 29000000 		.4byte	.LASF26
 2102 01cd 01       		.byte	0x1
 2103 01ce 9D01     		.2byte	0x19d
 2104 01d0 7A000000 		.4byte	0x7a
 2105 01d4 02       		.byte	0x2
 2106 01d5 91       		.byte	0x91
 2107 01d6 74       		.sleb128 -12
 2108 01d7 0C       		.uleb128 0xc
 2109 01d8 C6030000 		.4byte	.LASF20
 2110 01dc 01       		.byte	0x1
 2111 01dd 9E01     		.2byte	0x19e
 2112 01df 6F000000 		.4byte	0x6f
 2113 01e3 02       		.byte	0x2
 2114 01e4 91       		.byte	0x91
 2115 01e5 76       		.sleb128 -10
 2116 01e6 0C       		.uleb128 0xc
 2117 01e7 AD030000 		.4byte	.LASF27
 2118 01eb 01       		.byte	0x1
 2119 01ec 9F01     		.2byte	0x19f
 2120 01ee 6F000000 		.4byte	0x6f
 2121 01f2 02       		.byte	0x2
 2122 01f3 91       		.byte	0x91
 2123 01f4 77       		.sleb128 -9
 2124 01f5 00       		.byte	0x0
 2125 01f6 09       		.uleb128 0x9
 2126 01f7 01       		.byte	0x1
 2127 01f8 61040000 		.4byte	.LASF28
 2128 01fc 01       		.byte	0x1
 2129 01fd 4502     		.2byte	0x245
 2130 01ff 01       		.byte	0x1
 2131 0200 00000000 		.4byte	.LFB5
 2132 0204 5C000000 		.4byte	.LFE5
 2133 0208 13010000 		.4byte	.LLST5
 2134 020c 3C020000 		.4byte	0x23c
 2135 0210 0B       		.uleb128 0xb
 2136 0211 6900     		.ascii	"i\000"
 2137 0213 01       		.byte	0x1
 2138 0214 4802     		.2byte	0x248
 2139 0216 6F000000 		.4byte	0x6f
 2140 021a 02       		.byte	0x2
 2141 021b 91       		.byte	0x91
 2142 021c 75       		.sleb128 -11
 2143 021d 0B       		.uleb128 0xb
 2144 021e 706F7300 		.ascii	"pos\000"
 2145 0222 01       		.byte	0x1
 2146 0223 4902     		.2byte	0x249
 2147 0225 6F000000 		.4byte	0x6f
 2148 0229 02       		.byte	0x2
 2149 022a 91       		.byte	0x91
 2150 022b 76       		.sleb128 -10
 2151 022c 0C       		.uleb128 0xc
 2152 022d 19030000 		.4byte	.LASF22
 2153 0231 01       		.byte	0x1
 2154 0232 4A02     		.2byte	0x24a
 2155 0234 6F000000 		.4byte	0x6f
 2156 0238 02       		.byte	0x2
ARM GAS  C:\Users\yguan5\AppData\Local\Temp\ccX3ogeL.s 			page 64


 2157 0239 91       		.byte	0x91
 2158 023a 77       		.sleb128 -9
 2159 023b 00       		.byte	0x0
 2160 023c 0D       		.uleb128 0xd
 2161 023d 01       		.byte	0x1
 2162 023e EF000000 		.4byte	.LASF34
 2163 0242 01       		.byte	0x1
 2164 0243 7F02     		.2byte	0x27f
 2165 0245 01       		.byte	0x1
 2166 0246 6F000000 		.4byte	0x6f
 2167 024a 00000000 		.4byte	.LFB6
 2168 024e 94010000 		.4byte	.LFE6
 2169 0252 4A010000 		.4byte	.LLST6
 2170 0256 D3020000 		.4byte	0x2d3
 2171 025a 0A       		.uleb128 0xa
 2172 025b 74020000 		.4byte	.LASF18
 2173 025f 01       		.byte	0x1
 2174 0260 7F02     		.2byte	0x27f
 2175 0262 6F000000 		.4byte	0x6f
 2176 0266 02       		.byte	0x2
 2177 0267 91       		.byte	0x91
 2178 0268 6F       		.sleb128 -17
 2179 0269 0C       		.uleb128 0xc
 2180 026a BE040000 		.4byte	.LASF29
 2181 026e 01       		.byte	0x1
 2182 026f 8202     		.2byte	0x282
 2183 0271 6F000000 		.4byte	0x6f
 2184 0275 02       		.byte	0x2
 2185 0276 91       		.byte	0x91
 2186 0277 71       		.sleb128 -15
 2187 0278 0B       		.uleb128 0xb
 2188 0279 706F7300 		.ascii	"pos\000"
 2189 027d 01       		.byte	0x1
 2190 027e 8402     		.2byte	0x284
 2191 0280 6F000000 		.4byte	0x6f
 2192 0284 02       		.byte	0x2
 2193 0285 91       		.byte	0x91
 2194 0286 72       		.sleb128 -14
 2195 0287 0C       		.uleb128 0xc
 2196 0288 CD030000 		.4byte	.LASF30
 2197 028c 01       		.byte	0x1
 2198 028d 8502     		.2byte	0x285
 2199 028f 6F000000 		.4byte	0x6f
 2200 0293 02       		.byte	0x2
 2201 0294 91       		.byte	0x91
 2202 0295 73       		.sleb128 -13
 2203 0296 0C       		.uleb128 0xc
 2204 0297 C6030000 		.4byte	.LASF20
 2205 029b 01       		.byte	0x1
 2206 029c 8702     		.2byte	0x287
 2207 029e 6F000000 		.4byte	0x6f
 2208 02a2 02       		.byte	0x2
 2209 02a3 91       		.byte	0x91
 2210 02a4 74       		.sleb128 -12
 2211 02a5 0C       		.uleb128 0xc
 2212 02a6 55000000 		.4byte	.LASF31
 2213 02aa 01       		.byte	0x1
ARM GAS  C:\Users\yguan5\AppData\Local\Temp\ccX3ogeL.s 			page 65


 2214 02ab 8802     		.2byte	0x288
 2215 02ad 6F000000 		.4byte	0x6f
 2216 02b1 02       		.byte	0x2
 2217 02b2 91       		.byte	0x91
 2218 02b3 75       		.sleb128 -11
 2219 02b4 0C       		.uleb128 0xc
 2220 02b5 81010000 		.4byte	.LASF32
 2221 02b9 01       		.byte	0x1
 2222 02ba 8902     		.2byte	0x289
 2223 02bc 6F000000 		.4byte	0x6f
 2224 02c0 02       		.byte	0x2
 2225 02c1 91       		.byte	0x91
 2226 02c2 76       		.sleb128 -10
 2227 02c3 0C       		.uleb128 0xc
 2228 02c4 CE020000 		.4byte	.LASF33
 2229 02c8 01       		.byte	0x1
 2230 02c9 8A02     		.2byte	0x28a
 2231 02cb 6F000000 		.4byte	0x6f
 2232 02cf 02       		.byte	0x2
 2233 02d0 91       		.byte	0x91
 2234 02d1 77       		.sleb128 -9
 2235 02d2 00       		.byte	0x0
 2236 02d3 0D       		.uleb128 0xd
 2237 02d4 01       		.byte	0x1
 2238 02d5 F0040000 		.4byte	.LASF35
 2239 02d9 01       		.byte	0x1
 2240 02da CE02     		.2byte	0x2ce
 2241 02dc 01       		.byte	0x1
 2242 02dd 6F000000 		.4byte	0x6f
 2243 02e1 00000000 		.4byte	.LFB7
 2244 02e5 60000000 		.4byte	.LFE7
 2245 02e9 81010000 		.4byte	.LLST7
 2246 02ed 2E030000 		.4byte	0x32e
 2247 02f1 0A       		.uleb128 0xa
 2248 02f2 C6030000 		.4byte	.LASF20
 2249 02f6 01       		.byte	0x1
 2250 02f7 CE02     		.2byte	0x2ce
 2251 02f9 6F000000 		.4byte	0x6f
 2252 02fd 02       		.byte	0x2
 2253 02fe 91       		.byte	0x91
 2254 02ff 6F       		.sleb128 -17
 2255 0300 0C       		.uleb128 0xc
 2256 0301 D0000000 		.4byte	.LASF36
 2257 0305 01       		.byte	0x1
 2258 0306 D102     		.2byte	0x2d1
 2259 0308 6F000000 		.4byte	0x6f
 2260 030c 02       		.byte	0x2
 2261 030d 91       		.byte	0x91
 2262 030e 75       		.sleb128 -11
 2263 030f 0C       		.uleb128 0xc
 2264 0310 D9000000 		.4byte	.LASF37
 2265 0314 01       		.byte	0x1
 2266 0315 D202     		.2byte	0x2d2
 2267 0317 6F000000 		.4byte	0x6f
 2268 031b 02       		.byte	0x2
 2269 031c 91       		.byte	0x91
 2270 031d 76       		.sleb128 -10
ARM GAS  C:\Users\yguan5\AppData\Local\Temp\ccX3ogeL.s 			page 66


 2271 031e 0C       		.uleb128 0xc
 2272 031f 10010000 		.4byte	.LASF38
 2273 0323 01       		.byte	0x1
 2274 0324 D302     		.2byte	0x2d3
 2275 0326 6F000000 		.4byte	0x6f
 2276 032a 02       		.byte	0x2
 2277 032b 91       		.byte	0x91
 2278 032c 77       		.sleb128 -9
 2279 032d 00       		.byte	0x0
 2280 032e 0D       		.uleb128 0xd
 2281 032f 01       		.byte	0x1
 2282 0330 CC040000 		.4byte	.LASF39
 2283 0334 01       		.byte	0x1
 2284 0335 FA02     		.2byte	0x2fa
 2285 0337 01       		.byte	0x1
 2286 0338 6F000000 		.4byte	0x6f
 2287 033c 00000000 		.4byte	.LFB8
 2288 0340 42000000 		.4byte	.LFE8
 2289 0344 B8010000 		.4byte	.LLST8
 2290 0348 69030000 		.4byte	0x369
 2291 034c 0B       		.uleb128 0xb
 2292 034d 6900     		.ascii	"i\000"
 2293 034f 01       		.byte	0x1
 2294 0350 FD02     		.2byte	0x2fd
 2295 0352 6F000000 		.4byte	0x6f
 2296 0356 02       		.byte	0x2
 2297 0357 91       		.byte	0x91
 2298 0358 76       		.sleb128 -10
 2299 0359 0C       		.uleb128 0xc
 2300 035a 10010000 		.4byte	.LASF38
 2301 035e 01       		.byte	0x1
 2302 035f FE02     		.2byte	0x2fe
 2303 0361 6F000000 		.4byte	0x6f
 2304 0365 02       		.byte	0x2
 2305 0366 91       		.byte	0x91
 2306 0367 77       		.sleb128 -9
 2307 0368 00       		.byte	0x0
 2308 0369 09       		.uleb128 0x9
 2309 036a 01       		.byte	0x1
 2310 036b 47040000 		.4byte	.LASF40
 2311 036f 01       		.byte	0x1
 2312 0370 2803     		.2byte	0x328
 2313 0372 01       		.byte	0x1
 2314 0373 00000000 		.4byte	.LFB9
 2315 0377 7C000000 		.4byte	.LFE9
 2316 037b EF010000 		.4byte	.LLST9
 2317 037f CF030000 		.4byte	0x3cf
 2318 0383 0A       		.uleb128 0xa
 2319 0384 C6030000 		.4byte	.LASF20
 2320 0388 01       		.byte	0x1
 2321 0389 2803     		.2byte	0x328
 2322 038b 6F000000 		.4byte	0x6f
 2323 038f 02       		.byte	0x2
 2324 0390 91       		.byte	0x91
 2325 0391 6F       		.sleb128 -17
 2326 0392 0B       		.uleb128 0xb
 2327 0393 706F7300 		.ascii	"pos\000"
ARM GAS  C:\Users\yguan5\AppData\Local\Temp\ccX3ogeL.s 			page 67


 2328 0397 01       		.byte	0x1
 2329 0398 2B03     		.2byte	0x32b
 2330 039a 6F000000 		.4byte	0x6f
 2331 039e 02       		.byte	0x2
 2332 039f 91       		.byte	0x91
 2333 03a0 74       		.sleb128 -12
 2334 03a1 0C       		.uleb128 0xc
 2335 03a2 19030000 		.4byte	.LASF22
 2336 03a6 01       		.byte	0x1
 2337 03a7 2C03     		.2byte	0x32c
 2338 03a9 6F000000 		.4byte	0x6f
 2339 03ad 02       		.byte	0x2
 2340 03ae 91       		.byte	0x91
 2341 03af 75       		.sleb128 -11
 2342 03b0 0C       		.uleb128 0xc
 2343 03b1 D0000000 		.4byte	.LASF36
 2344 03b5 01       		.byte	0x1
 2345 03b6 2D03     		.2byte	0x32d
 2346 03b8 6F000000 		.4byte	0x6f
 2347 03bc 02       		.byte	0x2
 2348 03bd 91       		.byte	0x91
 2349 03be 76       		.sleb128 -10
 2350 03bf 0C       		.uleb128 0xc
 2351 03c0 D9000000 		.4byte	.LASF37
 2352 03c4 01       		.byte	0x1
 2353 03c5 2E03     		.2byte	0x32e
 2354 03c7 6F000000 		.4byte	0x6f
 2355 03cb 02       		.byte	0x2
 2356 03cc 91       		.byte	0x91
 2357 03cd 77       		.sleb128 -9
 2358 03ce 00       		.byte	0x0
 2359 03cf 09       		.uleb128 0x9
 2360 03d0 01       		.byte	0x1
 2361 03d1 9B050000 		.4byte	.LASF41
 2362 03d5 01       		.byte	0x1
 2363 03d6 5A03     		.2byte	0x35a
 2364 03d8 01       		.byte	0x1
 2365 03d9 00000000 		.4byte	.LFB10
 2366 03dd 86000000 		.4byte	.LFE10
 2367 03e1 26020000 		.4byte	.LLST10
 2368 03e5 35040000 		.4byte	0x435
 2369 03e9 0A       		.uleb128 0xa
 2370 03ea C6030000 		.4byte	.LASF20
 2371 03ee 01       		.byte	0x1
 2372 03ef 5A03     		.2byte	0x35a
 2373 03f1 6F000000 		.4byte	0x6f
 2374 03f5 02       		.byte	0x2
 2375 03f6 91       		.byte	0x91
 2376 03f7 6F       		.sleb128 -17
 2377 03f8 0B       		.uleb128 0xb
 2378 03f9 706F7300 		.ascii	"pos\000"
 2379 03fd 01       		.byte	0x1
 2380 03fe 5D03     		.2byte	0x35d
 2381 0400 6F000000 		.4byte	0x6f
 2382 0404 02       		.byte	0x2
 2383 0405 91       		.byte	0x91
 2384 0406 74       		.sleb128 -12
ARM GAS  C:\Users\yguan5\AppData\Local\Temp\ccX3ogeL.s 			page 68


 2385 0407 0C       		.uleb128 0xc
 2386 0408 19030000 		.4byte	.LASF22
 2387 040c 01       		.byte	0x1
 2388 040d 5E03     		.2byte	0x35e
 2389 040f 6F000000 		.4byte	0x6f
 2390 0413 02       		.byte	0x2
 2391 0414 91       		.byte	0x91
 2392 0415 75       		.sleb128 -11
 2393 0416 0C       		.uleb128 0xc
 2394 0417 D0000000 		.4byte	.LASF36
 2395 041b 01       		.byte	0x1
 2396 041c 5F03     		.2byte	0x35f
 2397 041e 6F000000 		.4byte	0x6f
 2398 0422 02       		.byte	0x2
 2399 0423 91       		.byte	0x91
 2400 0424 76       		.sleb128 -10
 2401 0425 0C       		.uleb128 0xc
 2402 0426 D9000000 		.4byte	.LASF37
 2403 042a 01       		.byte	0x1
 2404 042b 6003     		.2byte	0x360
 2405 042d 6F000000 		.4byte	0x6f
 2406 0431 02       		.byte	0x2
 2407 0432 91       		.byte	0x91
 2408 0433 77       		.sleb128 -9
 2409 0434 00       		.byte	0x0
 2410 0435 0D       		.uleb128 0xd
 2411 0436 01       		.byte	0x1
 2412 0437 3F030000 		.4byte	.LASF42
 2413 043b 01       		.byte	0x1
 2414 043c 8C03     		.2byte	0x38c
 2415 043e 01       		.byte	0x1
 2416 043f 6F000000 		.4byte	0x6f
 2417 0443 00000000 		.4byte	.LFB11
 2418 0447 7C000000 		.4byte	.LFE11
 2419 044b 5D020000 		.4byte	.LLST11
 2420 044f BB040000 		.4byte	0x4bb
 2421 0453 0A       		.uleb128 0xa
 2422 0454 85040000 		.4byte	.LASF43
 2423 0458 01       		.byte	0x1
 2424 0459 8C03     		.2byte	0x38c
 2425 045b 6F000000 		.4byte	0x6f
 2426 045f 02       		.byte	0x2
 2427 0460 91       		.byte	0x91
 2428 0461 6F       		.sleb128 -17
 2429 0462 0A       		.uleb128 0xa
 2430 0463 00000000 		.4byte	.LASF44
 2431 0467 01       		.byte	0x1
 2432 0468 8C03     		.2byte	0x38c
 2433 046a 6F000000 		.4byte	0x6f
 2434 046e 02       		.byte	0x2
 2435 046f 91       		.byte	0x91
 2436 0470 6E       		.sleb128 -18
 2437 0471 0A       		.uleb128 0xa
 2438 0472 55000000 		.4byte	.LASF31
 2439 0476 01       		.byte	0x1
 2440 0477 8C03     		.2byte	0x38c
 2441 0479 6F000000 		.4byte	0x6f
ARM GAS  C:\Users\yguan5\AppData\Local\Temp\ccX3ogeL.s 			page 69


 2442 047d 02       		.byte	0x2
 2443 047e 91       		.byte	0x91
 2444 047f 6D       		.sleb128 -19
 2445 0480 0B       		.uleb128 0xb
 2446 0481 6900     		.ascii	"i\000"
 2447 0483 01       		.byte	0x1
 2448 0484 9003     		.2byte	0x390
 2449 0486 6F000000 		.4byte	0x6f
 2450 048a 02       		.byte	0x2
 2451 048b 91       		.byte	0x91
 2452 048c 71       		.sleb128 -15
 2453 048d 0C       		.uleb128 0xc
 2454 048e D4030000 		.4byte	.LASF45
 2455 0492 01       		.byte	0x1
 2456 0493 9A03     		.2byte	0x39a
 2457 0495 6F000000 		.4byte	0x6f
 2458 0499 02       		.byte	0x2
 2459 049a 91       		.byte	0x91
 2460 049b 72       		.sleb128 -14
 2461 049c 0C       		.uleb128 0xc
 2462 049d B8010000 		.4byte	.LASF46
 2463 04a1 01       		.byte	0x1
 2464 04a2 9B03     		.2byte	0x39b
 2465 04a4 6F000000 		.4byte	0x6f
 2466 04a8 02       		.byte	0x2
 2467 04a9 91       		.byte	0x91
 2468 04aa 73       		.sleb128 -13
 2469 04ab 0C       		.uleb128 0xc
 2470 04ac AA010000 		.4byte	.LASF47
 2471 04b0 01       		.byte	0x1
 2472 04b1 9C03     		.2byte	0x39c
 2473 04b3 BB040000 		.4byte	0x4bb
 2474 04b7 02       		.byte	0x2
 2475 04b8 91       		.byte	0x91
 2476 04b9 74       		.sleb128 -12
 2477 04ba 00       		.byte	0x0
 2478 04bb 0E       		.uleb128 0xe
 2479 04bc 04       		.byte	0x4
 2480 04bd 6F000000 		.4byte	0x6f
 2481 04c1 0D       		.uleb128 0xd
 2482 04c2 01       		.byte	0x1
 2483 04c3 95020000 		.4byte	.LASF48
 2484 04c7 01       		.byte	0x1
 2485 04c8 2804     		.2byte	0x428
 2486 04ca 01       		.byte	0x1
 2487 04cb 6F000000 		.4byte	0x6f
 2488 04cf 00000000 		.4byte	.LFB12
 2489 04d3 D2010000 		.4byte	.LFE12
 2490 04d7 94020000 		.4byte	.LLST12
 2491 04db 85050000 		.4byte	0x585
 2492 04df 0A       		.uleb128 0xa
 2493 04e0 D4030000 		.4byte	.LASF45
 2494 04e4 01       		.byte	0x1
 2495 04e5 2804     		.2byte	0x428
 2496 04e7 6F000000 		.4byte	0x6f
 2497 04eb 02       		.byte	0x2
 2498 04ec 91       		.byte	0x91
ARM GAS  C:\Users\yguan5\AppData\Local\Temp\ccX3ogeL.s 			page 70


 2499 04ed 67       		.sleb128 -25
 2500 04ee 0A       		.uleb128 0xa
 2501 04ef 85040000 		.4byte	.LASF43
 2502 04f3 01       		.byte	0x1
 2503 04f4 2804     		.2byte	0x428
 2504 04f6 6F000000 		.4byte	0x6f
 2505 04fa 02       		.byte	0x2
 2506 04fb 91       		.byte	0x91
 2507 04fc 66       		.sleb128 -26
 2508 04fd 0A       		.uleb128 0xa
 2509 04fe 00000000 		.4byte	.LASF44
 2510 0502 01       		.byte	0x1
 2511 0503 2904     		.2byte	0x429
 2512 0505 6F000000 		.4byte	0x6f
 2513 0509 02       		.byte	0x2
 2514 050a 91       		.byte	0x91
 2515 050b 65       		.sleb128 -27
 2516 050c 0A       		.uleb128 0xa
 2517 050d FE030000 		.4byte	.LASF49
 2518 0511 01       		.byte	0x1
 2519 0512 2904     		.2byte	0x429
 2520 0514 7A000000 		.4byte	0x7a
 2521 0518 02       		.byte	0x2
 2522 0519 91       		.byte	0x91
 2523 051a 62       		.sleb128 -30
 2524 051b 0A       		.uleb128 0xa
 2525 051c AD030000 		.4byte	.LASF27
 2526 0520 01       		.byte	0x1
 2527 0521 2904     		.2byte	0x429
 2528 0523 6F000000 		.4byte	0x6f
 2529 0527 02       		.byte	0x2
 2530 0528 91       		.byte	0x91
 2531 0529 00       		.sleb128 0
 2532 052a 0C       		.uleb128 0xc
 2533 052b 8B000000 		.4byte	.LASF50
 2534 052f 01       		.byte	0x1
 2535 0530 2D04     		.2byte	0x42d
 2536 0532 6F000000 		.4byte	0x6f
 2537 0536 02       		.byte	0x2
 2538 0537 91       		.byte	0x91
 2539 0538 69       		.sleb128 -23
 2540 0539 0C       		.uleb128 0xc
 2541 053a A2010000 		.4byte	.LASF51
 2542 053e 01       		.byte	0x1
 2543 053f 2E04     		.2byte	0x42e
 2544 0541 6F000000 		.4byte	0x6f
 2545 0545 02       		.byte	0x2
 2546 0546 91       		.byte	0x91
 2547 0547 6A       		.sleb128 -22
 2548 0548 0C       		.uleb128 0xc
 2549 0549 E0010000 		.4byte	.LASF52
 2550 054d 01       		.byte	0x1
 2551 054e 3504     		.2byte	0x435
 2552 0550 6F000000 		.4byte	0x6f
 2553 0554 02       		.byte	0x2
 2554 0555 91       		.byte	0x91
 2555 0556 6B       		.sleb128 -21
ARM GAS  C:\Users\yguan5\AppData\Local\Temp\ccX3ogeL.s 			page 71


 2556 0557 0C       		.uleb128 0xc
 2557 0558 1F010000 		.4byte	.LASF53
 2558 055c 01       		.byte	0x1
 2559 055d 3604     		.2byte	0x436
 2560 055f 90000000 		.4byte	0x90
 2561 0563 02       		.byte	0x2
 2562 0564 91       		.byte	0x91
 2563 0565 6C       		.sleb128 -20
 2564 0566 0C       		.uleb128 0xc
 2565 0567 29010000 		.4byte	.LASF54
 2566 056b 01       		.byte	0x1
 2567 056c 3704     		.2byte	0x437
 2568 056e 90000000 		.4byte	0x90
 2569 0572 02       		.byte	0x2
 2570 0573 91       		.byte	0x91
 2571 0574 70       		.sleb128 -16
 2572 0575 0C       		.uleb128 0xc
 2573 0576 AA010000 		.4byte	.LASF47
 2574 057a 01       		.byte	0x1
 2575 057b 3804     		.2byte	0x438
 2576 057d BB040000 		.4byte	0x4bb
 2577 0581 02       		.byte	0x2
 2578 0582 91       		.byte	0x91
 2579 0583 74       		.sleb128 -12
 2580 0584 00       		.byte	0x0
 2581 0585 0D       		.uleb128 0xd
 2582 0586 01       		.byte	0x1
 2583 0587 06000000 		.4byte	.LASF55
 2584 058b 01       		.byte	0x1
 2585 058c EF04     		.2byte	0x4ef
 2586 058e 01       		.byte	0x1
 2587 058f 7A000000 		.4byte	0x7a
 2588 0593 00000000 		.4byte	.LFB13
 2589 0597 90000000 		.4byte	.LFE13
 2590 059b CB020000 		.4byte	.LLST13
 2591 059f EF050000 		.4byte	0x5ef
 2592 05a3 0A       		.uleb128 0xa
 2593 05a4 C6030000 		.4byte	.LASF20
 2594 05a8 01       		.byte	0x1
 2595 05a9 EF04     		.2byte	0x4ef
 2596 05ab 6F000000 		.4byte	0x6f
 2597 05af 02       		.byte	0x2
 2598 05b0 91       		.byte	0x91
 2599 05b1 6F       		.sleb128 -17
 2600 05b2 0C       		.uleb128 0xc
 2601 05b3 D4030000 		.4byte	.LASF45
 2602 05b7 01       		.byte	0x1
 2603 05b8 0205     		.2byte	0x502
 2604 05ba 6F000000 		.4byte	0x6f
 2605 05be 02       		.byte	0x2
 2606 05bf 91       		.byte	0x91
 2607 05c0 73       		.sleb128 -13
 2608 05c1 0C       		.uleb128 0xc
 2609 05c2 E0010000 		.4byte	.LASF52
 2610 05c6 01       		.byte	0x1
 2611 05c7 0305     		.2byte	0x503
 2612 05c9 7A000000 		.4byte	0x7a
ARM GAS  C:\Users\yguan5\AppData\Local\Temp\ccX3ogeL.s 			page 72


 2613 05cd 02       		.byte	0x2
 2614 05ce 91       		.byte	0x91
 2615 05cf 74       		.sleb128 -12
 2616 05d0 0C       		.uleb128 0xc
 2617 05d1 85040000 		.4byte	.LASF43
 2618 05d5 01       		.byte	0x1
 2619 05d6 0405     		.2byte	0x504
 2620 05d8 6F000000 		.4byte	0x6f
 2621 05dc 02       		.byte	0x2
 2622 05dd 91       		.byte	0x91
 2623 05de 76       		.sleb128 -10
 2624 05df 0C       		.uleb128 0xc
 2625 05e0 00000000 		.4byte	.LASF44
 2626 05e4 01       		.byte	0x1
 2627 05e5 0505     		.2byte	0x505
 2628 05e7 6F000000 		.4byte	0x6f
 2629 05eb 02       		.byte	0x2
 2630 05ec 91       		.byte	0x91
 2631 05ed 77       		.sleb128 -9
 2632 05ee 00       		.byte	0x0
 2633 05ef 0F       		.uleb128 0xf
 2634 05f0 6F000000 		.4byte	0x6f
 2635 05f4 FF050000 		.4byte	0x5ff
 2636 05f8 10       		.uleb128 0x10
 2637 05f9 B0000000 		.4byte	0xb0
 2638 05fd 02       		.byte	0x2
 2639 05fe 00       		.byte	0x0
 2640 05ff 08       		.uleb128 0x8
 2641 0600 4B020000 		.4byte	.LASF56
 2642 0604 01       		.byte	0x1
 2643 0605 66       		.byte	0x66
 2644 0606 EF050000 		.4byte	0x5ef
 2645 060a 05       		.byte	0x5
 2646 060b 03       		.byte	0x3
 2647 060c 24000000 		.4byte	CapSense_CSD_centroid
 2648 0610 0F       		.uleb128 0xf
 2649 0611 7A000000 		.4byte	0x7a
 2650 0615 20060000 		.4byte	0x620
 2651 0619 10       		.uleb128 0x10
 2652 061a B0000000 		.4byte	0xb0
 2653 061e 06       		.byte	0x6
 2654 061f 00       		.byte	0x0
 2655 0620 11       		.uleb128 0x11
 2656 0621 32050000 		.4byte	.LASF57
 2657 0625 01       		.byte	0x1
 2658 0626 59       		.byte	0x59
 2659 0627 10060000 		.4byte	0x610
 2660 062b 01       		.byte	0x1
 2661 062c 01       		.byte	0x1
 2662 062d 0F       		.uleb128 0xf
 2663 062e 6F000000 		.4byte	0x6f
 2664 0632 3D060000 		.4byte	0x63d
 2665 0636 10       		.uleb128 0x10
 2666 0637 B0000000 		.4byte	0xb0
 2667 063b 00       		.byte	0x0
 2668 063c 00       		.byte	0x0
 2669 063d 11       		.uleb128 0x11
ARM GAS  C:\Users\yguan5\AppData\Local\Temp\ccX3ogeL.s 			page 73


 2670 063e 55010000 		.4byte	.LASF58
 2671 0642 01       		.byte	0x1
 2672 0643 5A       		.byte	0x5a
 2673 0644 2D060000 		.4byte	0x62d
 2674 0648 01       		.byte	0x1
 2675 0649 01       		.byte	0x1
 2676 064a 0F       		.uleb128 0xf
 2677 064b 6F000000 		.4byte	0x6f
 2678 064f 55060000 		.4byte	0x655
 2679 0653 12       		.uleb128 0x12
 2680 0654 00       		.byte	0x0
 2681 0655 11       		.uleb128 0x11
 2682 0656 35010000 		.4byte	.LASF59
 2683 065a 01       		.byte	0x1
 2684 065b 5B       		.byte	0x5b
 2685 065c 62060000 		.4byte	0x662
 2686 0660 01       		.byte	0x1
 2687 0661 01       		.byte	0x1
 2688 0662 13       		.uleb128 0x13
 2689 0663 4A060000 		.4byte	0x64a
 2690 0667 14       		.uleb128 0x14
 2691 0668 39000000 		.4byte	.LASF60
 2692 066c 01       		.byte	0x1
 2693 066d 5D       		.byte	0x5d
 2694 066e 10060000 		.4byte	0x610
 2695 0672 01       		.byte	0x1
 2696 0673 05       		.byte	0x5
 2697 0674 03       		.byte	0x3
 2698 0675 00000000 		.4byte	CapSense_CSD_SensorBaseline
 2699 0679 0F       		.uleb128 0xf
 2700 067a 6F000000 		.4byte	0x6f
 2701 067e 89060000 		.4byte	0x689
 2702 0682 10       		.uleb128 0x10
 2703 0683 B0000000 		.4byte	0xb0
 2704 0687 06       		.byte	0x6
 2705 0688 00       		.byte	0x0
 2706 0689 14       		.uleb128 0x14
 2707 068a 20030000 		.4byte	.LASF61
 2708 068e 01       		.byte	0x1
 2709 068f 5E       		.byte	0x5e
 2710 0690 79060000 		.4byte	0x679
 2711 0694 01       		.byte	0x1
 2712 0695 05       		.byte	0x5
 2713 0696 03       		.byte	0x3
 2714 0697 00000000 		.4byte	CapSense_CSD_SensorBaselineLow
 2715 069b 14       		.uleb128 0x14
 2716 069c B4020000 		.4byte	.LASF62
 2717 06a0 01       		.byte	0x1
 2718 06a1 5F       		.byte	0x5f
 2719 06a2 79060000 		.4byte	0x679
 2720 06a6 01       		.byte	0x1
 2721 06a7 05       		.byte	0x5
 2722 06a8 03       		.byte	0x3
 2723 06a9 00000000 		.4byte	CapSense_CSD_SensorSignal
 2724 06ad 14       		.uleb128 0x14
 2725 06ae 7B020000 		.4byte	.LASF63
 2726 06b2 01       		.byte	0x1
ARM GAS  C:\Users\yguan5\AppData\Local\Temp\ccX3ogeL.s 			page 74


 2727 06b3 60       		.byte	0x60
 2728 06b4 2D060000 		.4byte	0x62d
 2729 06b8 01       		.byte	0x1
 2730 06b9 05       		.byte	0x5
 2731 06ba 03       		.byte	0x3
 2732 06bb 00000000 		.4byte	CapSense_CSD_SensorOnMask
 2733 06bf 14       		.uleb128 0x14
 2734 06c0 11050000 		.4byte	.LASF64
 2735 06c4 01       		.byte	0x1
 2736 06c5 62       		.byte	0x62
 2737 06c6 79060000 		.4byte	0x679
 2738 06ca 01       		.byte	0x1
 2739 06cb 05       		.byte	0x5
 2740 06cc 03       		.byte	0x3
 2741 06cd 00000000 		.4byte	CapSense_CSD_LowBaselineResetCnt
 2742 06d1 14       		.uleb128 0x14
 2743 06d2 82030000 		.4byte	.LASF65
 2744 06d6 01       		.byte	0x1
 2745 06d7 69       		.byte	0x69
 2746 06d8 E3060000 		.4byte	0x6e3
 2747 06dc 01       		.byte	0x1
 2748 06dd 05       		.byte	0x5
 2749 06de 03       		.byte	0x3
 2750 06df 00000000 		.4byte	CapSense_CSD_fingerThreshold
 2751 06e3 13       		.uleb128 0x13
 2752 06e4 EF050000 		.4byte	0x5ef
 2753 06e8 14       		.uleb128 0x14
 2754 06e9 26040000 		.4byte	.LASF66
 2755 06ed 01       		.byte	0x1
 2756 06ee 6D       		.byte	0x6d
 2757 06ef FA060000 		.4byte	0x6fa
 2758 06f3 01       		.byte	0x1
 2759 06f4 05       		.byte	0x5
 2760 06f5 03       		.byte	0x3
 2761 06f6 00000000 		.4byte	CapSense_CSD_noiseThreshold
 2762 06fa 13       		.uleb128 0x13
 2763 06fb EF050000 		.4byte	0x5ef
 2764 06ff 14       		.uleb128 0x14
 2765 0700 A6040000 		.4byte	.LASF67
 2766 0704 01       		.byte	0x1
 2767 0705 71       		.byte	0x71
 2768 0706 11070000 		.4byte	0x711
 2769 070a 01       		.byte	0x1
 2770 070b 05       		.byte	0x5
 2771 070c 03       		.byte	0x3
 2772 070d 00000000 		.4byte	CapSense_CSD_hysteresis
 2773 0711 13       		.uleb128 0x13
 2774 0712 EF050000 		.4byte	0x5ef
 2775 0716 14       		.uleb128 0x14
 2776 0717 BD010000 		.4byte	.LASF68
 2777 071b 01       		.byte	0x1
 2778 071c 75       		.byte	0x75
 2779 071d 28070000 		.4byte	0x728
 2780 0721 01       		.byte	0x1
 2781 0722 05       		.byte	0x5
 2782 0723 03       		.byte	0x3
 2783 0724 00000000 		.4byte	CapSense_CSD_debounce
ARM GAS  C:\Users\yguan5\AppData\Local\Temp\ccX3ogeL.s 			page 75


 2784 0728 13       		.uleb128 0x13
 2785 0729 EF050000 		.4byte	0x5ef
 2786 072d 14       		.uleb128 0x14
 2787 072e 76050000 		.4byte	.LASF69
 2788 0732 01       		.byte	0x1
 2789 0733 79       		.byte	0x79
 2790 0734 EF050000 		.4byte	0x5ef
 2791 0738 01       		.byte	0x1
 2792 0739 05       		.byte	0x5
 2793 073a 03       		.byte	0x3
 2794 073b 00000000 		.4byte	CapSense_CSD_debounceCounter
 2795 073f 14       		.uleb128 0x14
 2796 0740 FF020000 		.4byte	.LASF70
 2797 0744 01       		.byte	0x1
 2798 0745 7D       		.byte	0x7d
 2799 0746 51070000 		.4byte	0x751
 2800 074a 01       		.byte	0x1
 2801 074b 05       		.byte	0x5
 2802 074c 03       		.byte	0x3
 2803 074d 00000000 		.4byte	CapSense_CSD_rawDataIndex
 2804 0751 13       		.uleb128 0x13
 2805 0752 EF050000 		.4byte	0x5ef
 2806 0756 14       		.uleb128 0x14
 2807 0757 09040000 		.4byte	.LASF71
 2808 075b 01       		.byte	0x1
 2809 075c 84       		.byte	0x84
 2810 075d 68070000 		.4byte	0x768
 2811 0761 01       		.byte	0x1
 2812 0762 05       		.byte	0x5
 2813 0763 03       		.byte	0x3
 2814 0764 00000000 		.4byte	CapSense_CSD_numberOfSensors
 2815 0768 13       		.uleb128 0x13
 2816 0769 EF050000 		.4byte	0x5ef
 2817 076d 0F       		.uleb128 0xf
 2818 076e 7A000000 		.4byte	0x7a
 2819 0772 7D070000 		.4byte	0x77d
 2820 0776 10       		.uleb128 0x10
 2821 0777 B0000000 		.4byte	0xb0
 2822 077b 00       		.byte	0x0
 2823 077c 00       		.byte	0x0
 2824 077d 14       		.uleb128 0x14
 2825 077e 8C040000 		.4byte	.LASF72
 2826 0782 01       		.byte	0x1
 2827 0783 8B       		.byte	0x8b
 2828 0784 8F070000 		.4byte	0x78f
 2829 0788 01       		.byte	0x1
 2830 0789 05       		.byte	0x5
 2831 078a 03       		.byte	0x3
 2832 078b 00000000 		.4byte	CapSense_CSD_centroidMult
 2833 078f 13       		.uleb128 0x13
 2834 0790 6D070000 		.4byte	0x76d
 2835 0794 00       		.byte	0x0
 2836              		.section	.debug_abbrev
 2837 0000 01       		.uleb128 0x1
 2838 0001 11       		.uleb128 0x11
 2839 0002 01       		.byte	0x1
 2840 0003 25       		.uleb128 0x25
ARM GAS  C:\Users\yguan5\AppData\Local\Temp\ccX3ogeL.s 			page 76


 2841 0004 0E       		.uleb128 0xe
 2842 0005 13       		.uleb128 0x13
 2843 0006 0B       		.uleb128 0xb
 2844 0007 03       		.uleb128 0x3
 2845 0008 0E       		.uleb128 0xe
 2846 0009 1B       		.uleb128 0x1b
 2847 000a 0E       		.uleb128 0xe
 2848 000b 11       		.uleb128 0x11
 2849 000c 01       		.uleb128 0x1
 2850 000d 52       		.uleb128 0x52
 2851 000e 01       		.uleb128 0x1
 2852 000f 55       		.uleb128 0x55
 2853 0010 06       		.uleb128 0x6
 2854 0011 10       		.uleb128 0x10
 2855 0012 06       		.uleb128 0x6
 2856 0013 00       		.byte	0x0
 2857 0014 00       		.byte	0x0
 2858 0015 02       		.uleb128 0x2
 2859 0016 24       		.uleb128 0x24
 2860 0017 00       		.byte	0x0
 2861 0018 0B       		.uleb128 0xb
 2862 0019 0B       		.uleb128 0xb
 2863 001a 3E       		.uleb128 0x3e
 2864 001b 0B       		.uleb128 0xb
 2865 001c 03       		.uleb128 0x3
 2866 001d 0E       		.uleb128 0xe
 2867 001e 00       		.byte	0x0
 2868 001f 00       		.byte	0x0
 2869 0020 03       		.uleb128 0x3
 2870 0021 24       		.uleb128 0x24
 2871 0022 00       		.byte	0x0
 2872 0023 0B       		.uleb128 0xb
 2873 0024 0B       		.uleb128 0xb
 2874 0025 3E       		.uleb128 0x3e
 2875 0026 0B       		.uleb128 0xb
 2876 0027 03       		.uleb128 0x3
 2877 0028 08       		.uleb128 0x8
 2878 0029 00       		.byte	0x0
 2879 002a 00       		.byte	0x0
 2880 002b 04       		.uleb128 0x4
 2881 002c 16       		.uleb128 0x16
 2882 002d 00       		.byte	0x0
 2883 002e 03       		.uleb128 0x3
 2884 002f 0E       		.uleb128 0xe
 2885 0030 3A       		.uleb128 0x3a
 2886 0031 0B       		.uleb128 0xb
 2887 0032 3B       		.uleb128 0x3b
 2888 0033 0B       		.uleb128 0xb
 2889 0034 49       		.uleb128 0x49
 2890 0035 13       		.uleb128 0x13
 2891 0036 00       		.byte	0x0
 2892 0037 00       		.byte	0x0
 2893 0038 05       		.uleb128 0x5
 2894 0039 24       		.uleb128 0x24
 2895 003a 00       		.byte	0x0
 2896 003b 0B       		.uleb128 0xb
 2897 003c 0B       		.uleb128 0xb
ARM GAS  C:\Users\yguan5\AppData\Local\Temp\ccX3ogeL.s 			page 77


 2898 003d 3E       		.uleb128 0x3e
 2899 003e 0B       		.uleb128 0xb
 2900 003f 00       		.byte	0x0
 2901 0040 00       		.byte	0x0
 2902 0041 06       		.uleb128 0x6
 2903 0042 2E       		.uleb128 0x2e
 2904 0043 01       		.byte	0x1
 2905 0044 3F       		.uleb128 0x3f
 2906 0045 0C       		.uleb128 0xc
 2907 0046 03       		.uleb128 0x3
 2908 0047 0E       		.uleb128 0xe
 2909 0048 3A       		.uleb128 0x3a
 2910 0049 0B       		.uleb128 0xb
 2911 004a 3B       		.uleb128 0x3b
 2912 004b 0B       		.uleb128 0xb
 2913 004c 27       		.uleb128 0x27
 2914 004d 0C       		.uleb128 0xc
 2915 004e 11       		.uleb128 0x11
 2916 004f 01       		.uleb128 0x1
 2917 0050 12       		.uleb128 0x12
 2918 0051 01       		.uleb128 0x1
 2919 0052 40       		.uleb128 0x40
 2920 0053 06       		.uleb128 0x6
 2921 0054 01       		.uleb128 0x1
 2922 0055 13       		.uleb128 0x13
 2923 0056 00       		.byte	0x0
 2924 0057 00       		.byte	0x0
 2925 0058 07       		.uleb128 0x7
 2926 0059 05       		.uleb128 0x5
 2927 005a 00       		.byte	0x0
 2928 005b 03       		.uleb128 0x3
 2929 005c 0E       		.uleb128 0xe
 2930 005d 3A       		.uleb128 0x3a
 2931 005e 0B       		.uleb128 0xb
 2932 005f 3B       		.uleb128 0x3b
 2933 0060 0B       		.uleb128 0xb
 2934 0061 49       		.uleb128 0x49
 2935 0062 13       		.uleb128 0x13
 2936 0063 02       		.uleb128 0x2
 2937 0064 0A       		.uleb128 0xa
 2938 0065 00       		.byte	0x0
 2939 0066 00       		.byte	0x0
 2940 0067 08       		.uleb128 0x8
 2941 0068 34       		.uleb128 0x34
 2942 0069 00       		.byte	0x0
 2943 006a 03       		.uleb128 0x3
 2944 006b 0E       		.uleb128 0xe
 2945 006c 3A       		.uleb128 0x3a
 2946 006d 0B       		.uleb128 0xb
 2947 006e 3B       		.uleb128 0x3b
 2948 006f 0B       		.uleb128 0xb
 2949 0070 49       		.uleb128 0x49
 2950 0071 13       		.uleb128 0x13
 2951 0072 02       		.uleb128 0x2
 2952 0073 0A       		.uleb128 0xa
 2953 0074 00       		.byte	0x0
 2954 0075 00       		.byte	0x0
ARM GAS  C:\Users\yguan5\AppData\Local\Temp\ccX3ogeL.s 			page 78


 2955 0076 09       		.uleb128 0x9
 2956 0077 2E       		.uleb128 0x2e
 2957 0078 01       		.byte	0x1
 2958 0079 3F       		.uleb128 0x3f
 2959 007a 0C       		.uleb128 0xc
 2960 007b 03       		.uleb128 0x3
 2961 007c 0E       		.uleb128 0xe
 2962 007d 3A       		.uleb128 0x3a
 2963 007e 0B       		.uleb128 0xb
 2964 007f 3B       		.uleb128 0x3b
 2965 0080 05       		.uleb128 0x5
 2966 0081 27       		.uleb128 0x27
 2967 0082 0C       		.uleb128 0xc
 2968 0083 11       		.uleb128 0x11
 2969 0084 01       		.uleb128 0x1
 2970 0085 12       		.uleb128 0x12
 2971 0086 01       		.uleb128 0x1
 2972 0087 40       		.uleb128 0x40
 2973 0088 06       		.uleb128 0x6
 2974 0089 01       		.uleb128 0x1
 2975 008a 13       		.uleb128 0x13
 2976 008b 00       		.byte	0x0
 2977 008c 00       		.byte	0x0
 2978 008d 0A       		.uleb128 0xa
 2979 008e 05       		.uleb128 0x5
 2980 008f 00       		.byte	0x0
 2981 0090 03       		.uleb128 0x3
 2982 0091 0E       		.uleb128 0xe
 2983 0092 3A       		.uleb128 0x3a
 2984 0093 0B       		.uleb128 0xb
 2985 0094 3B       		.uleb128 0x3b
 2986 0095 05       		.uleb128 0x5
 2987 0096 49       		.uleb128 0x49
 2988 0097 13       		.uleb128 0x13
 2989 0098 02       		.uleb128 0x2
 2990 0099 0A       		.uleb128 0xa
 2991 009a 00       		.byte	0x0
 2992 009b 00       		.byte	0x0
 2993 009c 0B       		.uleb128 0xb
 2994 009d 34       		.uleb128 0x34
 2995 009e 00       		.byte	0x0
 2996 009f 03       		.uleb128 0x3
 2997 00a0 08       		.uleb128 0x8
 2998 00a1 3A       		.uleb128 0x3a
 2999 00a2 0B       		.uleb128 0xb
 3000 00a3 3B       		.uleb128 0x3b
 3001 00a4 05       		.uleb128 0x5
 3002 00a5 49       		.uleb128 0x49
 3003 00a6 13       		.uleb128 0x13
 3004 00a7 02       		.uleb128 0x2
 3005 00a8 0A       		.uleb128 0xa
 3006 00a9 00       		.byte	0x0
 3007 00aa 00       		.byte	0x0
 3008 00ab 0C       		.uleb128 0xc
 3009 00ac 34       		.uleb128 0x34
 3010 00ad 00       		.byte	0x0
 3011 00ae 03       		.uleb128 0x3
ARM GAS  C:\Users\yguan5\AppData\Local\Temp\ccX3ogeL.s 			page 79


 3012 00af 0E       		.uleb128 0xe
 3013 00b0 3A       		.uleb128 0x3a
 3014 00b1 0B       		.uleb128 0xb
 3015 00b2 3B       		.uleb128 0x3b
 3016 00b3 05       		.uleb128 0x5
 3017 00b4 49       		.uleb128 0x49
 3018 00b5 13       		.uleb128 0x13
 3019 00b6 02       		.uleb128 0x2
 3020 00b7 0A       		.uleb128 0xa
 3021 00b8 00       		.byte	0x0
 3022 00b9 00       		.byte	0x0
 3023 00ba 0D       		.uleb128 0xd
 3024 00bb 2E       		.uleb128 0x2e
 3025 00bc 01       		.byte	0x1
 3026 00bd 3F       		.uleb128 0x3f
 3027 00be 0C       		.uleb128 0xc
 3028 00bf 03       		.uleb128 0x3
 3029 00c0 0E       		.uleb128 0xe
 3030 00c1 3A       		.uleb128 0x3a
 3031 00c2 0B       		.uleb128 0xb
 3032 00c3 3B       		.uleb128 0x3b
 3033 00c4 05       		.uleb128 0x5
 3034 00c5 27       		.uleb128 0x27
 3035 00c6 0C       		.uleb128 0xc
 3036 00c7 49       		.uleb128 0x49
 3037 00c8 13       		.uleb128 0x13
 3038 00c9 11       		.uleb128 0x11
 3039 00ca 01       		.uleb128 0x1
 3040 00cb 12       		.uleb128 0x12
 3041 00cc 01       		.uleb128 0x1
 3042 00cd 40       		.uleb128 0x40
 3043 00ce 06       		.uleb128 0x6
 3044 00cf 01       		.uleb128 0x1
 3045 00d0 13       		.uleb128 0x13
 3046 00d1 00       		.byte	0x0
 3047 00d2 00       		.byte	0x0
 3048 00d3 0E       		.uleb128 0xe
 3049 00d4 0F       		.uleb128 0xf
 3050 00d5 00       		.byte	0x0
 3051 00d6 0B       		.uleb128 0xb
 3052 00d7 0B       		.uleb128 0xb
 3053 00d8 49       		.uleb128 0x49
 3054 00d9 13       		.uleb128 0x13
 3055 00da 00       		.byte	0x0
 3056 00db 00       		.byte	0x0
 3057 00dc 0F       		.uleb128 0xf
 3058 00dd 01       		.uleb128 0x1
 3059 00de 01       		.byte	0x1
 3060 00df 49       		.uleb128 0x49
 3061 00e0 13       		.uleb128 0x13
 3062 00e1 01       		.uleb128 0x1
 3063 00e2 13       		.uleb128 0x13
 3064 00e3 00       		.byte	0x0
 3065 00e4 00       		.byte	0x0
 3066 00e5 10       		.uleb128 0x10
 3067 00e6 21       		.uleb128 0x21
 3068 00e7 00       		.byte	0x0
ARM GAS  C:\Users\yguan5\AppData\Local\Temp\ccX3ogeL.s 			page 80


 3069 00e8 49       		.uleb128 0x49
 3070 00e9 13       		.uleb128 0x13
 3071 00ea 2F       		.uleb128 0x2f
 3072 00eb 0B       		.uleb128 0xb
 3073 00ec 00       		.byte	0x0
 3074 00ed 00       		.byte	0x0
 3075 00ee 11       		.uleb128 0x11
 3076 00ef 34       		.uleb128 0x34
 3077 00f0 00       		.byte	0x0
 3078 00f1 03       		.uleb128 0x3
 3079 00f2 0E       		.uleb128 0xe
 3080 00f3 3A       		.uleb128 0x3a
 3081 00f4 0B       		.uleb128 0xb
 3082 00f5 3B       		.uleb128 0x3b
 3083 00f6 0B       		.uleb128 0xb
 3084 00f7 49       		.uleb128 0x49
 3085 00f8 13       		.uleb128 0x13
 3086 00f9 3F       		.uleb128 0x3f
 3087 00fa 0C       		.uleb128 0xc
 3088 00fb 3C       		.uleb128 0x3c
 3089 00fc 0C       		.uleb128 0xc
 3090 00fd 00       		.byte	0x0
 3091 00fe 00       		.byte	0x0
 3092 00ff 12       		.uleb128 0x12
 3093 0100 21       		.uleb128 0x21
 3094 0101 00       		.byte	0x0
 3095 0102 00       		.byte	0x0
 3096 0103 00       		.byte	0x0
 3097 0104 13       		.uleb128 0x13
 3098 0105 26       		.uleb128 0x26
 3099 0106 00       		.byte	0x0
 3100 0107 49       		.uleb128 0x49
 3101 0108 13       		.uleb128 0x13
 3102 0109 00       		.byte	0x0
 3103 010a 00       		.byte	0x0
 3104 010b 14       		.uleb128 0x14
 3105 010c 34       		.uleb128 0x34
 3106 010d 00       		.byte	0x0
 3107 010e 03       		.uleb128 0x3
 3108 010f 0E       		.uleb128 0xe
 3109 0110 3A       		.uleb128 0x3a
 3110 0111 0B       		.uleb128 0xb
 3111 0112 3B       		.uleb128 0x3b
 3112 0113 0B       		.uleb128 0xb
 3113 0114 49       		.uleb128 0x49
 3114 0115 13       		.uleb128 0x13
 3115 0116 3F       		.uleb128 0x3f
 3116 0117 0C       		.uleb128 0xc
 3117 0118 02       		.uleb128 0x2
 3118 0119 0A       		.uleb128 0xa
 3119 011a 00       		.byte	0x0
 3120 011b 00       		.byte	0x0
 3121 011c 00       		.byte	0x0
 3122              		.section	.debug_pubnames,"",%progbits
 3123 0000 97030000 		.4byte	0x397
 3124 0004 0200     		.2byte	0x2
 3125 0006 00000000 		.4byte	.Ldebug_info0
ARM GAS  C:\Users\yguan5\AppData\Local\Temp\ccX3ogeL.s 			page 81


 3126 000a 95070000 		.4byte	0x795
 3127 000e B3000000 		.4byte	0xb3
 3128 0012 43617053 		.ascii	"CapSense_CSD_BaseInit\000"
 3128      656E7365 
 3128      5F435344 
 3128      5F426173 
 3128      65496E69 
 3129 0028 E9000000 		.4byte	0xe9
 3130 002c 43617053 		.ascii	"CapSense_CSD_InitializeSensorBaseline\000"
 3130      656E7365 
 3130      5F435344 
 3130      5F496E69 
 3130      7469616C 
 3131 0052 13010000 		.4byte	0x113
 3132 0056 43617053 		.ascii	"CapSense_CSD_InitializeAllBaselines\000"
 3132      656E7365 
 3132      5F435344 
 3132      5F496E69 
 3132      7469616C 
 3133 007a 3B010000 		.4byte	0x13b
 3134 007e 43617053 		.ascii	"CapSense_CSD_InitializeEnabledBaselines\000"
 3134      656E7365 
 3134      5F435344 
 3134      5F496E69 
 3134      7469616C 
 3135 00a6 81010000 		.4byte	0x181
 3136 00aa 43617053 		.ascii	"CapSense_CSD_UpdateSensorBaseline\000"
 3136      656E7365 
 3136      5F435344 
 3136      5F557064 
 3136      61746553 
 3137 00cc F6010000 		.4byte	0x1f6
 3138 00d0 43617053 		.ascii	"CapSense_CSD_UpdateEnabledBaselines\000"
 3138      656E7365 
 3138      5F435344 
 3138      5F557064 
 3138      61746545 
 3139 00f4 3C020000 		.4byte	0x23c
 3140 00f8 43617053 		.ascii	"CapSense_CSD_CheckIsSensorActive\000"
 3140      656E7365 
 3140      5F435344 
 3140      5F436865 
 3140      636B4973 
 3141 0119 D3020000 		.4byte	0x2d3
 3142 011d 43617053 		.ascii	"CapSense_CSD_CheckIsWidgetActive\000"
 3142      656E7365 
 3142      5F435344 
 3142      5F436865 
 3142      636B4973 
 3143 013e 2E030000 		.4byte	0x32e
 3144 0142 43617053 		.ascii	"CapSense_CSD_CheckIsAnyWidgetActive\000"
 3144      656E7365 
 3144      5F435344 
 3144      5F436865 
 3144      636B4973 
 3145 0166 69030000 		.4byte	0x369
 3146 016a 43617053 		.ascii	"CapSense_CSD_EnableWidget\000"
ARM GAS  C:\Users\yguan5\AppData\Local\Temp\ccX3ogeL.s 			page 82


 3146      656E7365 
 3146      5F435344 
 3146      5F456E61 
 3146      626C6557 
 3147 0184 CF030000 		.4byte	0x3cf
 3148 0188 43617053 		.ascii	"CapSense_CSD_DisableWidget\000"
 3148      656E7365 
 3148      5F435344 
 3148      5F446973 
 3148      61626C65 
 3149 01a3 35040000 		.4byte	0x435
 3150 01a7 43617053 		.ascii	"CapSense_CSD_FindMaximum\000"
 3150      656E7365 
 3150      5F435344 
 3150      5F46696E 
 3150      644D6178 
 3151 01c0 C1040000 		.4byte	0x4c1
 3152 01c4 43617053 		.ascii	"CapSense_CSD_CalcCentroid\000"
 3152      656E7365 
 3152      5F435344 
 3152      5F43616C 
 3152      6343656E 
 3153 01de 85050000 		.4byte	0x585
 3154 01e2 43617053 		.ascii	"CapSense_CSD_GetCentroidPos\000"
 3154      656E7365 
 3154      5F435344 
 3154      5F476574 
 3154      43656E74 
 3155 01fe 67060000 		.4byte	0x667
 3156 0202 43617053 		.ascii	"CapSense_CSD_SensorBaseline\000"
 3156      656E7365 
 3156      5F435344 
 3156      5F53656E 
 3156      736F7242 
 3157 021e 89060000 		.4byte	0x689
 3158 0222 43617053 		.ascii	"CapSense_CSD_SensorBaselineLow\000"
 3158      656E7365 
 3158      5F435344 
 3158      5F53656E 
 3158      736F7242 
 3159 0241 9B060000 		.4byte	0x69b
 3160 0245 43617053 		.ascii	"CapSense_CSD_SensorSignal\000"
 3160      656E7365 
 3160      5F435344 
 3160      5F53656E 
 3160      736F7253 
 3161 025f AD060000 		.4byte	0x6ad
 3162 0263 43617053 		.ascii	"CapSense_CSD_SensorOnMask\000"
 3162      656E7365 
 3162      5F435344 
 3162      5F53656E 
 3162      736F724F 
 3163 027d BF060000 		.4byte	0x6bf
 3164 0281 43617053 		.ascii	"CapSense_CSD_LowBaselineResetCnt\000"
 3164      656E7365 
 3164      5F435344 
 3164      5F4C6F77 
ARM GAS  C:\Users\yguan5\AppData\Local\Temp\ccX3ogeL.s 			page 83


 3164      42617365 
 3165 02a2 D1060000 		.4byte	0x6d1
 3166 02a6 43617053 		.ascii	"CapSense_CSD_fingerThreshold\000"
 3166      656E7365 
 3166      5F435344 
 3166      5F66696E 
 3166      67657254 
 3167 02c3 E8060000 		.4byte	0x6e8
 3168 02c7 43617053 		.ascii	"CapSense_CSD_noiseThreshold\000"
 3168      656E7365 
 3168      5F435344 
 3168      5F6E6F69 
 3168      73655468 
 3169 02e3 FF060000 		.4byte	0x6ff
 3170 02e7 43617053 		.ascii	"CapSense_CSD_hysteresis\000"
 3170      656E7365 
 3170      5F435344 
 3170      5F687973 
 3170      74657265 
 3171 02ff 16070000 		.4byte	0x716
 3172 0303 43617053 		.ascii	"CapSense_CSD_debounce\000"
 3172      656E7365 
 3172      5F435344 
 3172      5F646562 
 3172      6F756E63 
 3173 0319 2D070000 		.4byte	0x72d
 3174 031d 43617053 		.ascii	"CapSense_CSD_debounceCounter\000"
 3174      656E7365 
 3174      5F435344 
 3174      5F646562 
 3174      6F756E63 
 3175 033a 3F070000 		.4byte	0x73f
 3176 033e 43617053 		.ascii	"CapSense_CSD_rawDataIndex\000"
 3176      656E7365 
 3176      5F435344 
 3176      5F726177 
 3176      44617461 
 3177 0358 56070000 		.4byte	0x756
 3178 035c 43617053 		.ascii	"CapSense_CSD_numberOfSensors\000"
 3178      656E7365 
 3178      5F435344 
 3178      5F6E756D 
 3178      6265724F 
 3179 0379 7D070000 		.4byte	0x77d
 3180 037d 43617053 		.ascii	"CapSense_CSD_centroidMult\000"
 3180      656E7365 
 3180      5F435344 
 3180      5F63656E 
 3180      74726F69 
 3181 0397 00000000 		.4byte	0x0
 3182              		.section	.debug_aranges,"",%progbits
 3183 0000 84000000 		.4byte	0x84
 3184 0004 0200     		.2byte	0x2
 3185 0006 00000000 		.4byte	.Ldebug_info0
 3186 000a 04       		.byte	0x4
 3187 000b 00       		.byte	0x0
 3188 000c 0000     		.2byte	0x0
ARM GAS  C:\Users\yguan5\AppData\Local\Temp\ccX3ogeL.s 			page 84


 3189 000e 0000     		.2byte	0x0
 3190 0010 00000000 		.4byte	.LFB0
 3191 0014 80000000 		.4byte	.LFE0-.LFB0
 3192 0018 00000000 		.4byte	.LFB1
 3193 001c 2C000000 		.4byte	.LFE1-.LFB1
 3194 0020 00000000 		.4byte	.LFB2
 3195 0024 2C000000 		.4byte	.LFE2-.LFB2
 3196 0028 00000000 		.4byte	.LFB3
 3197 002c 7C000000 		.4byte	.LFE3-.LFB3
 3198 0030 00000000 		.4byte	.LFB4
 3199 0034 B8010000 		.4byte	.LFE4-.LFB4
 3200 0038 00000000 		.4byte	.LFB5
 3201 003c 5C000000 		.4byte	.LFE5-.LFB5
 3202 0040 00000000 		.4byte	.LFB6
 3203 0044 94010000 		.4byte	.LFE6-.LFB6
 3204 0048 00000000 		.4byte	.LFB7
 3205 004c 60000000 		.4byte	.LFE7-.LFB7
 3206 0050 00000000 		.4byte	.LFB8
 3207 0054 42000000 		.4byte	.LFE8-.LFB8
 3208 0058 00000000 		.4byte	.LFB9
 3209 005c 7C000000 		.4byte	.LFE9-.LFB9
 3210 0060 00000000 		.4byte	.LFB10
 3211 0064 86000000 		.4byte	.LFE10-.LFB10
 3212 0068 00000000 		.4byte	.LFB11
 3213 006c 7C000000 		.4byte	.LFE11-.LFB11
 3214 0070 00000000 		.4byte	.LFB12
 3215 0074 D2010000 		.4byte	.LFE12-.LFB12
 3216 0078 00000000 		.4byte	.LFB13
 3217 007c 90000000 		.4byte	.LFE13-.LFB13
 3218 0080 00000000 		.4byte	0x0
 3219 0084 00000000 		.4byte	0x0
 3220              		.section	.debug_ranges,"",%progbits
 3221              	.Ldebug_ranges0:
 3222 0000 00000000 		.4byte	.Ltext0
 3223 0004 00000000 		.4byte	.Letext0
 3224 0008 00000000 		.4byte	.LFB0
 3225 000c 80000000 		.4byte	.LFE0
 3226 0010 00000000 		.4byte	.LFB1
 3227 0014 2C000000 		.4byte	.LFE1
 3228 0018 00000000 		.4byte	.LFB2
 3229 001c 2C000000 		.4byte	.LFE2
 3230 0020 00000000 		.4byte	.LFB3
 3231 0024 7C000000 		.4byte	.LFE3
 3232 0028 00000000 		.4byte	.LFB4
 3233 002c B8010000 		.4byte	.LFE4
 3234 0030 00000000 		.4byte	.LFB5
 3235 0034 5C000000 		.4byte	.LFE5
 3236 0038 00000000 		.4byte	.LFB6
 3237 003c 94010000 		.4byte	.LFE6
 3238 0040 00000000 		.4byte	.LFB7
 3239 0044 60000000 		.4byte	.LFE7
 3240 0048 00000000 		.4byte	.LFB8
 3241 004c 42000000 		.4byte	.LFE8
 3242 0050 00000000 		.4byte	.LFB9
 3243 0054 7C000000 		.4byte	.LFE9
 3244 0058 00000000 		.4byte	.LFB10
 3245 005c 86000000 		.4byte	.LFE10
ARM GAS  C:\Users\yguan5\AppData\Local\Temp\ccX3ogeL.s 			page 85


 3246 0060 00000000 		.4byte	.LFB11
 3247 0064 7C000000 		.4byte	.LFE11
 3248 0068 00000000 		.4byte	.LFB12
 3249 006c D2010000 		.4byte	.LFE12
 3250 0070 00000000 		.4byte	.LFB13
 3251 0074 90000000 		.4byte	.LFE13
 3252 0078 00000000 		.4byte	0x0
 3253 007c 00000000 		.4byte	0x0
 3254              		.section	.debug_str,"MS",%progbits,1
 3255              	.LASF44:
 3256 0000 636F756E 		.ascii	"count\000"
 3256      7400
 3257              	.LASF55:
 3258 0006 43617053 		.ascii	"CapSense_CSD_GetCentroidPos\000"
 3258      656E7365 
 3258      5F435344 
 3258      5F476574 
 3258      43656E74 
 3259              	.LASF10:
 3260 0022 75696E74 		.ascii	"uint16\000"
 3260      313600
 3261              	.LASF26:
 3262 0029 66696C74 		.ascii	"filteredRawData\000"
 3262      65726564 
 3262      52617744 
 3262      61746100 
 3263              	.LASF60:
 3264 0039 43617053 		.ascii	"CapSense_CSD_SensorBaseline\000"
 3264      656E7365 
 3264      5F435344 
 3264      5F53656E 
 3264      736F7242 
 3265              	.LASF31:
 3266 0055 66696E67 		.ascii	"fingerThreshold\000"
 3266      65725468 
 3266      72657368 
 3266      6F6C6400 
 3267              	.LASF17:
 3268 0065 43617053 		.ascii	"CapSense_CSD_InitializeSensorBaseline\000"
 3268      656E7365 
 3268      5F435344 
 3268      5F496E69 
 3268      7469616C 
 3269              	.LASF50:
 3270 008b 706F7350 		.ascii	"posPrev\000"
 3270      72657600 
 3271              	.LASF7:
 3272 0093 6C6F6E67 		.ascii	"long long unsigned int\000"
 3272      206C6F6E 
 3272      6720756E 
 3272      7369676E 
 3272      65642069 
 3273              	.LASF73:
 3274 00aa 474E5520 		.ascii	"GNU C 4.4.1\000"
 3274      4320342E 
 3274      342E3100 
 3275              	.LASF6:
ARM GAS  C:\Users\yguan5\AppData\Local\Temp\ccX3ogeL.s 			page 86


 3276 00b6 6C6F6E67 		.ascii	"long long int\000"
 3276      206C6F6E 
 3276      6720696E 
 3276      7400
 3277              	.LASF0:
 3278 00c4 7369676E 		.ascii	"signed char\000"
 3278      65642063 
 3278      68617200 
 3279              	.LASF36:
 3280 00d0 72617749 		.ascii	"rawIndex\000"
 3280      6E646578 
 3280      00
 3281              	.LASF37:
 3282 00d9 6E756D62 		.ascii	"numberOfSensors\000"
 3282      65724F66 
 3282      53656E73 
 3282      6F727300 
 3283              	.LASF12:
 3284 00e9 696E7433 		.ascii	"int32\000"
 3284      3200
 3285              	.LASF34:
 3286 00ef 43617053 		.ascii	"CapSense_CSD_CheckIsSensorActive\000"
 3286      656E7365 
 3286      5F435344 
 3286      5F436865 
 3286      636B4973 
 3287              	.LASF38:
 3288 0110 73746174 		.ascii	"state\000"
 3288      6500
 3289              	.LASF4:
 3290 0116 6C6F6E67 		.ascii	"long int\000"
 3290      20696E74 
 3290      00
 3291              	.LASF53:
 3292 011f 6E756D65 		.ascii	"numerator\000"
 3292      7261746F 
 3292      7200
 3293              	.LASF54:
 3294 0129 64656E6F 		.ascii	"denominator\000"
 3294      6D696E61 
 3294      746F7200 
 3295              	.LASF59:
 3296 0135 43617053 		.ascii	"CapSense_CSD_widgetNumber\000"
 3296      656E7365 
 3296      5F435344 
 3296      5F776964 
 3296      6765744E 
 3297              	.LASF9:
 3298 014f 75696E74 		.ascii	"uint8\000"
 3298      3800
 3299              	.LASF58:
 3300 0155 43617053 		.ascii	"CapSense_CSD_SensorEnableMask\000"
 3300      656E7365 
 3300      5F435344 
 3300      5F53656E 
 3300      736F7245 
 3301              	.LASF14:
ARM GAS  C:\Users\yguan5\AppData\Local\Temp\ccX3ogeL.s 			page 87


 3302 0173 646F7562 		.ascii	"double\000"
 3302      6C6500
 3303              	.LASF11:
 3304 017a 75696E74 		.ascii	"uint32\000"
 3304      333200
 3305              	.LASF32:
 3306 0181 68797374 		.ascii	"hysteresis\000"
 3306      65726573 
 3306      697300
 3307              	.LASF16:
 3308 018c 43617053 		.ascii	"CapSense_CSD_BaseInit\000"
 3308      656E7365 
 3308      5F435344 
 3308      5F426173 
 3308      65496E69 
 3309              	.LASF51:
 3310 01a2 706F734E 		.ascii	"posNext\000"
 3310      65787400 
 3311              	.LASF47:
 3312 01aa 73746172 		.ascii	"startOfSlider\000"
 3312      744F6653 
 3312      6C696465 
 3312      7200
 3313              	.LASF46:
 3314 01b8 74656D70 		.ascii	"temp\000"
 3314      00
 3315              	.LASF68:
 3316 01bd 43617053 		.ascii	"CapSense_CSD_debounce\000"
 3316      656E7365 
 3316      5F435344 
 3316      5F646562 
 3316      6F756E63 
 3317              	.LASF8:
 3318 01d3 756E7369 		.ascii	"unsigned int\000"
 3318      676E6564 
 3318      20696E74 
 3318      00
 3319              	.LASF52:
 3320 01e0 706F7369 		.ascii	"position\000"
 3320      74696F6E 
 3320      00
 3321              	.LASF5:
 3322 01e9 6C6F6E67 		.ascii	"long unsigned int\000"
 3322      20756E73 
 3322      69676E65 
 3322      6420696E 
 3322      7400
 3323              	.LASF75:
 3324 01fb 433A5C55 		.ascii	"C:\\Users\\yguan5\\Documents\\0LabProject_NeedTesti"
 3324      73657273 
 3324      5C796775 
 3324      616E355C 
 3324      446F6375 
 3325 022a 6E675C4C 		.ascii	"ng\\Lab_Project\\Lab_Project.cydsn\000"
 3325      61625F50 
 3325      726F6A65 
 3325      63745C4C 
ARM GAS  C:\Users\yguan5\AppData\Local\Temp\ccX3ogeL.s 			page 88


 3325      61625F50 
 3326              	.LASF56:
 3327 024b 43617053 		.ascii	"CapSense_CSD_centroid\000"
 3327      656E7365 
 3327      5F435344 
 3327      5F63656E 
 3327      74726F69 
 3328              	.LASF3:
 3329 0261 73686F72 		.ascii	"short unsigned int\000"
 3329      7420756E 
 3329      7369676E 
 3329      65642069 
 3329      6E7400
 3330              	.LASF18:
 3331 0274 73656E73 		.ascii	"sensor\000"
 3331      6F7200
 3332              	.LASF63:
 3333 027b 43617053 		.ascii	"CapSense_CSD_SensorOnMask\000"
 3333      656E7365 
 3333      5F435344 
 3333      5F53656E 
 3333      736F724F 
 3334              	.LASF48:
 3335 0295 43617053 		.ascii	"CapSense_CSD_CalcCentroid\000"
 3335      656E7365 
 3335      5F435344 
 3335      5F43616C 
 3335      6343656E 
 3336              	.LASF24:
 3337 02af 63616C63 		.ascii	"calc\000"
 3337      00
 3338              	.LASF62:
 3339 02b4 43617053 		.ascii	"CapSense_CSD_SensorSignal\000"
 3339      656E7365 
 3339      5F435344 
 3339      5F53656E 
 3339      736F7253 
 3340              	.LASF33:
 3341 02ce 6465626F 		.ascii	"debounce\000"
 3341      756E6365 
 3341      00
 3342              	.LASF21:
 3343 02d7 43617053 		.ascii	"CapSense_CSD_InitializeEnabledBaselines\000"
 3343      656E7365 
 3343      5F435344 
 3343      5F496E69 
 3343      7469616C 
 3344              	.LASF70:
 3345 02ff 43617053 		.ascii	"CapSense_CSD_rawDataIndex\000"
 3345      656E7365 
 3345      5F435344 
 3345      5F726177 
 3345      44617461 
 3346              	.LASF22:
 3347 0319 656E4D61 		.ascii	"enMask\000"
 3347      736B00
 3348              	.LASF61:
ARM GAS  C:\Users\yguan5\AppData\Local\Temp\ccX3ogeL.s 			page 89


 3349 0320 43617053 		.ascii	"CapSense_CSD_SensorBaselineLow\000"
 3349      656E7365 
 3349      5F435344 
 3349      5F53656E 
 3349      736F7242 
 3350              	.LASF42:
 3351 033f 43617053 		.ascii	"CapSense_CSD_FindMaximum\000"
 3351      656E7365 
 3351      5F435344 
 3351      5F46696E 
 3351      644D6178 
 3352              	.LASF13:
 3353 0358 666C6F61 		.ascii	"float\000"
 3353      7400
 3354              	.LASF19:
 3355 035e 43617053 		.ascii	"CapSense_CSD_InitializeAllBaselines\000"
 3355      656E7365 
 3355      5F435344 
 3355      5F496E69 
 3355      7469616C 
 3356              	.LASF65:
 3357 0382 43617053 		.ascii	"CapSense_CSD_fingerThreshold\000"
 3357      656E7365 
 3357      5F435344 
 3357      5F66696E 
 3357      67657254 
 3358              	.LASF1:
 3359 039f 756E7369 		.ascii	"unsigned char\000"
 3359      676E6564 
 3359      20636861 
 3359      7200
 3360              	.LASF27:
 3361 03ad 6E6F6973 		.ascii	"noiseThreshold\000"
 3361      65546872 
 3361      6573686F 
 3361      6C6400
 3362              	.LASF2:
 3363 03bc 73686F72 		.ascii	"short int\000"
 3363      7420696E 
 3363      7400
 3364              	.LASF20:
 3365 03c6 77696467 		.ascii	"widget\000"
 3365      657400
 3366              	.LASF30:
 3367 03cd 6F6E4D61 		.ascii	"onMask\000"
 3367      736B00
 3368              	.LASF45:
 3369 03d4 6D617869 		.ascii	"maximum\000"
 3369      6D756D00 
 3370              	.LASF23:
 3371 03dc 43617053 		.ascii	"CapSense_CSD_UpdateSensorBaseline\000"
 3371      656E7365 
 3371      5F435344 
 3371      5F557064 
 3371      61746553 
 3372              	.LASF49:
 3373 03fe 7265736F 		.ascii	"resolution\000"
ARM GAS  C:\Users\yguan5\AppData\Local\Temp\ccX3ogeL.s 			page 90


 3373      6C757469 
 3373      6F6E00
 3374              	.LASF71:
 3375 0409 43617053 		.ascii	"CapSense_CSD_numberOfSensors\000"
 3375      656E7365 
 3375      5F435344 
 3375      5F6E756D 
 3375      6265724F 
 3376              	.LASF66:
 3377 0426 43617053 		.ascii	"CapSense_CSD_noiseThreshold\000"
 3377      656E7365 
 3377      5F435344 
 3377      5F6E6F69 
 3377      73655468 
 3378              	.LASF15:
 3379 0442 63686172 		.ascii	"char\000"
 3379      00
 3380              	.LASF40:
 3381 0447 43617053 		.ascii	"CapSense_CSD_EnableWidget\000"
 3381      656E7365 
 3381      5F435344 
 3381      5F456E61 
 3381      626C6557 
 3382              	.LASF28:
 3383 0461 43617053 		.ascii	"CapSense_CSD_UpdateEnabledBaselines\000"
 3383      656E7365 
 3383      5F435344 
 3383      5F557064 
 3383      61746545 
 3384              	.LASF43:
 3385 0485 6F666673 		.ascii	"offset\000"
 3385      657400
 3386              	.LASF72:
 3387 048c 43617053 		.ascii	"CapSense_CSD_centroidMult\000"
 3387      656E7365 
 3387      5F435344 
 3387      5F63656E 
 3387      74726F69 
 3388              	.LASF67:
 3389 04a6 43617053 		.ascii	"CapSense_CSD_hysteresis\000"
 3389      656E7365 
 3389      5F435344 
 3389      5F687973 
 3389      74657265 
 3390              	.LASF29:
 3391 04be 6465626F 		.ascii	"debounceIndex\000"
 3391      756E6365 
 3391      496E6465 
 3391      7800
 3392              	.LASF39:
 3393 04cc 43617053 		.ascii	"CapSense_CSD_CheckIsAnyWidgetActive\000"
 3393      656E7365 
 3393      5F435344 
 3393      5F436865 
 3393      636B4973 
 3394              	.LASF35:
 3395 04f0 43617053 		.ascii	"CapSense_CSD_CheckIsWidgetActive\000"
ARM GAS  C:\Users\yguan5\AppData\Local\Temp\ccX3ogeL.s 			page 91


 3395      656E7365 
 3395      5F435344 
 3395      5F436865 
 3395      636B4973 
 3396              	.LASF64:
 3397 0511 43617053 		.ascii	"CapSense_CSD_LowBaselineResetCnt\000"
 3397      656E7365 
 3397      5F435344 
 3397      5F4C6F77 
 3397      42617365 
 3398              	.LASF57:
 3399 0532 43617053 		.ascii	"CapSense_CSD_SensorRaw\000"
 3399      656E7365 
 3399      5F435344 
 3399      5F53656E 
 3399      736F7252 
 3400              	.LASF74:
 3401 0549 2E5C4765 		.ascii	".\\Generated_Source\\PSoC5\\CapSense_CSD_CSHL.c\000"
 3401      6E657261 
 3401      7465645F 
 3401      536F7572 
 3401      63655C50 
 3402              	.LASF69:
 3403 0576 43617053 		.ascii	"CapSense_CSD_debounceCounter\000"
 3403      656E7365 
 3403      5F435344 
 3403      5F646562 
 3403      6F756E63 
 3404              	.LASF25:
 3405 0593 74656D70 		.ascii	"tempRaw\000"
 3405      52617700 
 3406              	.LASF41:
 3407 059b 43617053 		.ascii	"CapSense_CSD_DisableWidget\000"
 3407      656E7365 
 3407      5F435344 
 3407      5F446973 
 3407      61626C65 
 3408              		.ident	"GCC: (Sourcery G++ Lite 2010q1-188) 4.4.1"
