ARM GAS  C:\Users\yguan5\AppData\Local\Temp\ccX3ogeL.s 			page 1


   1              		.syntax unified
   2              		.cpu cortex-m3
   3              		.fpu softvfp
   4              		.eabi_attribute 20, 1
   5              		.eabi_attribute 21, 1
   6              		.eabi_attribute 23, 3
   7              		.eabi_attribute 24, 1
   8              		.eabi_attribute 25, 1
   9              		.eabi_attribute 26, 1
  10              		.eabi_attribute 30, 6
  11              		.eabi_attribute 18, 4
  12              		.thumb
  13              		.file	"CapSense_CSD_CSHL.c"
  20 0000 3D020000 		.text
  20      02006A00 
  20      00000201 
  20      FB0E0D00 
  20      01010101 
  21              	.Ltext0:
  22              		.cfi_sections	.debug_frame
  23              		.global	CapSense_CSD_SensorBaseline
  24              		.bss
  25              		.align	2
  26              		.type	CapSense_CSD_SensorBaseline, %object
  27              		.size	CapSense_CSD_SensorBaseline, 14
  28              	CapSense_CSD_SensorBaseline:
  29 0000 00000000 		.space	14
  29      00000000 
  29      00000000 
  29      0000
  30              		.global	CapSense_CSD_SensorBaselineLow
  31 000e 0000     		.align	2
  32              		.type	CapSense_CSD_SensorBaselineLow, %object
  33              		.size	CapSense_CSD_SensorBaselineLow, 7
  34              	CapSense_CSD_SensorBaselineLow:
  35 0010 00000000 		.space	7
  35      000000
  36              		.global	CapSense_CSD_SensorSignal
  37 0017 00       		.align	2
  38              		.type	CapSense_CSD_SensorSignal, %object
  39              		.size	CapSense_CSD_SensorSignal, 7
  40              	CapSense_CSD_SensorSignal:
  41 0018 00000000 		.space	7
  41      000000
  42              		.global	CapSense_CSD_SensorOnMask
  43 001f 00       		.align	2
  44              		.type	CapSense_CSD_SensorOnMask, %object
  45              		.size	CapSense_CSD_SensorOnMask, 1
  46              	CapSense_CSD_SensorOnMask:
  47 0020 00       		.space	1
  48              		.comm	CapSense_CSD_LowBaselineResetCnt,7,4
ARM GAS  C:\Users\yguan5\AppData\Local\Temp\ccX3ogeL.s 			page 2


  49 0021 000000   		.align	2
  50              	CapSense_CSD_centroid:
  51 0024 000000   		.space	3
  52              		.global	CapSense_CSD_fingerThreshold
  53              		.section	.rodata
  54              		.align	2
  55              		.type	CapSense_CSD_fingerThreshold, %object
  56              		.size	CapSense_CSD_fingerThreshold, 3
  57              	CapSense_CSD_fingerThreshold:
  58 0000 64       		.byte	100
  59 0001 64       		.byte	100
  60 0002 64       		.byte	100
  61              		.global	CapSense_CSD_noiseThreshold
  62 0003 00       		.align	2
  63              		.type	CapSense_CSD_noiseThreshold, %object
  64              		.size	CapSense_CSD_noiseThreshold, 3
  65              	CapSense_CSD_noiseThreshold:
  66 0004 14       		.byte	20
  67 0005 14       		.byte	20
  68 0006 14       		.byte	20
  69              		.global	CapSense_CSD_hysteresis
  70 0007 00       		.align	2
  71              		.type	CapSense_CSD_hysteresis, %object
  72              		.size	CapSense_CSD_hysteresis, 3
  73              	CapSense_CSD_hysteresis:
  74 0008 00       		.byte	0
  75 0009 0A       		.byte	10
  76 000a 0A       		.byte	10
  77              		.global	CapSense_CSD_debounce
  78 000b 00       		.align	2
  79              		.type	CapSense_CSD_debounce, %object
  80              		.size	CapSense_CSD_debounce, 3
  81              	CapSense_CSD_debounce:
  82 000c 01       		.byte	1
  83 000d 05       		.byte	5
  84 000e 05       		.byte	5
  85              		.global	CapSense_CSD_debounceCounter
  86              		.bss
  87 0027 00       		.align	2
  88              		.type	CapSense_CSD_debounceCounter, %object
  89              		.size	CapSense_CSD_debounceCounter, 3
  90              	CapSense_CSD_debounceCounter:
  91 0028 000000   		.space	3
  92              		.global	CapSense_CSD_rawDataIndex
  93 002b 00       		.section	.rodata
  94 000f 00       		.align	2
  95              		.type	CapSense_CSD_rawDataIndex, %object
  96              		.size	CapSense_CSD_rawDataIndex, 3
  97              	CapSense_CSD_rawDataIndex:
  98 0010 02       		.byte	2
  99 0011 00       		.byte	0
 100 0012 01       		.byte	1
 101              		.global	CapSense_CSD_numberOfSensors
 102 0013 00       		.align	2
 103              		.type	CapSense_CSD_numberOfSensors, %object
 104              		.size	CapSense_CSD_numberOfSensors, 3
 105              	CapSense_CSD_numberOfSensors:
ARM GAS  C:\Users\yguan5\AppData\Local\Temp\ccX3ogeL.s 			page 3


 106 0014 05       		.byte	5
 107 0015 01       		.byte	1
 108 0016 01       		.byte	1
 109              		.global	CapSense_CSD_centroidMult
 110 0017 00       		.align	2
 111              		.type	CapSense_CSD_centroidMult, %object
 112              		.size	CapSense_CSD_centroidMult, 2
 113              	CapSense_CSD_centroidMult:
 114 0018 0019     		.short	6400
 115              		.section	.text.CapSense_CSD_BaseInit,"ax",%progbits
 116              		.align	2
 117              		.global	CapSense_CSD_BaseInit
 118              		.thumb
 119              		.thumb_func
 120              		.type	CapSense_CSD_BaseInit, %function
 121              	CapSense_CSD_BaseInit:
 122              	.LFB0:
 123              		.file 1 ".\\Generated_Source\\PSoC5\\CapSense_CSD_CSHL.c"
   1:.\Generated_Source\PSoC5/CapSense_CSD_CSHL.c **** /*******************************************************************************
   2:.\Generated_Source\PSoC5/CapSense_CSD_CSHL.c **** * File Name: CapSense_CSD_CSHL.c
   3:.\Generated_Source\PSoC5/CapSense_CSD_CSHL.c **** * Version 3.30
   4:.\Generated_Source\PSoC5/CapSense_CSD_CSHL.c **** *
   5:.\Generated_Source\PSoC5/CapSense_CSD_CSHL.c **** * Description:
   6:.\Generated_Source\PSoC5/CapSense_CSD_CSHL.c **** *  This file provides the source code to the High Level APIs for the CapSesne
   7:.\Generated_Source\PSoC5/CapSense_CSD_CSHL.c **** *  CSD component.
   8:.\Generated_Source\PSoC5/CapSense_CSD_CSHL.c **** *
   9:.\Generated_Source\PSoC5/CapSense_CSD_CSHL.c **** * Note:
  10:.\Generated_Source\PSoC5/CapSense_CSD_CSHL.c **** *
  11:.\Generated_Source\PSoC5/CapSense_CSD_CSHL.c **** ********************************************************************************
  12:.\Generated_Source\PSoC5/CapSense_CSD_CSHL.c **** * Copyright 2008-2012, Cypress Semiconductor Corporation.  All rights reserved.
  13:.\Generated_Source\PSoC5/CapSense_CSD_CSHL.c **** * You may use this file only in accordance with the license, terms, conditions,
  14:.\Generated_Source\PSoC5/CapSense_CSD_CSHL.c **** * disclaimers, and limitations in the end user license agreement accompanying
  15:.\Generated_Source\PSoC5/CapSense_CSD_CSHL.c **** * the software package with which this file was provided.
  16:.\Generated_Source\PSoC5/CapSense_CSD_CSHL.c **** *******************************************************************************/
  17:.\Generated_Source\PSoC5/CapSense_CSD_CSHL.c **** 
  18:.\Generated_Source\PSoC5/CapSense_CSD_CSHL.c **** #include "CapSense_CSD_CSHL.h"
  19:.\Generated_Source\PSoC5/CapSense_CSD_CSHL.c **** 
  20:.\Generated_Source\PSoC5/CapSense_CSD_CSHL.c **** /* SmartSense functions */
  21:.\Generated_Source\PSoC5/CapSense_CSD_CSHL.c **** #if (CapSense_CSD_TUNING_METHOD == CapSense_CSD_AUTO_TUNING)
  22:.\Generated_Source\PSoC5/CapSense_CSD_CSHL.c ****     extern void CapSense_CSD_CalculateThresholds(uint8 SensorNumber)
  23:.\Generated_Source\PSoC5/CapSense_CSD_CSHL.c ****            ;
  24:.\Generated_Source\PSoC5/CapSense_CSD_CSHL.c **** #endif /* (CapSense_CSD_TUNING_METHOD == CapSense_CSD_AUTO_TUNING) */
  25:.\Generated_Source\PSoC5/CapSense_CSD_CSHL.c **** 
  26:.\Generated_Source\PSoC5/CapSense_CSD_CSHL.c **** /* Median filter function prototype */
  27:.\Generated_Source\PSoC5/CapSense_CSD_CSHL.c **** #if ( (CapSense_CSD_RAW_FILTER_MASK & CapSense_CSD_MEDIAN_FILTER) || \
  28:.\Generated_Source\PSoC5/CapSense_CSD_CSHL.c ****       (CapSense_CSD_POS_FILTERS_MASK & CapSense_CSD_MEDIAN_FILTER) )
  29:.\Generated_Source\PSoC5/CapSense_CSD_CSHL.c ****     uint16 CapSense_CSD_MedianFilter(uint16 x1, uint16 x2, uint16 x3)
  30:.\Generated_Source\PSoC5/CapSense_CSD_CSHL.c ****     ;
  31:.\Generated_Source\PSoC5/CapSense_CSD_CSHL.c **** #endif /* CapSense_CSD_RAW_FILTER_MASK && CapSense_CSD_POS_FILTERS_MASK */
  32:.\Generated_Source\PSoC5/CapSense_CSD_CSHL.c **** 
  33:.\Generated_Source\PSoC5/CapSense_CSD_CSHL.c **** /* Averaging filter function prototype */
  34:.\Generated_Source\PSoC5/CapSense_CSD_CSHL.c **** #if ( (CapSense_CSD_RAW_FILTER_MASK & CapSense_CSD_AVERAGING_FILTER) || \
  35:.\Generated_Source\PSoC5/CapSense_CSD_CSHL.c ****       (CapSense_CSD_POS_FILTERS_MASK & CapSense_CSD_AVERAGING_FILTER) )
  36:.\Generated_Source\PSoC5/CapSense_CSD_CSHL.c ****     uint16 CapSense_CSD_AveragingFilter(uint16 x1, uint16 x2, uint16 x3)
  37:.\Generated_Source\PSoC5/CapSense_CSD_CSHL.c ****     ;
  38:.\Generated_Source\PSoC5/CapSense_CSD_CSHL.c **** #endif /* CapSense_CSD_RAW_FILTER_MASK && CapSense_CSD_POS_FILTERS_MASK */
  39:.\Generated_Source\PSoC5/CapSense_CSD_CSHL.c **** 
ARM GAS  C:\Users\yguan5\AppData\Local\Temp\ccX3ogeL.s 			page 4


  40:.\Generated_Source\PSoC5/CapSense_CSD_CSHL.c **** /* IIR2Filter(1/2prev + 1/2cur) filter function prototype */
  41:.\Generated_Source\PSoC5/CapSense_CSD_CSHL.c **** #if ( (CapSense_CSD_RAW_FILTER_MASK & CapSense_CSD_IIR2_FILTER) || \
  42:.\Generated_Source\PSoC5/CapSense_CSD_CSHL.c ****       (CapSense_CSD_POS_FILTERS_MASK & CapSense_CSD_IIR2_FILTER) )
  43:.\Generated_Source\PSoC5/CapSense_CSD_CSHL.c ****     uint16 CapSense_CSD_IIR2Filter(uint16 x1, uint16 x2) ;
  44:.\Generated_Source\PSoC5/CapSense_CSD_CSHL.c **** #endif /* CapSense_CSD_RAW_FILTER_MASK && CapSense_CSD_POS_FILTERS_MASK */
  45:.\Generated_Source\PSoC5/CapSense_CSD_CSHL.c **** 
  46:.\Generated_Source\PSoC5/CapSense_CSD_CSHL.c **** /* IIR4Filter(3/4prev + 1/4cur) filter function prototype */
  47:.\Generated_Source\PSoC5/CapSense_CSD_CSHL.c **** #if ( (CapSense_CSD_RAW_FILTER_MASK & CapSense_CSD_IIR4_FILTER) || \
  48:.\Generated_Source\PSoC5/CapSense_CSD_CSHL.c ****       (CapSense_CSD_POS_FILTERS_MASK & CapSense_CSD_IIR4_FILTER) )
  49:.\Generated_Source\PSoC5/CapSense_CSD_CSHL.c ****     uint16 CapSense_CSD_IIR4Filter(uint16 x1, uint16 x2) ;
  50:.\Generated_Source\PSoC5/CapSense_CSD_CSHL.c **** #endif /* CapSense_CSD_RAW_FILTER_MASK && CapSense_CSD_POS_FILTERS_MASK */
  51:.\Generated_Source\PSoC5/CapSense_CSD_CSHL.c **** 
  52:.\Generated_Source\PSoC5/CapSense_CSD_CSHL.c **** /* IIR8Filter(7/8prev + 1/8cur) filter function prototype - RawCounts only */
  53:.\Generated_Source\PSoC5/CapSense_CSD_CSHL.c **** #if (CapSense_CSD_RAW_FILTER_MASK & CapSense_CSD_IIR8_FILTER)
  54:.\Generated_Source\PSoC5/CapSense_CSD_CSHL.c ****     uint16 CapSense_CSD_IIR8Filter(uint16 x1, uint16 x2) ;
  55:.\Generated_Source\PSoC5/CapSense_CSD_CSHL.c **** #endif /* CapSense_CSD_RAW_FILTER_MASK */
  56:.\Generated_Source\PSoC5/CapSense_CSD_CSHL.c **** 
  57:.\Generated_Source\PSoC5/CapSense_CSD_CSHL.c **** /* IIR16Filter(15/16prev + 1/16cur) filter function prototype - RawCounts only */
  58:.\Generated_Source\PSoC5/CapSense_CSD_CSHL.c **** #if (CapSense_CSD_RAW_FILTER_MASK & CapSense_CSD_IIR16_FILTER)
  59:.\Generated_Source\PSoC5/CapSense_CSD_CSHL.c ****     uint16 CapSense_CSD_IIR16Filter(uint16 x1, uint16 x2) ;
  60:.\Generated_Source\PSoC5/CapSense_CSD_CSHL.c **** #endif /* CapSense_CSD_RAW_FILTER_MASK */
  61:.\Generated_Source\PSoC5/CapSense_CSD_CSHL.c **** 
  62:.\Generated_Source\PSoC5/CapSense_CSD_CSHL.c **** /* JitterFilter filter function prototype */
  63:.\Generated_Source\PSoC5/CapSense_CSD_CSHL.c **** #if ( (CapSense_CSD_RAW_FILTER_MASK & CapSense_CSD_JITTER_FILTER) || \
  64:.\Generated_Source\PSoC5/CapSense_CSD_CSHL.c ****       (CapSense_CSD_POS_FILTERS_MASK & CapSense_CSD_JITTER_FILTER) )
  65:.\Generated_Source\PSoC5/CapSense_CSD_CSHL.c ****     uint16 CapSense_CSD_JitterFilter(uint16 x1, uint16 x2) ;
  66:.\Generated_Source\PSoC5/CapSense_CSD_CSHL.c **** #endif /* CapSense_CSD_RAW_FILTER_MASK && CapSense_CSD_POS_FILTERS_MASK */
  67:.\Generated_Source\PSoC5/CapSense_CSD_CSHL.c **** 
  68:.\Generated_Source\PSoC5/CapSense_CSD_CSHL.c **** /* Storage of filters data */
  69:.\Generated_Source\PSoC5/CapSense_CSD_CSHL.c **** #if ( (CapSense_CSD_RAW_FILTER_MASK & CapSense_CSD_MEDIAN_FILTER) || \
  70:.\Generated_Source\PSoC5/CapSense_CSD_CSHL.c ****       (CapSense_CSD_RAW_FILTER_MASK & CapSense_CSD_AVERAGING_FILTER) )
  71:.\Generated_Source\PSoC5/CapSense_CSD_CSHL.c **** 
  72:.\Generated_Source\PSoC5/CapSense_CSD_CSHL.c ****     uint16 CapSense_CSD_rawFilterData1[CapSense_CSD_TOTAL_SENSOR_COUNT];
  73:.\Generated_Source\PSoC5/CapSense_CSD_CSHL.c ****     uint16 CapSense_CSD_rawFilterData2[CapSense_CSD_TOTAL_SENSOR_COUNT];
  74:.\Generated_Source\PSoC5/CapSense_CSD_CSHL.c **** 
  75:.\Generated_Source\PSoC5/CapSense_CSD_CSHL.c **** #elif ( (CapSense_CSD_RAW_FILTER_MASK & CapSense_CSD_IIR2_FILTER)   || \
  76:.\Generated_Source\PSoC5/CapSense_CSD_CSHL.c ****         (CapSense_CSD_RAW_FILTER_MASK & CapSense_CSD_IIR4_FILTER)   || \
  77:.\Generated_Source\PSoC5/CapSense_CSD_CSHL.c ****         (CapSense_CSD_RAW_FILTER_MASK & CapSense_CSD_JITTER_FILTER) || \
  78:.\Generated_Source\PSoC5/CapSense_CSD_CSHL.c ****         (CapSense_CSD_RAW_FILTER_MASK & CapSense_CSD_IIR8_FILTER)   || \
  79:.\Generated_Source\PSoC5/CapSense_CSD_CSHL.c ****         (CapSense_CSD_RAW_FILTER_MASK & CapSense_CSD_IIR16_FILTER) )
  80:.\Generated_Source\PSoC5/CapSense_CSD_CSHL.c ****         
  81:.\Generated_Source\PSoC5/CapSense_CSD_CSHL.c ****     uint16 CapSense_CSD_rawFilterData1[CapSense_CSD_TOTAL_SENSOR_COUNT];
  82:.\Generated_Source\PSoC5/CapSense_CSD_CSHL.c **** 
  83:.\Generated_Source\PSoC5/CapSense_CSD_CSHL.c **** #else
  84:.\Generated_Source\PSoC5/CapSense_CSD_CSHL.c ****     /* No Raw filters */
  85:.\Generated_Source\PSoC5/CapSense_CSD_CSHL.c **** #endif  /* ( (CapSense_CSD_RAW_FILTER_MASK & CapSense_CSD_MEDIAN_FILTER) || \
  86:.\Generated_Source\PSoC5/CapSense_CSD_CSHL.c ****         *    (CapSense_CSD_RAW_FILTER_MASK & CapSense_CSD_AVERAGING_FILTER) )
  87:.\Generated_Source\PSoC5/CapSense_CSD_CSHL.c ****         */
  88:.\Generated_Source\PSoC5/CapSense_CSD_CSHL.c **** 
  89:.\Generated_Source\PSoC5/CapSense_CSD_CSHL.c **** extern uint16 CapSense_CSD_SensorRaw[CapSense_CSD_TOTAL_SENSOR_COUNT];
  90:.\Generated_Source\PSoC5/CapSense_CSD_CSHL.c **** extern uint8 CapSense_CSD_SensorEnableMask[(((CapSense_CSD_TOTAL_SENSOR_COUNT - 1u) / 8u) + 1u)];
  91:.\Generated_Source\PSoC5/CapSense_CSD_CSHL.c **** extern const uint8 CYCODE CapSense_CSD_widgetNumber[];
  92:.\Generated_Source\PSoC5/CapSense_CSD_CSHL.c **** 
  93:.\Generated_Source\PSoC5/CapSense_CSD_CSHL.c **** uint16 CapSense_CSD_SensorBaseline[CapSense_CSD_TOTAL_SENSOR_COUNT] = {0u};
  94:.\Generated_Source\PSoC5/CapSense_CSD_CSHL.c **** uint8 CapSense_CSD_SensorBaselineLow[CapSense_CSD_TOTAL_SENSOR_COUNT] = {0u};
  95:.\Generated_Source\PSoC5/CapSense_CSD_CSHL.c **** uint8 CapSense_CSD_SensorSignal[CapSense_CSD_TOTAL_SENSOR_COUNT] = {0u};
  96:.\Generated_Source\PSoC5/CapSense_CSD_CSHL.c **** uint8 CapSense_CSD_SensorOnMask[(((CapSense_CSD_TOTAL_SENSOR_COUNT - 1u) / 8u) + 1u)] = {0u};
ARM GAS  C:\Users\yguan5\AppData\Local\Temp\ccX3ogeL.s 			page 5


  97:.\Generated_Source\PSoC5/CapSense_CSD_CSHL.c **** 
  98:.\Generated_Source\PSoC5/CapSense_CSD_CSHL.c **** uint8 CapSense_CSD_LowBaselineResetCnt[CapSense_CSD_TOTAL_SENSOR_COUNT];
  99:.\Generated_Source\PSoC5/CapSense_CSD_CSHL.c **** 
 100:.\Generated_Source\PSoC5/CapSense_CSD_CSHL.c **** /* Helps while centroid calulation */
 101:.\Generated_Source\PSoC5/CapSense_CSD_CSHL.c **** #if (CapSense_CSD_TOTAL_CENTROIDS_COUNT)
 102:.\Generated_Source\PSoC5/CapSense_CSD_CSHL.c ****     static uint8 CapSense_CSD_centroid[3];
 103:.\Generated_Source\PSoC5/CapSense_CSD_CSHL.c **** #endif  /* (CapSense_CSD_TOTAL_CENTROIDS_COUNT) */
 104:.\Generated_Source\PSoC5/CapSense_CSD_CSHL.c **** 
 105:.\Generated_Source\PSoC5/CapSense_CSD_CSHL.c **** const uint8 CYCODE CapSense_CSD_fingerThreshold[] = {
 106:.\Generated_Source\PSoC5/CapSense_CSD_CSHL.c ****     100u, 100u, 100u, 
 107:.\Generated_Source\PSoC5/CapSense_CSD_CSHL.c **** };
 108:.\Generated_Source\PSoC5/CapSense_CSD_CSHL.c **** 
 109:.\Generated_Source\PSoC5/CapSense_CSD_CSHL.c **** const uint8 CYCODE CapSense_CSD_noiseThreshold[] = {
 110:.\Generated_Source\PSoC5/CapSense_CSD_CSHL.c ****     20u, 20u, 20u, 
 111:.\Generated_Source\PSoC5/CapSense_CSD_CSHL.c **** };
 112:.\Generated_Source\PSoC5/CapSense_CSD_CSHL.c **** 
 113:.\Generated_Source\PSoC5/CapSense_CSD_CSHL.c **** const uint8 CYCODE CapSense_CSD_hysteresis[] = {
 114:.\Generated_Source\PSoC5/CapSense_CSD_CSHL.c ****     0u, 10u, 10u, 
 115:.\Generated_Source\PSoC5/CapSense_CSD_CSHL.c **** };
 116:.\Generated_Source\PSoC5/CapSense_CSD_CSHL.c **** 
 117:.\Generated_Source\PSoC5/CapSense_CSD_CSHL.c **** const uint8 CYCODE CapSense_CSD_debounce[] = {
 118:.\Generated_Source\PSoC5/CapSense_CSD_CSHL.c ****     1u, 5u, 5u, 
 119:.\Generated_Source\PSoC5/CapSense_CSD_CSHL.c **** };
 120:.\Generated_Source\PSoC5/CapSense_CSD_CSHL.c **** 
 121:.\Generated_Source\PSoC5/CapSense_CSD_CSHL.c **** uint8 CapSense_CSD_debounceCounter[] = {
 122:.\Generated_Source\PSoC5/CapSense_CSD_CSHL.c ****     0u, 0u, 0u, 
 123:.\Generated_Source\PSoC5/CapSense_CSD_CSHL.c **** };
 124:.\Generated_Source\PSoC5/CapSense_CSD_CSHL.c **** 
 125:.\Generated_Source\PSoC5/CapSense_CSD_CSHL.c **** const uint8 CYCODE CapSense_CSD_rawDataIndex[] = {
 126:.\Generated_Source\PSoC5/CapSense_CSD_CSHL.c ****     2u, /* LinearSlider0__LS */
 127:.\Generated_Source\PSoC5/CapSense_CSD_CSHL.c ****     0u, /* Button0__BTN */
 128:.\Generated_Source\PSoC5/CapSense_CSD_CSHL.c ****     1u, /* Button1__BTN */
 129:.\Generated_Source\PSoC5/CapSense_CSD_CSHL.c **** 
 130:.\Generated_Source\PSoC5/CapSense_CSD_CSHL.c **** };
 131:.\Generated_Source\PSoC5/CapSense_CSD_CSHL.c **** 
 132:.\Generated_Source\PSoC5/CapSense_CSD_CSHL.c **** const uint8 CYCODE CapSense_CSD_numberOfSensors[] = {
 133:.\Generated_Source\PSoC5/CapSense_CSD_CSHL.c ****     5u, /* LinearSlider0__LS */
 134:.\Generated_Source\PSoC5/CapSense_CSD_CSHL.c ****     1u, /* Button0__BTN */
 135:.\Generated_Source\PSoC5/CapSense_CSD_CSHL.c ****     1u, /* Button1__BTN */
 136:.\Generated_Source\PSoC5/CapSense_CSD_CSHL.c **** 
 137:.\Generated_Source\PSoC5/CapSense_CSD_CSHL.c **** };
 138:.\Generated_Source\PSoC5/CapSense_CSD_CSHL.c **** 
 139:.\Generated_Source\PSoC5/CapSense_CSD_CSHL.c **** const uint16 CYCODE CapSense_CSD_centroidMult[] = {
 140:.\Generated_Source\PSoC5/CapSense_CSD_CSHL.c ****     6400u, 
 141:.\Generated_Source\PSoC5/CapSense_CSD_CSHL.c **** };
 142:.\Generated_Source\PSoC5/CapSense_CSD_CSHL.c **** 
 143:.\Generated_Source\PSoC5/CapSense_CSD_CSHL.c **** 
 144:.\Generated_Source\PSoC5/CapSense_CSD_CSHL.c **** 
 145:.\Generated_Source\PSoC5/CapSense_CSD_CSHL.c **** 
 146:.\Generated_Source\PSoC5/CapSense_CSD_CSHL.c **** /*******************************************************************************
 147:.\Generated_Source\PSoC5/CapSense_CSD_CSHL.c **** * Function Name: CapSense_CSD_BaseInit
 148:.\Generated_Source\PSoC5/CapSense_CSD_CSHL.c **** ********************************************************************************
 149:.\Generated_Source\PSoC5/CapSense_CSD_CSHL.c **** *
 150:.\Generated_Source\PSoC5/CapSense_CSD_CSHL.c **** * Summary:
 151:.\Generated_Source\PSoC5/CapSense_CSD_CSHL.c **** *  Loads the CapSense_CSD_SensorBaseline[sensor] array element with an 
 152:.\Generated_Source\PSoC5/CapSense_CSD_CSHL.c **** *  initial value which is equal to raw count value. 
 153:.\Generated_Source\PSoC5/CapSense_CSD_CSHL.c **** *  Resets to zero CapSense_CSD_SensorBaselineLow[senesor] and 
ARM GAS  C:\Users\yguan5\AppData\Local\Temp\ccX3ogeL.s 			page 6


 154:.\Generated_Source\PSoC5/CapSense_CSD_CSHL.c **** *  CapSense_CSD_SensorSignal[sensor] array element.
 155:.\Generated_Source\PSoC5/CapSense_CSD_CSHL.c **** *  Loads CapSense_CSD_debounceCounter[sensor] array element with initial 
 156:.\Generated_Source\PSoC5/CapSense_CSD_CSHL.c **** *  value equal CapSense_CSD_debounce[].
 157:.\Generated_Source\PSoC5/CapSense_CSD_CSHL.c **** *  Loads the CapSense_CSD_rawFilterData2[sensor] and 
 158:.\Generated_Source\PSoC5/CapSense_CSD_CSHL.c **** *  CapSense_CSD_rawFilterData2[sensor] array element with an 
 159:.\Generated_Source\PSoC5/CapSense_CSD_CSHL.c **** *  initial value which is equal raw count value if raw data filter is enabled.
 160:.\Generated_Source\PSoC5/CapSense_CSD_CSHL.c **** *
 161:.\Generated_Source\PSoC5/CapSense_CSD_CSHL.c **** * Parameters:
 162:.\Generated_Source\PSoC5/CapSense_CSD_CSHL.c **** *  sensor:  Sensor number.
 163:.\Generated_Source\PSoC5/CapSense_CSD_CSHL.c **** *
 164:.\Generated_Source\PSoC5/CapSense_CSD_CSHL.c **** * Return:
 165:.\Generated_Source\PSoC5/CapSense_CSD_CSHL.c **** *  None
 166:.\Generated_Source\PSoC5/CapSense_CSD_CSHL.c **** *
 167:.\Generated_Source\PSoC5/CapSense_CSD_CSHL.c **** * Global Variables:
 168:.\Generated_Source\PSoC5/CapSense_CSD_CSHL.c **** *  CapSense_CSD_SensorBaseline[]    - used to store baseline value.
 169:.\Generated_Source\PSoC5/CapSense_CSD_CSHL.c **** *  CapSense_CSD_SensorBaselineLow[] - used to store fraction byte of 
 170:.\Generated_Source\PSoC5/CapSense_CSD_CSHL.c **** *  baseline value.
 171:.\Generated_Source\PSoC5/CapSense_CSD_CSHL.c **** *  CapSense_CSD_SensorSignal[]      - used to store diffence between 
 172:.\Generated_Source\PSoC5/CapSense_CSD_CSHL.c **** *  current value of raw data and previous value of baseline.
 173:.\Generated_Source\PSoC5/CapSense_CSD_CSHL.c **** *  CapSense_CSD_debounceCounter[]   - used to store current debounce 
 174:.\Generated_Source\PSoC5/CapSense_CSD_CSHL.c **** *  counter of sensor. Widget which has this parameter are buttons, matrix 
 175:.\Generated_Source\PSoC5/CapSense_CSD_CSHL.c **** *  buttons, proximity, guard. All other widgets haven't debounce parameter
 176:.\Generated_Source\PSoC5/CapSense_CSD_CSHL.c **** *  and use the last element of this array with value 0 (it means no debounce).
 177:.\Generated_Source\PSoC5/CapSense_CSD_CSHL.c **** *  CapSense_CSD_rawFilterData1[]    - used to store previous sample of 
 178:.\Generated_Source\PSoC5/CapSense_CSD_CSHL.c **** *  any enabled raw data filter.
 179:.\Generated_Source\PSoC5/CapSense_CSD_CSHL.c **** *  CapSense_CSD_rawFilterData2[]    - used to store before previous sample
 180:.\Generated_Source\PSoC5/CapSense_CSD_CSHL.c **** *  of enabled raw data filter. Only required for median or average filters.
 181:.\Generated_Source\PSoC5/CapSense_CSD_CSHL.c **** *
 182:.\Generated_Source\PSoC5/CapSense_CSD_CSHL.c **** * Reentrant:
 183:.\Generated_Source\PSoC5/CapSense_CSD_CSHL.c **** *  No
 184:.\Generated_Source\PSoC5/CapSense_CSD_CSHL.c **** *
 185:.\Generated_Source\PSoC5/CapSense_CSD_CSHL.c **** *******************************************************************************/
 186:.\Generated_Source\PSoC5/CapSense_CSD_CSHL.c **** void CapSense_CSD_BaseInit(uint8 sensor) 
 187:.\Generated_Source\PSoC5/CapSense_CSD_CSHL.c **** {
 124              		.loc 1 187 0
 125              		.cfi_startproc
 126              		@ args = 0, pretend = 0, frame = 16
 127              		@ frame_needed = 1, uses_anonymous_args = 0
 128              		@ link register save eliminated.
 129 0000 80B4     		push	{r7}
 130              	.LCFI0:
 131              		.cfi_def_cfa_offset 4
 132 0002 85B0     		sub	sp, sp, #20
 133              	.LCFI1:
 134              		.cfi_def_cfa_offset 24
 135 0004 00AF     		add	r7, sp, #0
 136              		.cfi_offset 7, -4
 137              	.LCFI2:
 138              		.cfi_def_cfa_register 7
 139 0006 0346     		mov	r3, r0
 140 0008 FB71     		strb	r3, [r7, #7]
 188:.\Generated_Source\PSoC5/CapSense_CSD_CSHL.c ****     #if ((CapSense_CSD_TOTAL_BUTTONS_COUNT) || (CapSense_CSD_TOTAL_MATRIX_BUTTONS_COUNT) || \
 189:.\Generated_Source\PSoC5/CapSense_CSD_CSHL.c ****          (CapSense_CSD_TOTAL_GENERICS_COUNT))
 190:.\Generated_Source\PSoC5/CapSense_CSD_CSHL.c ****         uint8 widget = CapSense_CSD_widgetNumber[sensor];
 141              		.loc 1 190 0
 142 000a FA79     		ldrb	r2, [r7, #7]	@ zero_extendqisi2
 143 000c 40F20003 		movw	r3, #:lower16:CapSense_CSD_widgetNumber
ARM GAS  C:\Users\yguan5\AppData\Local\Temp\ccX3ogeL.s 			page 7


 144 0010 C0F20003 		movt	r3, #:upper16:CapSense_CSD_widgetNumber
 145 0014 9B5C     		ldrb	r3, [r3, r2]
 146 0016 FB73     		strb	r3, [r7, #15]
 191:.\Generated_Source\PSoC5/CapSense_CSD_CSHL.c ****     #endif /* ((CapSense_CSD_TOTAL_MATRIX_BUTTONS_COUNT) || (CapSense_CSD_TOTAL_MATRIX_BUTTONS_COUN
 192:.\Generated_Source\PSoC5/CapSense_CSD_CSHL.c ****     
 193:.\Generated_Source\PSoC5/CapSense_CSD_CSHL.c ****     #if (CapSense_CSD_TOTAL_MATRIX_BUTTONS_COUNT)
 194:.\Generated_Source\PSoC5/CapSense_CSD_CSHL.c ****         uint8 debounceIndex;
 195:.\Generated_Source\PSoC5/CapSense_CSD_CSHL.c ****     #endif  /* (CapSense_CSD_TOTAL_MATRIX_BUTTONS_COUNT) */
 196:.\Generated_Source\PSoC5/CapSense_CSD_CSHL.c ****     
 197:.\Generated_Source\PSoC5/CapSense_CSD_CSHL.c ****     #if (CapSense_CSD_TOTAL_GENERICS_COUNT)
 198:.\Generated_Source\PSoC5/CapSense_CSD_CSHL.c ****         /* Exclude generic widget */
 199:.\Generated_Source\PSoC5/CapSense_CSD_CSHL.c ****         if(widget < CapSense_CSD_END_OF_WIDGETS_INDEX)
 200:.\Generated_Source\PSoC5/CapSense_CSD_CSHL.c ****         {
 201:.\Generated_Source\PSoC5/CapSense_CSD_CSHL.c ****     #endif  /* CapSense_CSD_TOTAL_GENERICS_COUNT */
 202:.\Generated_Source\PSoC5/CapSense_CSD_CSHL.c ****     
 203:.\Generated_Source\PSoC5/CapSense_CSD_CSHL.c ****     /* Initialize Baseline */
 204:.\Generated_Source\PSoC5/CapSense_CSD_CSHL.c ****     CapSense_CSD_SensorBaseline[sensor] = CapSense_CSD_SensorRaw[sensor];
 147              		.loc 1 204 0
 148 0018 FA79     		ldrb	r2, [r7, #7]	@ zero_extendqisi2
 149 001a F979     		ldrb	r1, [r7, #7]	@ zero_extendqisi2
 150 001c 40F20003 		movw	r3, #:lower16:CapSense_CSD_SensorRaw
 151 0020 C0F20003 		movt	r3, #:upper16:CapSense_CSD_SensorRaw
 152 0024 33F81110 		ldrh	r1, [r3, r1, lsl #1]
 153 0028 40F20003 		movw	r3, #:lower16:CapSense_CSD_SensorBaseline
 154 002c C0F20003 		movt	r3, #:upper16:CapSense_CSD_SensorBaseline
 155 0030 23F81210 		strh	r1, [r3, r2, lsl #1]	@ movhi
 205:.\Generated_Source\PSoC5/CapSense_CSD_CSHL.c ****     CapSense_CSD_SensorBaselineLow[sensor] = 0u;
 156              		.loc 1 205 0
 157 0034 FA79     		ldrb	r2, [r7, #7]	@ zero_extendqisi2
 158 0036 40F20003 		movw	r3, #:lower16:CapSense_CSD_SensorBaselineLow
 159 003a C0F20003 		movt	r3, #:upper16:CapSense_CSD_SensorBaselineLow
 160 003e 4FF00001 		mov	r1, #0
 161 0042 9954     		strb	r1, [r3, r2]
 206:.\Generated_Source\PSoC5/CapSense_CSD_CSHL.c ****     CapSense_CSD_SensorSignal[sensor] = 0u;
 162              		.loc 1 206 0
 163 0044 FA79     		ldrb	r2, [r7, #7]	@ zero_extendqisi2
 164 0046 40F20003 		movw	r3, #:lower16:CapSense_CSD_SensorSignal
 165 004a C0F20003 		movt	r3, #:upper16:CapSense_CSD_SensorSignal
 166 004e 4FF00001 		mov	r1, #0
 167 0052 9954     		strb	r1, [r3, r2]
 207:.\Generated_Source\PSoC5/CapSense_CSD_CSHL.c ****         
 208:.\Generated_Source\PSoC5/CapSense_CSD_CSHL.c ****     if(widget > CapSense_CSD_END_OF_TOUCH_PAD_INDEX)
 168              		.loc 1 208 0
 169 0054 FB7B     		ldrb	r3, [r7, #15]	@ zero_extendqisi2
 170 0056 002B     		cmp	r3, #0
 171 0058 0DD0     		beq	.L3
 209:.\Generated_Source\PSoC5/CapSense_CSD_CSHL.c ****     {
 210:.\Generated_Source\PSoC5/CapSense_CSD_CSHL.c ****         CapSense_CSD_debounceCounter[widget - (CapSense_CSD_END_OF_TOUCH_PAD_INDEX + 1)] =  CapSens
 172              		.loc 1 210 0
 173 005a FB7B     		ldrb	r3, [r7, #15]	@ zero_extendqisi2
 174 005c 03F1FF32 		add	r2, r3, #-1
 175 0060 F97B     		ldrb	r1, [r7, #15]	@ zero_extendqisi2
 176 0062 40F20003 		movw	r3, #:lower16:CapSense_CSD_debounce
 177 0066 C0F20003 		movt	r3, #:upper16:CapSense_CSD_debounce
 178 006a 595C     		ldrb	r1, [r3, r1]	@ zero_extendqisi2
 179 006c 40F20003 		movw	r3, #:lower16:CapSense_CSD_debounceCounter
 180 0070 C0F20003 		movt	r3, #:upper16:CapSense_CSD_debounceCounter
ARM GAS  C:\Users\yguan5\AppData\Local\Temp\ccX3ogeL.s 			page 8


 181 0074 9954     		strb	r1, [r3, r2]
 182              	.L3:
 211:.\Generated_Source\PSoC5/CapSense_CSD_CSHL.c ****     }
 212:.\Generated_Source\PSoC5/CapSense_CSD_CSHL.c **** 
 213:.\Generated_Source\PSoC5/CapSense_CSD_CSHL.c ****     
 214:.\Generated_Source\PSoC5/CapSense_CSD_CSHL.c ****     #if ((CapSense_CSD_RAW_FILTER_MASK & CapSense_CSD_MEDIAN_FILTER) ||\
 215:.\Generated_Source\PSoC5/CapSense_CSD_CSHL.c ****          (CapSense_CSD_RAW_FILTER_MASK & CapSense_CSD_AVERAGING_FILTER))
 216:.\Generated_Source\PSoC5/CapSense_CSD_CSHL.c **** 
 217:.\Generated_Source\PSoC5/CapSense_CSD_CSHL.c ****         CapSense_CSD_rawFilterData1[sensor] = CapSense_CSD_SensorRaw[sensor];
 218:.\Generated_Source\PSoC5/CapSense_CSD_CSHL.c ****         CapSense_CSD_rawFilterData2[sensor] = CapSense_CSD_SensorRaw[sensor];
 219:.\Generated_Source\PSoC5/CapSense_CSD_CSHL.c ****     
 220:.\Generated_Source\PSoC5/CapSense_CSD_CSHL.c ****     #elif ((CapSense_CSD_RAW_FILTER_MASK & CapSense_CSD_IIR2_FILTER) ||\
 221:.\Generated_Source\PSoC5/CapSense_CSD_CSHL.c ****            (CapSense_CSD_RAW_FILTER_MASK & CapSense_CSD_IIR4_FILTER) ||\
 222:.\Generated_Source\PSoC5/CapSense_CSD_CSHL.c ****            (CapSense_CSD_RAW_FILTER_MASK & CapSense_CSD_JITTER_FILTER) ||\
 223:.\Generated_Source\PSoC5/CapSense_CSD_CSHL.c ****            (CapSense_CSD_RAW_FILTER_MASK & CapSense_CSD_IIR8_FILTER) ||\
 224:.\Generated_Source\PSoC5/CapSense_CSD_CSHL.c ****            (CapSense_CSD_RAW_FILTER_MASK & CapSense_CSD_IIR16_FILTER))
 225:.\Generated_Source\PSoC5/CapSense_CSD_CSHL.c ****             
 226:.\Generated_Source\PSoC5/CapSense_CSD_CSHL.c ****         CapSense_CSD_rawFilterData1[sensor] = CapSense_CSD_SensorRaw[sensor];
 227:.\Generated_Source\PSoC5/CapSense_CSD_CSHL.c ****     
 228:.\Generated_Source\PSoC5/CapSense_CSD_CSHL.c ****     #else
 229:.\Generated_Source\PSoC5/CapSense_CSD_CSHL.c ****         /* No Raw filters */
 230:.\Generated_Source\PSoC5/CapSense_CSD_CSHL.c ****     #endif  /* ((CapSense_CSD_RAW_FILTER_MASK & CapSense_CSD_MEDIAN_FILTER) || \
 231:.\Generated_Source\PSoC5/CapSense_CSD_CSHL.c ****             *   (CapSense_CSD_RAW_FILTER_MASK & CapSense_CSD_AVERAGING_FILTER))
 232:.\Generated_Source\PSoC5/CapSense_CSD_CSHL.c ****             */
 233:.\Generated_Source\PSoC5/CapSense_CSD_CSHL.c ****     
 234:.\Generated_Source\PSoC5/CapSense_CSD_CSHL.c ****     #if (CapSense_CSD_TOTAL_GENERICS_COUNT)
 235:.\Generated_Source\PSoC5/CapSense_CSD_CSHL.c ****         /* Exclude generic widget */
 236:.\Generated_Source\PSoC5/CapSense_CSD_CSHL.c ****         }
 237:.\Generated_Source\PSoC5/CapSense_CSD_CSHL.c ****     #endif  /* CapSense_CSD_TOTAL_GENERICS_COUNT */
 238:.\Generated_Source\PSoC5/CapSense_CSD_CSHL.c **** }
 183              		.loc 1 238 0
 184 0076 07F11407 		add	r7, r7, #20
 185 007a BD46     		mov	sp, r7
 186 007c 80BC     		pop	{r7}
 187 007e 7047     		bx	lr
 188              		.cfi_endproc
 189              	.LFE0:
 190              		.size	CapSense_CSD_BaseInit, .-CapSense_CSD_BaseInit
 191              		.section	.text.CapSense_CSD_InitializeSensorBaseline,"ax",%progbits
 192              		.align	2
 193              		.global	CapSense_CSD_InitializeSensorBaseline
 194              		.thumb
 195              		.thumb_func
 196              		.type	CapSense_CSD_InitializeSensorBaseline, %function
 197              	CapSense_CSD_InitializeSensorBaseline:
 198              	.LFB1:
 239:.\Generated_Source\PSoC5/CapSense_CSD_CSHL.c **** 
 240:.\Generated_Source\PSoC5/CapSense_CSD_CSHL.c **** 
 241:.\Generated_Source\PSoC5/CapSense_CSD_CSHL.c **** /*******************************************************************************
 242:.\Generated_Source\PSoC5/CapSense_CSD_CSHL.c **** * Function Name: CapSense_CSD_InitializeSensorBaseline
 243:.\Generated_Source\PSoC5/CapSense_CSD_CSHL.c **** ********************************************************************************
 244:.\Generated_Source\PSoC5/CapSense_CSD_CSHL.c **** *
 245:.\Generated_Source\PSoC5/CapSense_CSD_CSHL.c **** * Summary:
 246:.\Generated_Source\PSoC5/CapSense_CSD_CSHL.c **** *  Loads the CapSense_CSD_SensorBaseline[sensor] array element with an 
 247:.\Generated_Source\PSoC5/CapSense_CSD_CSHL.c **** *  initial value by scanning the selected sensor (one channel design) or pair 
 248:.\Generated_Source\PSoC5/CapSense_CSD_CSHL.c **** *  of sensors (two channels designs). The raw count value is copied into the 
 249:.\Generated_Source\PSoC5/CapSense_CSD_CSHL.c **** *  baseline array for each sensor. The raw data filters are initialized if 
ARM GAS  C:\Users\yguan5\AppData\Local\Temp\ccX3ogeL.s 			page 9


 250:.\Generated_Source\PSoC5/CapSense_CSD_CSHL.c **** *  enabled.
 251:.\Generated_Source\PSoC5/CapSense_CSD_CSHL.c **** *
 252:.\Generated_Source\PSoC5/CapSense_CSD_CSHL.c **** * Parameters:
 253:.\Generated_Source\PSoC5/CapSense_CSD_CSHL.c **** *  sensor:  Sensor number.
 254:.\Generated_Source\PSoC5/CapSense_CSD_CSHL.c **** *
 255:.\Generated_Source\PSoC5/CapSense_CSD_CSHL.c **** * Return:
 256:.\Generated_Source\PSoC5/CapSense_CSD_CSHL.c **** *  None
 257:.\Generated_Source\PSoC5/CapSense_CSD_CSHL.c **** *
 258:.\Generated_Source\PSoC5/CapSense_CSD_CSHL.c **** * Reentrant:
 259:.\Generated_Source\PSoC5/CapSense_CSD_CSHL.c **** *  No
 260:.\Generated_Source\PSoC5/CapSense_CSD_CSHL.c **** *
 261:.\Generated_Source\PSoC5/CapSense_CSD_CSHL.c **** *******************************************************************************/
 262:.\Generated_Source\PSoC5/CapSense_CSD_CSHL.c **** void CapSense_CSD_InitializeSensorBaseline(uint8 sensor)
 263:.\Generated_Source\PSoC5/CapSense_CSD_CSHL.c ****                           
 264:.\Generated_Source\PSoC5/CapSense_CSD_CSHL.c **** {
 199              		.loc 1 264 0
 200              		.cfi_startproc
 201              		@ args = 0, pretend = 0, frame = 8
 202              		@ frame_needed = 1, uses_anonymous_args = 0
 203 0000 80B5     		push	{r7, lr}
 204              	.LCFI3:
 205              		.cfi_def_cfa_offset 8
 206 0002 82B0     		sub	sp, sp, #8
 207              	.LCFI4:
 208              		.cfi_def_cfa_offset 16
 209 0004 00AF     		add	r7, sp, #0
 210              		.cfi_offset 14, -4
 211              		.cfi_offset 7, -8
 212              	.LCFI5:
 213              		.cfi_def_cfa_register 7
 214 0006 0346     		mov	r3, r0
 215 0008 FB71     		strb	r3, [r7, #7]
 265:.\Generated_Source\PSoC5/CapSense_CSD_CSHL.c ****     /* Scan sensor */
 266:.\Generated_Source\PSoC5/CapSense_CSD_CSHL.c ****     CapSense_CSD_ScanSensor(sensor);
 216              		.loc 1 266 0
 217 000a FB79     		ldrb	r3, [r7, #7]	@ zero_extendqisi2
 218 000c 1846     		mov	r0, r3
 219 000e FFF7FEFF 		bl	CapSense_CSD_ScanSensor
 220              	.L5:
 267:.\Generated_Source\PSoC5/CapSense_CSD_CSHL.c ****     while(CapSense_CSD_IsBusy() != 0u) {;}
 221              		.loc 1 267 0
 222 0012 FFF7FEFF 		bl	CapSense_CSD_IsBusy
 223 0016 0346     		mov	r3, r0
 224 0018 002B     		cmp	r3, #0
 225 001a FAD1     		bne	.L5
 268:.\Generated_Source\PSoC5/CapSense_CSD_CSHL.c ****     
 269:.\Generated_Source\PSoC5/CapSense_CSD_CSHL.c ****     #if (CapSense_CSD_DESIGN_TYPE == CapSense_CSD_ONE_CHANNEL_DESIGN)
 270:.\Generated_Source\PSoC5/CapSense_CSD_CSHL.c ****         /* Initialize Baseline, Signal and debounce counters */       
 271:.\Generated_Source\PSoC5/CapSense_CSD_CSHL.c ****         CapSense_CSD_BaseInit(sensor);
 226              		.loc 1 271 0
 227 001c FB79     		ldrb	r3, [r7, #7]	@ zero_extendqisi2
 228 001e 1846     		mov	r0, r3
 229 0020 FFF7FEFF 		bl	CapSense_CSD_BaseInit
 272:.\Generated_Source\PSoC5/CapSense_CSD_CSHL.c ****         
 273:.\Generated_Source\PSoC5/CapSense_CSD_CSHL.c ****     #else
 274:.\Generated_Source\PSoC5/CapSense_CSD_CSHL.c ****     
 275:.\Generated_Source\PSoC5/CapSense_CSD_CSHL.c ****         if(sensor < CapSense_CSD_TOTAL_SENSOR_COUNT__CH0)
ARM GAS  C:\Users\yguan5\AppData\Local\Temp\ccX3ogeL.s 			page 10


 276:.\Generated_Source\PSoC5/CapSense_CSD_CSHL.c ****         {
 277:.\Generated_Source\PSoC5/CapSense_CSD_CSHL.c ****             /* Initialize Baseline, Signal and debounce counters */ 
 278:.\Generated_Source\PSoC5/CapSense_CSD_CSHL.c ****             CapSense_CSD_BaseInit(sensor);
 279:.\Generated_Source\PSoC5/CapSense_CSD_CSHL.c ****         }
 280:.\Generated_Source\PSoC5/CapSense_CSD_CSHL.c ****         
 281:.\Generated_Source\PSoC5/CapSense_CSD_CSHL.c ****         if(sensor < CapSense_CSD_TOTAL_SENSOR_COUNT__CH1)
 282:.\Generated_Source\PSoC5/CapSense_CSD_CSHL.c ****         {
 283:.\Generated_Source\PSoC5/CapSense_CSD_CSHL.c ****             /* Initialize Baseline, Signal and debounce counters */
 284:.\Generated_Source\PSoC5/CapSense_CSD_CSHL.c ****             CapSense_CSD_BaseInit(sensor + CapSense_CSD_TOTAL_SENSOR_COUNT__CH0);
 285:.\Generated_Source\PSoC5/CapSense_CSD_CSHL.c ****         }
 286:.\Generated_Source\PSoC5/CapSense_CSD_CSHL.c ****     
 287:.\Generated_Source\PSoC5/CapSense_CSD_CSHL.c ****     #endif  /* (CapSense_CSD_DESIGN_TYPE == CapSense_CSD_ONE_CHANNEL_DESIGN) */
 288:.\Generated_Source\PSoC5/CapSense_CSD_CSHL.c **** }
 230              		.loc 1 288 0
 231 0024 07F10807 		add	r7, r7, #8
 232 0028 BD46     		mov	sp, r7
 233 002a 80BD     		pop	{r7, pc}
 234              		.cfi_endproc
 235              	.LFE1:
 236              		.size	CapSense_CSD_InitializeSensorBaseline, .-CapSense_CSD_InitializeSensorBaseline
 237              		.section	.text.CapSense_CSD_InitializeAllBaselines,"ax",%progbits
 238              		.align	2
 239              		.global	CapSense_CSD_InitializeAllBaselines
 240              		.thumb
 241              		.thumb_func
 242              		.type	CapSense_CSD_InitializeAllBaselines, %function
 243              	CapSense_CSD_InitializeAllBaselines:
 244              	.LFB2:
 289:.\Generated_Source\PSoC5/CapSense_CSD_CSHL.c **** 
 290:.\Generated_Source\PSoC5/CapSense_CSD_CSHL.c **** 
 291:.\Generated_Source\PSoC5/CapSense_CSD_CSHL.c **** /*******************************************************************************
 292:.\Generated_Source\PSoC5/CapSense_CSD_CSHL.c **** * Function Name: CapSense_CSD_InitializeAllBaselines
 293:.\Generated_Source\PSoC5/CapSense_CSD_CSHL.c **** ********************************************************************************
 294:.\Generated_Source\PSoC5/CapSense_CSD_CSHL.c **** *
 295:.\Generated_Source\PSoC5/CapSense_CSD_CSHL.c **** * Summary:
 296:.\Generated_Source\PSoC5/CapSense_CSD_CSHL.c **** *  Uses the CapSense_CSD_InitializeSensorBaseline function to loads the 
 297:.\Generated_Source\PSoC5/CapSense_CSD_CSHL.c **** *  CapSense_CSD_SensorBaseline[] array with an initial values by scanning 
 298:.\Generated_Source\PSoC5/CapSense_CSD_CSHL.c **** *  all sensors. The raw count values are copied into the baseline array for 
 299:.\Generated_Source\PSoC5/CapSense_CSD_CSHL.c **** *  all sensors. The raw data filters are initialized if enabled.
 300:.\Generated_Source\PSoC5/CapSense_CSD_CSHL.c **** *
 301:.\Generated_Source\PSoC5/CapSense_CSD_CSHL.c **** * Parameters:
 302:.\Generated_Source\PSoC5/CapSense_CSD_CSHL.c **** *  None
 303:.\Generated_Source\PSoC5/CapSense_CSD_CSHL.c **** *
 304:.\Generated_Source\PSoC5/CapSense_CSD_CSHL.c **** * Return:
 305:.\Generated_Source\PSoC5/CapSense_CSD_CSHL.c **** *  None
 306:.\Generated_Source\PSoC5/CapSense_CSD_CSHL.c **** *
 307:.\Generated_Source\PSoC5/CapSense_CSD_CSHL.c **** * Reentrant:
 308:.\Generated_Source\PSoC5/CapSense_CSD_CSHL.c **** *  No
 309:.\Generated_Source\PSoC5/CapSense_CSD_CSHL.c **** *
 310:.\Generated_Source\PSoC5/CapSense_CSD_CSHL.c **** *******************************************************************************/
 311:.\Generated_Source\PSoC5/CapSense_CSD_CSHL.c **** void CapSense_CSD_InitializeAllBaselines(void)
 312:.\Generated_Source\PSoC5/CapSense_CSD_CSHL.c ****                           
 313:.\Generated_Source\PSoC5/CapSense_CSD_CSHL.c **** {
 245              		.loc 1 313 0
 246              		.cfi_startproc
 247              		@ args = 0, pretend = 0, frame = 8
 248              		@ frame_needed = 1, uses_anonymous_args = 0
ARM GAS  C:\Users\yguan5\AppData\Local\Temp\ccX3ogeL.s 			page 11


 249 0000 80B5     		push	{r7, lr}
 250              	.LCFI6:
 251              		.cfi_def_cfa_offset 8
 252 0002 82B0     		sub	sp, sp, #8
 253              	.LCFI7:
 254              		.cfi_def_cfa_offset 16
 255 0004 00AF     		add	r7, sp, #0
 256              		.cfi_offset 14, -4
 257              		.cfi_offset 7, -8
 258              	.LCFI8:
 259              		.cfi_def_cfa_register 7
 314:.\Generated_Source\PSoC5/CapSense_CSD_CSHL.c ****     uint8 i;
 315:.\Generated_Source\PSoC5/CapSense_CSD_CSHL.c ****     
 316:.\Generated_Source\PSoC5/CapSense_CSD_CSHL.c ****     /* The baseline initialize by sensor of sensor pair */
 317:.\Generated_Source\PSoC5/CapSense_CSD_CSHL.c ****     for(i = 0u; i < CapSense_CSD_TOTAL_SCANSLOT_COUNT; i++)
 260              		.loc 1 317 0
 261 0006 4FF00003 		mov	r3, #0
 262 000a FB71     		strb	r3, [r7, #7]
 263 000c 07E0     		b	.L8
 264              	.L9:
 318:.\Generated_Source\PSoC5/CapSense_CSD_CSHL.c ****     {
 319:.\Generated_Source\PSoC5/CapSense_CSD_CSHL.c ****         CapSense_CSD_InitializeSensorBaseline(i);
 265              		.loc 1 319 0
 266 000e FB79     		ldrb	r3, [r7, #7]	@ zero_extendqisi2
 267 0010 1846     		mov	r0, r3
 268 0012 FFF7FEFF 		bl	CapSense_CSD_InitializeSensorBaseline
 269              		.loc 1 317 0
 270 0016 FB79     		ldrb	r3, [r7, #7]
 271 0018 03F10103 		add	r3, r3, #1
 272 001c FB71     		strb	r3, [r7, #7]
 273              	.L8:
 274 001e FB79     		ldrb	r3, [r7, #7]	@ zero_extendqisi2
 275 0020 062B     		cmp	r3, #6
 276 0022 F4D9     		bls	.L9
 320:.\Generated_Source\PSoC5/CapSense_CSD_CSHL.c ****     }
 321:.\Generated_Source\PSoC5/CapSense_CSD_CSHL.c **** }
 277              		.loc 1 321 0
 278 0024 07F10807 		add	r7, r7, #8
 279 0028 BD46     		mov	sp, r7
 280 002a 80BD     		pop	{r7, pc}
 281              		.cfi_endproc
 282              	.LFE2:
 283              		.size	CapSense_CSD_InitializeAllBaselines, .-CapSense_CSD_InitializeAllBaselines
 284              		.section	.text.CapSense_CSD_InitializeEnabledBaselines,"ax",%progbits
 285              		.align	2
 286              		.global	CapSense_CSD_InitializeEnabledBaselines
 287              		.thumb
 288              		.thumb_func
 289              		.type	CapSense_CSD_InitializeEnabledBaselines, %function
 290              	CapSense_CSD_InitializeEnabledBaselines:
 291              	.LFB3:
 322:.\Generated_Source\PSoC5/CapSense_CSD_CSHL.c **** 
 323:.\Generated_Source\PSoC5/CapSense_CSD_CSHL.c **** 
 324:.\Generated_Source\PSoC5/CapSense_CSD_CSHL.c **** /*******************************************************************************
 325:.\Generated_Source\PSoC5/CapSense_CSD_CSHL.c **** * Function Name: CapSense_CSD_InitializeEnabledBaselines
 326:.\Generated_Source\PSoC5/CapSense_CSD_CSHL.c **** ********************************************************************************
 327:.\Generated_Source\PSoC5/CapSense_CSD_CSHL.c **** *
ARM GAS  C:\Users\yguan5\AppData\Local\Temp\ccX3ogeL.s 			page 12


 328:.\Generated_Source\PSoC5/CapSense_CSD_CSHL.c **** * Summary:
 329:.\Generated_Source\PSoC5/CapSense_CSD_CSHL.c **** *  Scans all enabled widgets and the raw count values are copied into the 
 330:.\Generated_Source\PSoC5/CapSense_CSD_CSHL.c **** *  baseline array for all sensors enabled in scanning process. Baselines 
 331:.\Generated_Source\PSoC5/CapSense_CSD_CSHL.c **** *  initialize with zero values for sensors disabled from scanning process. 
 332:.\Generated_Source\PSoC5/CapSense_CSD_CSHL.c **** *  The raw data filters are initialized if enabled.
 333:.\Generated_Source\PSoC5/CapSense_CSD_CSHL.c **** *
 334:.\Generated_Source\PSoC5/CapSense_CSD_CSHL.c **** * Parameters:
 335:.\Generated_Source\PSoC5/CapSense_CSD_CSHL.c **** *  None
 336:.\Generated_Source\PSoC5/CapSense_CSD_CSHL.c **** *
 337:.\Generated_Source\PSoC5/CapSense_CSD_CSHL.c **** * Return:
 338:.\Generated_Source\PSoC5/CapSense_CSD_CSHL.c **** *  None
 339:.\Generated_Source\PSoC5/CapSense_CSD_CSHL.c **** *
 340:.\Generated_Source\PSoC5/CapSense_CSD_CSHL.c **** * Reentrant:
 341:.\Generated_Source\PSoC5/CapSense_CSD_CSHL.c **** *  No
 342:.\Generated_Source\PSoC5/CapSense_CSD_CSHL.c **** *
 343:.\Generated_Source\PSoC5/CapSense_CSD_CSHL.c **** *******************************************************************************/
 344:.\Generated_Source\PSoC5/CapSense_CSD_CSHL.c **** void CapSense_CSD_InitializeEnabledBaselines(void)
 345:.\Generated_Source\PSoC5/CapSense_CSD_CSHL.c ****                              
 346:.\Generated_Source\PSoC5/CapSense_CSD_CSHL.c **** {
 292              		.loc 1 346 0
 293              		.cfi_startproc
 294              		@ args = 0, pretend = 0, frame = 8
 295              		@ frame_needed = 1, uses_anonymous_args = 0
 296 0000 80B5     		push	{r7, lr}
 297              	.LCFI9:
 298              		.cfi_def_cfa_offset 8
 299 0002 82B0     		sub	sp, sp, #8
 300              	.LCFI10:
 301              		.cfi_def_cfa_offset 16
 302 0004 00AF     		add	r7, sp, #0
 303              		.cfi_offset 14, -4
 304              		.cfi_offset 7, -8
 305              	.LCFI11:
 306              		.cfi_def_cfa_register 7
 347:.\Generated_Source\PSoC5/CapSense_CSD_CSHL.c ****     uint8 i;
 348:.\Generated_Source\PSoC5/CapSense_CSD_CSHL.c ****     uint8 pos;
 349:.\Generated_Source\PSoC5/CapSense_CSD_CSHL.c ****     uint8 enMask;
 350:.\Generated_Source\PSoC5/CapSense_CSD_CSHL.c ****     
 351:.\Generated_Source\PSoC5/CapSense_CSD_CSHL.c ****     CapSense_CSD_ScanEnabledWidgets();
 307              		.loc 1 351 0
 308 0006 FFF7FEFF 		bl	CapSense_CSD_ScanEnabledWidgets
 309              	.L12:
 352:.\Generated_Source\PSoC5/CapSense_CSD_CSHL.c ****     while(CapSense_CSD_IsBusy() != 0u){;}
 310              		.loc 1 352 0
 311 000a FFF7FEFF 		bl	CapSense_CSD_IsBusy
 312 000e 0346     		mov	r3, r0
 313 0010 002B     		cmp	r3, #0
 314 0012 FAD1     		bne	.L12
 353:.\Generated_Source\PSoC5/CapSense_CSD_CSHL.c ****     
 354:.\Generated_Source\PSoC5/CapSense_CSD_CSHL.c ****     for(i = 0u; i < CapSense_CSD_TOTAL_SENSOR_COUNT; i++)
 315              		.loc 1 354 0
 316 0014 4FF00003 		mov	r3, #0
 317 0018 7B71     		strb	r3, [r7, #5]
 318 001a 28E0     		b	.L13
 319              	.L15:
 355:.\Generated_Source\PSoC5/CapSense_CSD_CSHL.c ****     {
 356:.\Generated_Source\PSoC5/CapSense_CSD_CSHL.c ****         pos = (i >> 3u);
ARM GAS  C:\Users\yguan5\AppData\Local\Temp\ccX3ogeL.s 			page 13


 320              		.loc 1 356 0
 321 001c 7B79     		ldrb	r3, [r7, #5]	@ zero_extendqisi2
 322 001e 4FEAD303 		lsr	r3, r3, #3
 323 0022 BB71     		strb	r3, [r7, #6]
 357:.\Generated_Source\PSoC5/CapSense_CSD_CSHL.c ****         enMask = 0x01u << (i & 0x07u);
 324              		.loc 1 357 0
 325 0024 7B79     		ldrb	r3, [r7, #5]	@ zero_extendqisi2
 326 0026 03F00703 		and	r3, r3, #7
 327 002a 4FF00102 		mov	r2, #1
 328 002e 02FA03F3 		lsl	r3, r2, r3
 329 0032 FB71     		strb	r3, [r7, #7]
 358:.\Generated_Source\PSoC5/CapSense_CSD_CSHL.c ****         
 359:.\Generated_Source\PSoC5/CapSense_CSD_CSHL.c ****         /* Clear raw data if sensor is disabled from scanning process */
 360:.\Generated_Source\PSoC5/CapSense_CSD_CSHL.c ****         if((CapSense_CSD_SensorEnableMask[pos] & enMask) == 0u)
 330              		.loc 1 360 0
 331 0034 BA79     		ldrb	r2, [r7, #6]	@ zero_extendqisi2
 332 0036 40F20003 		movw	r3, #:lower16:CapSense_CSD_SensorEnableMask
 333 003a C0F20003 		movt	r3, #:upper16:CapSense_CSD_SensorEnableMask
 334 003e 9A5C     		ldrb	r2, [r3, r2]	@ zero_extendqisi2
 335 0040 FB79     		ldrb	r3, [r7, #7]
 336 0042 02EA0303 		and	r3, r2, r3
 337 0046 DBB2     		uxtb	r3, r3
 338 0048 002B     		cmp	r3, #0
 339 004a 08D1     		bne	.L14
 361:.\Generated_Source\PSoC5/CapSense_CSD_CSHL.c ****         {
 362:.\Generated_Source\PSoC5/CapSense_CSD_CSHL.c ****             CapSense_CSD_SensorRaw[i] = 0u;
 340              		.loc 1 362 0
 341 004c 7A79     		ldrb	r2, [r7, #5]	@ zero_extendqisi2
 342 004e 40F20003 		movw	r3, #:lower16:CapSense_CSD_SensorRaw
 343 0052 C0F20003 		movt	r3, #:upper16:CapSense_CSD_SensorRaw
 344 0056 4FF00001 		mov	r1, #0
 345 005a 23F81210 		strh	r1, [r3, r2, lsl #1]	@ movhi
 346              	.L14:
 363:.\Generated_Source\PSoC5/CapSense_CSD_CSHL.c ****         }
 364:.\Generated_Source\PSoC5/CapSense_CSD_CSHL.c ****         
 365:.\Generated_Source\PSoC5/CapSense_CSD_CSHL.c ****         /* Initialize baselines */
 366:.\Generated_Source\PSoC5/CapSense_CSD_CSHL.c ****         CapSense_CSD_BaseInit(i);
 347              		.loc 1 366 0
 348 005e 7B79     		ldrb	r3, [r7, #5]	@ zero_extendqisi2
 349 0060 1846     		mov	r0, r3
 350 0062 FFF7FEFF 		bl	CapSense_CSD_BaseInit
 351              		.loc 1 354 0
 352 0066 7B79     		ldrb	r3, [r7, #5]
 353 0068 03F10103 		add	r3, r3, #1
 354 006c 7B71     		strb	r3, [r7, #5]
 355              	.L13:
 356 006e 7B79     		ldrb	r3, [r7, #5]	@ zero_extendqisi2
 357 0070 062B     		cmp	r3, #6
 358 0072 D3D9     		bls	.L15
 367:.\Generated_Source\PSoC5/CapSense_CSD_CSHL.c ****     }
 368:.\Generated_Source\PSoC5/CapSense_CSD_CSHL.c **** }  
 359              		.loc 1 368 0
 360 0074 07F10807 		add	r7, r7, #8
 361 0078 BD46     		mov	sp, r7
 362 007a 80BD     		pop	{r7, pc}
 363              		.cfi_endproc
 364              	.LFE3:
ARM GAS  C:\Users\yguan5\AppData\Local\Temp\ccX3ogeL.s 			page 14


 365              		.size	CapSense_CSD_InitializeEnabledBaselines, .-CapSense_CSD_InitializeEnabledBaselines
 366              		.section	.text.CapSense_CSD_UpdateSensorBaseline,"ax",%progbits
 367              		.align	2
 368              		.global	CapSense_CSD_UpdateSensorBaseline
 369              		.thumb
 370              		.thumb_func
 371              		.type	CapSense_CSD_UpdateSensorBaseline, %function
 372              	CapSense_CSD_UpdateSensorBaseline:
 373              	.LFB4:
 369:.\Generated_Source\PSoC5/CapSense_CSD_CSHL.c **** 
 370:.\Generated_Source\PSoC5/CapSense_CSD_CSHL.c **** 
 371:.\Generated_Source\PSoC5/CapSense_CSD_CSHL.c **** /*******************************************************************************
 372:.\Generated_Source\PSoC5/CapSense_CSD_CSHL.c **** * Function Name: CapSense_CSD_UpdateSensorBaseline
 373:.\Generated_Source\PSoC5/CapSense_CSD_CSHL.c **** ********************************************************************************
 374:.\Generated_Source\PSoC5/CapSense_CSD_CSHL.c **** *
 375:.\Generated_Source\PSoC5/CapSense_CSD_CSHL.c **** * Summary:
 376:.\Generated_Source\PSoC5/CapSense_CSD_CSHL.c **** *  Updates the CapSense_CSD_SensorBaseline[sensor] array element using the 
 377:.\Generated_Source\PSoC5/CapSense_CSD_CSHL.c **** *  LP filter with k = 256. The signal calculates the difference of count by 
 378:.\Generated_Source\PSoC5/CapSense_CSD_CSHL.c **** *  subtracting the previous baseline from the current raw count value and stores
 379:.\Generated_Source\PSoC5/CapSense_CSD_CSHL.c **** *  it in CapSense_CSD_SensorSignal[sensor]. 
 380:.\Generated_Source\PSoC5/CapSense_CSD_CSHL.c **** *  If auto reset option is enabled the baseline updated regards noise threshold. 
 381:.\Generated_Source\PSoC5/CapSense_CSD_CSHL.c **** *  If auto reset option is disabled the baseline stops updating if signal is 
 382:.\Generated_Source\PSoC5/CapSense_CSD_CSHL.c **** *  greater that zero and baseline loads with raw count value if signal is less 
 383:.\Generated_Source\PSoC5/CapSense_CSD_CSHL.c **** *  that noise threshold.
 384:.\Generated_Source\PSoC5/CapSense_CSD_CSHL.c **** *  Raw data filters are applied to the values if enabled before baseline 
 385:.\Generated_Source\PSoC5/CapSense_CSD_CSHL.c **** *  calculation.
 386:.\Generated_Source\PSoC5/CapSense_CSD_CSHL.c **** *
 387:.\Generated_Source\PSoC5/CapSense_CSD_CSHL.c **** * Parameters:
 388:.\Generated_Source\PSoC5/CapSense_CSD_CSHL.c **** *  sensor:  Sensor number.
 389:.\Generated_Source\PSoC5/CapSense_CSD_CSHL.c **** *
 390:.\Generated_Source\PSoC5/CapSense_CSD_CSHL.c **** * Return:
 391:.\Generated_Source\PSoC5/CapSense_CSD_CSHL.c **** *  None
 392:.\Generated_Source\PSoC5/CapSense_CSD_CSHL.c **** *
 393:.\Generated_Source\PSoC5/CapSense_CSD_CSHL.c **** * Global Variables:
 394:.\Generated_Source\PSoC5/CapSense_CSD_CSHL.c **** *  CapSense_CSD_SensorBaseline[]    - used to store baseline value.
 395:.\Generated_Source\PSoC5/CapSense_CSD_CSHL.c **** *  CapSense_CSD_SensorBaselineLow[] - used to store fraction byte of 
 396:.\Generated_Source\PSoC5/CapSense_CSD_CSHL.c **** *  baseline value.
 397:.\Generated_Source\PSoC5/CapSense_CSD_CSHL.c **** *  CapSense_CSD_SensorSignal[]      - used to store diffence between 
 398:.\Generated_Source\PSoC5/CapSense_CSD_CSHL.c **** *  current value of raw data and previous value of baseline.
 399:.\Generated_Source\PSoC5/CapSense_CSD_CSHL.c **** *  CapSense_CSD_rawFilterData1[]    - used to store previous sample of 
 400:.\Generated_Source\PSoC5/CapSense_CSD_CSHL.c **** *  any enabled raw data filter.
 401:.\Generated_Source\PSoC5/CapSense_CSD_CSHL.c **** *  CapSense_CSD_rawFilterData2[]    - used to store before previous sample
 402:.\Generated_Source\PSoC5/CapSense_CSD_CSHL.c **** *  of enabled raw data filter. Only required for median or average filters.
 403:.\Generated_Source\PSoC5/CapSense_CSD_CSHL.c **** *
 404:.\Generated_Source\PSoC5/CapSense_CSD_CSHL.c **** * Reentrant:
 405:.\Generated_Source\PSoC5/CapSense_CSD_CSHL.c **** *  No
 406:.\Generated_Source\PSoC5/CapSense_CSD_CSHL.c **** *
 407:.\Generated_Source\PSoC5/CapSense_CSD_CSHL.c **** *******************************************************************************/
 408:.\Generated_Source\PSoC5/CapSense_CSD_CSHL.c ****  void CapSense_CSD_UpdateSensorBaseline(uint8 sensor)
 409:.\Generated_Source\PSoC5/CapSense_CSD_CSHL.c ****                                  
 410:.\Generated_Source\PSoC5/CapSense_CSD_CSHL.c **** {
 374              		.loc 1 410 0
 375              		.cfi_startproc
 376              		@ args = 0, pretend = 0, frame = 24
 377              		@ frame_needed = 1, uses_anonymous_args = 0
 378 0000 80B5     		push	{r7, lr}
 379              	.LCFI12:
ARM GAS  C:\Users\yguan5\AppData\Local\Temp\ccX3ogeL.s 			page 15


 380              		.cfi_def_cfa_offset 8
 381 0002 86B0     		sub	sp, sp, #24
 382              	.LCFI13:
 383              		.cfi_def_cfa_offset 32
 384 0004 00AF     		add	r7, sp, #0
 385              		.cfi_offset 14, -4
 386              		.cfi_offset 7, -8
 387              	.LCFI14:
 388              		.cfi_def_cfa_register 7
 389 0006 0346     		mov	r3, r0
 390 0008 FB71     		strb	r3, [r7, #7]
 411:.\Generated_Source\PSoC5/CapSense_CSD_CSHL.c ****     uint32 calc;
 412:.\Generated_Source\PSoC5/CapSense_CSD_CSHL.c ****     uint16 tempRaw;
 413:.\Generated_Source\PSoC5/CapSense_CSD_CSHL.c ****     uint16 filteredRawData;
 414:.\Generated_Source\PSoC5/CapSense_CSD_CSHL.c ****     uint8 widget = CapSense_CSD_widgetNumber[sensor];
 391              		.loc 1 414 0
 392 000a FA79     		ldrb	r2, [r7, #7]	@ zero_extendqisi2
 393 000c 40F20003 		movw	r3, #:lower16:CapSense_CSD_widgetNumber
 394 0010 C0F20003 		movt	r3, #:upper16:CapSense_CSD_widgetNumber
 395 0014 9B5C     		ldrb	r3, [r3, r2]
 396 0016 BB75     		strb	r3, [r7, #22]
 415:.\Generated_Source\PSoC5/CapSense_CSD_CSHL.c ****     uint8 noiseThreshold = CapSense_CSD_noiseThreshold[widget];
 397              		.loc 1 415 0
 398 0018 BA7D     		ldrb	r2, [r7, #22]	@ zero_extendqisi2
 399 001a 40F20003 		movw	r3, #:lower16:CapSense_CSD_noiseThreshold
 400 001e C0F20003 		movt	r3, #:upper16:CapSense_CSD_noiseThreshold
 401 0022 9B5C     		ldrb	r3, [r3, r2]
 402 0024 FB75     		strb	r3, [r7, #23]
 416:.\Generated_Source\PSoC5/CapSense_CSD_CSHL.c ****     
 417:.\Generated_Source\PSoC5/CapSense_CSD_CSHL.c ****     #if (CapSense_CSD_TOTAL_GENERICS_COUNT)
 418:.\Generated_Source\PSoC5/CapSense_CSD_CSHL.c ****         /* Exclude generic widget */
 419:.\Generated_Source\PSoC5/CapSense_CSD_CSHL.c ****         if(widget < CapSense_CSD_END_OF_WIDGETS_INDEX)
 420:.\Generated_Source\PSoC5/CapSense_CSD_CSHL.c ****         {
 421:.\Generated_Source\PSoC5/CapSense_CSD_CSHL.c ****     #endif  /* CapSense_CSD_TOTAL_GENERICS_COUNT */
 422:.\Generated_Source\PSoC5/CapSense_CSD_CSHL.c ****     
 423:.\Generated_Source\PSoC5/CapSense_CSD_CSHL.c ****     filteredRawData = CapSense_CSD_SensorRaw[sensor];
 403              		.loc 1 423 0
 404 0026 FA79     		ldrb	r2, [r7, #7]	@ zero_extendqisi2
 405 0028 40F20003 		movw	r3, #:lower16:CapSense_CSD_SensorRaw
 406 002c C0F20003 		movt	r3, #:upper16:CapSense_CSD_SensorRaw
 407 0030 33F81230 		ldrh	r3, [r3, r2, lsl #1]	@ movhi
 408 0034 BB82     		strh	r3, [r7, #20]	@ movhi
 424:.\Generated_Source\PSoC5/CapSense_CSD_CSHL.c ****     
 425:.\Generated_Source\PSoC5/CapSense_CSD_CSHL.c ****     #if (CapSense_CSD_RAW_FILTER_MASK & CapSense_CSD_MEDIAN_FILTER)
 426:.\Generated_Source\PSoC5/CapSense_CSD_CSHL.c ****         tempRaw = filteredRawData;
 427:.\Generated_Source\PSoC5/CapSense_CSD_CSHL.c ****         filteredRawData = CapSense_CSD_MedianFilter(filteredRawData, CapSense_CSD_rawFilterData1[se
 428:.\Generated_Source\PSoC5/CapSense_CSD_CSHL.c ****                                                         CapSense_CSD_rawFilterData2[sensor]);
 429:.\Generated_Source\PSoC5/CapSense_CSD_CSHL.c ****         CapSense_CSD_rawFilterData2[sensor] = CapSense_CSD_rawFilterData1[sensor];
 430:.\Generated_Source\PSoC5/CapSense_CSD_CSHL.c ****         CapSense_CSD_rawFilterData1[sensor] = tempRaw;
 431:.\Generated_Source\PSoC5/CapSense_CSD_CSHL.c ****         
 432:.\Generated_Source\PSoC5/CapSense_CSD_CSHL.c ****     #elif (CapSense_CSD_RAW_FILTER_MASK & CapSense_CSD_AVERAGING_FILTER)
 433:.\Generated_Source\PSoC5/CapSense_CSD_CSHL.c ****         tempRaw = filteredRawData;
 434:.\Generated_Source\PSoC5/CapSense_CSD_CSHL.c ****         filteredRawData = CapSense_CSD_AveragingFilter(filteredRawData, CapSense_CSD_rawFilterData1
 435:.\Generated_Source\PSoC5/CapSense_CSD_CSHL.c ****                                                            CapSense_CSD_rawFilterData2[sensor]);
 436:.\Generated_Source\PSoC5/CapSense_CSD_CSHL.c ****         CapSense_CSD_rawFilterData2[sensor] = CapSense_CSD_rawFilterData1[sensor];
 437:.\Generated_Source\PSoC5/CapSense_CSD_CSHL.c ****         CapSense_CSD_rawFilterData1[sensor] = tempRaw;
 438:.\Generated_Source\PSoC5/CapSense_CSD_CSHL.c ****         
ARM GAS  C:\Users\yguan5\AppData\Local\Temp\ccX3ogeL.s 			page 16


 439:.\Generated_Source\PSoC5/CapSense_CSD_CSHL.c ****     #elif (CapSense_CSD_RAW_FILTER_MASK & CapSense_CSD_IIR2_FILTER)
 440:.\Generated_Source\PSoC5/CapSense_CSD_CSHL.c ****         filteredRawData = CapSense_CSD_IIR2Filter(filteredRawData, CapSense_CSD_rawFilterData1[sens
 441:.\Generated_Source\PSoC5/CapSense_CSD_CSHL.c ****         CapSense_CSD_rawFilterData1[sensor] = filteredRawData;
 442:.\Generated_Source\PSoC5/CapSense_CSD_CSHL.c ****         
 443:.\Generated_Source\PSoC5/CapSense_CSD_CSHL.c ****     #elif (CapSense_CSD_RAW_FILTER_MASK & CapSense_CSD_IIR4_FILTER)
 444:.\Generated_Source\PSoC5/CapSense_CSD_CSHL.c ****         filteredRawData = CapSense_CSD_IIR4Filter(filteredRawData, CapSense_CSD_rawFilterData1[sens
 445:.\Generated_Source\PSoC5/CapSense_CSD_CSHL.c ****         CapSense_CSD_rawFilterData1[sensor] = filteredRawData;
 446:.\Generated_Source\PSoC5/CapSense_CSD_CSHL.c ****             
 447:.\Generated_Source\PSoC5/CapSense_CSD_CSHL.c ****     #elif (CapSense_CSD_RAW_FILTER_MASK & CapSense_CSD_JITTER_FILTER)
 448:.\Generated_Source\PSoC5/CapSense_CSD_CSHL.c ****         filteredRawData = CapSense_CSD_JitterFilter(filteredRawData, CapSense_CSD_rawFilterData1[se
 449:.\Generated_Source\PSoC5/CapSense_CSD_CSHL.c ****         CapSense_CSD_rawFilterData1[sensor] = filteredRawData;
 450:.\Generated_Source\PSoC5/CapSense_CSD_CSHL.c ****         
 451:.\Generated_Source\PSoC5/CapSense_CSD_CSHL.c ****     #elif (CapSense_CSD_RAW_FILTER_MASK & CapSense_CSD_IIR8_FILTER)
 452:.\Generated_Source\PSoC5/CapSense_CSD_CSHL.c ****         filteredRawData = CapSense_CSD_IIR8Filter(filteredRawData, CapSense_CSD_rawFilterData1[sens
 453:.\Generated_Source\PSoC5/CapSense_CSD_CSHL.c ****         CapSense_CSD_rawFilterData1[sensor] = filteredRawData;
 454:.\Generated_Source\PSoC5/CapSense_CSD_CSHL.c ****         
 455:.\Generated_Source\PSoC5/CapSense_CSD_CSHL.c ****     #elif (CapSense_CSD_RAW_FILTER_MASK & CapSense_CSD_IIR16_FILTER)
 456:.\Generated_Source\PSoC5/CapSense_CSD_CSHL.c ****         filteredRawData = CapSense_CSD_IIR16Filter(filteredRawData, CapSense_CSD_rawFilterData1[sen
 457:.\Generated_Source\PSoC5/CapSense_CSD_CSHL.c ****         CapSense_CSD_rawFilterData1[sensor] = filteredRawData;
 458:.\Generated_Source\PSoC5/CapSense_CSD_CSHL.c ****         
 459:.\Generated_Source\PSoC5/CapSense_CSD_CSHL.c ****     #else
 460:.\Generated_Source\PSoC5/CapSense_CSD_CSHL.c ****         /* No Raw filters */
 461:.\Generated_Source\PSoC5/CapSense_CSD_CSHL.c ****     #endif  /* (CapSense_CSD_RAW_FILTER_MASK & CapSense_CSD_MEDIAN_FILTER) */
 462:.\Generated_Source\PSoC5/CapSense_CSD_CSHL.c ****     
 463:.\Generated_Source\PSoC5/CapSense_CSD_CSHL.c ****     #if (CapSense_CSD_TUNING_METHOD == CapSense_CSD_AUTO_TUNING)
 464:.\Generated_Source\PSoC5/CapSense_CSD_CSHL.c ****         CapSense_CSD_CalculateThresholds(sensor);
 465:.\Generated_Source\PSoC5/CapSense_CSD_CSHL.c ****     #endif /* (CapSense_CSD_TUNING_METHOD == CapSense_CSD_AUTO_TUNING) */
 466:.\Generated_Source\PSoC5/CapSense_CSD_CSHL.c **** 
 467:.\Generated_Source\PSoC5/CapSense_CSD_CSHL.c **** 
 468:.\Generated_Source\PSoC5/CapSense_CSD_CSHL.c ****     /* Baseline calculation */
 469:.\Generated_Source\PSoC5/CapSense_CSD_CSHL.c ****     /* Calculate difference RawData[cur] - Baseline[prev] */
 470:.\Generated_Source\PSoC5/CapSense_CSD_CSHL.c ****     if(filteredRawData >= CapSense_CSD_SensorBaseline[sensor])
 409              		.loc 1 470 0
 410 0036 FA79     		ldrb	r2, [r7, #7]	@ zero_extendqisi2
 411 0038 40F20003 		movw	r3, #:lower16:CapSense_CSD_SensorBaseline
 412 003c C0F20003 		movt	r3, #:upper16:CapSense_CSD_SensorBaseline
 413 0040 33F81230 		ldrh	r3, [r3, r2, lsl #1]
 414 0044 BA8A     		ldrh	r2, [r7, #20]
 415 0046 9A42     		cmp	r2, r3
 416 0048 0ED3     		bcc	.L18
 471:.\Generated_Source\PSoC5/CapSense_CSD_CSHL.c ****     {
 472:.\Generated_Source\PSoC5/CapSense_CSD_CSHL.c ****         tempRaw = filteredRawData - CapSense_CSD_SensorBaseline[sensor];
 417              		.loc 1 472 0
 418 004a FA79     		ldrb	r2, [r7, #7]	@ zero_extendqisi2
 419 004c 40F20003 		movw	r3, #:lower16:CapSense_CSD_SensorBaseline
 420 0050 C0F20003 		movt	r3, #:upper16:CapSense_CSD_SensorBaseline
 421 0054 33F81230 		ldrh	r3, [r3, r2, lsl #1]
 422 0058 BA8A     		ldrh	r2, [r7, #20]	@ movhi
 423 005a C3EB0203 		rsb	r3, r3, r2
 424 005e 7B82     		strh	r3, [r7, #18]	@ movhi
 473:.\Generated_Source\PSoC5/CapSense_CSD_CSHL.c ****         widget = 1u;    /* Positive difference - Calculate the Signal */
 425              		.loc 1 473 0
 426 0060 4FF00103 		mov	r3, #1
 427 0064 BB75     		strb	r3, [r7, #22]
 428 0066 0DE0     		b	.L19
 429              	.L18:
 474:.\Generated_Source\PSoC5/CapSense_CSD_CSHL.c ****     }
ARM GAS  C:\Users\yguan5\AppData\Local\Temp\ccX3ogeL.s 			page 17


 475:.\Generated_Source\PSoC5/CapSense_CSD_CSHL.c ****     else
 476:.\Generated_Source\PSoC5/CapSense_CSD_CSHL.c ****     {
 477:.\Generated_Source\PSoC5/CapSense_CSD_CSHL.c ****         tempRaw = CapSense_CSD_SensorBaseline[sensor] - filteredRawData;
 430              		.loc 1 477 0
 431 0068 FA79     		ldrb	r2, [r7, #7]	@ zero_extendqisi2
 432 006a 40F20003 		movw	r3, #:lower16:CapSense_CSD_SensorBaseline
 433 006e C0F20003 		movt	r3, #:upper16:CapSense_CSD_SensorBaseline
 434 0072 33F81220 		ldrh	r2, [r3, r2, lsl #1]
 435 0076 BB8A     		ldrh	r3, [r7, #20]	@ movhi
 436 0078 C3EB0203 		rsb	r3, r3, r2
 437 007c 7B82     		strh	r3, [r7, #18]	@ movhi
 478:.\Generated_Source\PSoC5/CapSense_CSD_CSHL.c ****         widget = 0u;    /* Negative difference - Do NOT calculate the Signal */
 438              		.loc 1 478 0
 439 007e 4FF00003 		mov	r3, #0
 440 0082 BB75     		strb	r3, [r7, #22]
 441              	.L19:
 479:.\Generated_Source\PSoC5/CapSense_CSD_CSHL.c ****     }
 480:.\Generated_Source\PSoC5/CapSense_CSD_CSHL.c **** 
 481:.\Generated_Source\PSoC5/CapSense_CSD_CSHL.c ****     if((widget == 0u) && (tempRaw > (uint16) CapSense_CSD_NEGATIVE_NOISE_THRESHOLD))
 442              		.loc 1 481 0
 443 0084 BB7D     		ldrb	r3, [r7, #22]	@ zero_extendqisi2
 444 0086 002B     		cmp	r3, #0
 445 0088 26D1     		bne	.L20
 446 008a 7B8A     		ldrh	r3, [r7, #18]
 447 008c 142B     		cmp	r3, #20
 448 008e 23D9     		bls	.L20
 482:.\Generated_Source\PSoC5/CapSense_CSD_CSHL.c ****     {
 483:.\Generated_Source\PSoC5/CapSense_CSD_CSHL.c ****         if(CapSense_CSD_LowBaselineResetCnt[sensor] >= CapSense_CSD_LOW_BASELINE_RESET)
 449              		.loc 1 483 0
 450 0090 FA79     		ldrb	r2, [r7, #7]	@ zero_extendqisi2
 451 0092 40F20003 		movw	r3, #:lower16:CapSense_CSD_LowBaselineResetCnt
 452 0096 C0F20003 		movt	r3, #:upper16:CapSense_CSD_LowBaselineResetCnt
 453 009a 9B5C     		ldrb	r3, [r3, r2]	@ zero_extendqisi2
 454 009c 042B     		cmp	r3, #4
 455 009e 0CD9     		bls	.L21
 484:.\Generated_Source\PSoC5/CapSense_CSD_CSHL.c ****         {
 485:.\Generated_Source\PSoC5/CapSense_CSD_CSHL.c ****             CapSense_CSD_BaseInit(sensor);
 456              		.loc 1 485 0
 457 00a0 FB79     		ldrb	r3, [r7, #7]	@ zero_extendqisi2
 458 00a2 1846     		mov	r0, r3
 459 00a4 FFF7FEFF 		bl	CapSense_CSD_BaseInit
 486:.\Generated_Source\PSoC5/CapSense_CSD_CSHL.c ****             CapSense_CSD_LowBaselineResetCnt[sensor] = 0;
 460              		.loc 1 486 0
 461 00a8 FA79     		ldrb	r2, [r7, #7]	@ zero_extendqisi2
 462 00aa 40F20003 		movw	r3, #:lower16:CapSense_CSD_LowBaselineResetCnt
 463 00ae C0F20003 		movt	r3, #:upper16:CapSense_CSD_LowBaselineResetCnt
 464 00b2 4FF00001 		mov	r1, #0
 465 00b6 9954     		strb	r1, [r3, r2]
 466              		.loc 1 481 0
 467 00b8 56E0     		b	.L23
 468              	.L21:
 487:.\Generated_Source\PSoC5/CapSense_CSD_CSHL.c ****         }
 488:.\Generated_Source\PSoC5/CapSense_CSD_CSHL.c ****         else
 489:.\Generated_Source\PSoC5/CapSense_CSD_CSHL.c ****         {
 490:.\Generated_Source\PSoC5/CapSense_CSD_CSHL.c ****             CapSense_CSD_LowBaselineResetCnt[sensor]++;
 469              		.loc 1 490 0
 470 00ba FA79     		ldrb	r2, [r7, #7]	@ zero_extendqisi2
ARM GAS  C:\Users\yguan5\AppData\Local\Temp\ccX3ogeL.s 			page 18


 471 00bc 40F20003 		movw	r3, #:lower16:CapSense_CSD_LowBaselineResetCnt
 472 00c0 C0F20003 		movt	r3, #:upper16:CapSense_CSD_LowBaselineResetCnt
 473 00c4 9B5C     		ldrb	r3, [r3, r2]	@ zero_extendqisi2
 474 00c6 03F10103 		add	r3, r3, #1
 475 00ca D9B2     		uxtb	r1, r3
 476 00cc 40F20003 		movw	r3, #:lower16:CapSense_CSD_LowBaselineResetCnt
 477 00d0 C0F20003 		movt	r3, #:upper16:CapSense_CSD_LowBaselineResetCnt
 478 00d4 9954     		strb	r1, [r3, r2]
 479              		.loc 1 481 0
 480 00d6 47E0     		b	.L23
 481              	.L20:
 491:.\Generated_Source\PSoC5/CapSense_CSD_CSHL.c ****         }
 492:.\Generated_Source\PSoC5/CapSense_CSD_CSHL.c ****     }
 493:.\Generated_Source\PSoC5/CapSense_CSD_CSHL.c ****     else
 494:.\Generated_Source\PSoC5/CapSense_CSD_CSHL.c ****     {
 495:.\Generated_Source\PSoC5/CapSense_CSD_CSHL.c ****         #if (CapSense_CSD_AUTO_RESET == CapSense_CSD_AUTO_RESET_DISABLE)
 496:.\Generated_Source\PSoC5/CapSense_CSD_CSHL.c ****             /* Update Baseline if lower that noiseThreshold */
 497:.\Generated_Source\PSoC5/CapSense_CSD_CSHL.c ****             if ( (tempRaw <= (uint16) noiseThreshold) || 
 482              		.loc 1 497 0
 483 00d8 FB7D     		ldrb	r3, [r7, #23]	@ zero_extendqisi2
 484 00da 7A8A     		ldrh	r2, [r7, #18]
 485 00dc 9A42     		cmp	r2, r3
 486 00de 05D9     		bls	.L24
 487 00e0 7B8A     		ldrh	r3, [r7, #18]
 488 00e2 132B     		cmp	r3, #19
 489 00e4 40D8     		bhi	.L23
 490 00e6 BB7D     		ldrb	r3, [r7, #22]	@ zero_extendqisi2
 491 00e8 002B     		cmp	r3, #0
 492 00ea 3DD1     		bne	.L23
 493              	.L24:
 498:.\Generated_Source\PSoC5/CapSense_CSD_CSHL.c ****                  ((tempRaw < (uint16) CapSense_CSD_NEGATIVE_NOISE_THRESHOLD)
 499:.\Generated_Source\PSoC5/CapSense_CSD_CSHL.c ****                    && widget == 0))
 500:.\Generated_Source\PSoC5/CapSense_CSD_CSHL.c ****             {
 501:.\Generated_Source\PSoC5/CapSense_CSD_CSHL.c ****         #endif /* (CapSense_CSD_AUTO_RESET == CapSense_CSD_AUTO_RESET_DISABLE) */
 502:.\Generated_Source\PSoC5/CapSense_CSD_CSHL.c ****                 /* Make full Baseline 23 bits */
 503:.\Generated_Source\PSoC5/CapSense_CSD_CSHL.c ****                 calc = (uint32) CapSense_CSD_SensorBaseline[sensor] << 8u;
 494              		.loc 1 503 0
 495 00ec FA79     		ldrb	r2, [r7, #7]	@ zero_extendqisi2
 496 00ee 40F20003 		movw	r3, #:lower16:CapSense_CSD_SensorBaseline
 497 00f2 C0F20003 		movt	r3, #:upper16:CapSense_CSD_SensorBaseline
 498 00f6 33F81230 		ldrh	r3, [r3, r2, lsl #1]
 499 00fa 4FEA0323 		lsl	r3, r3, #8
 500 00fe FB60     		str	r3, [r7, #12]
 504:.\Generated_Source\PSoC5/CapSense_CSD_CSHL.c ****                 calc |= (uint32) CapSense_CSD_SensorBaselineLow[sensor];
 501              		.loc 1 504 0
 502 0100 FA79     		ldrb	r2, [r7, #7]	@ zero_extendqisi2
 503 0102 40F20003 		movw	r3, #:lower16:CapSense_CSD_SensorBaselineLow
 504 0106 C0F20003 		movt	r3, #:upper16:CapSense_CSD_SensorBaselineLow
 505 010a 9B5C     		ldrb	r3, [r3, r2]	@ zero_extendqisi2
 506 010c FA68     		ldr	r2, [r7, #12]
 507 010e 42EA0303 		orr	r3, r2, r3
 508 0112 FB60     		str	r3, [r7, #12]
 505:.\Generated_Source\PSoC5/CapSense_CSD_CSHL.c **** 
 506:.\Generated_Source\PSoC5/CapSense_CSD_CSHL.c ****                 /* Add Raw Data to Baseline */
 507:.\Generated_Source\PSoC5/CapSense_CSD_CSHL.c ****                 calc += filteredRawData;
 509              		.loc 1 507 0
 510 0114 BB8A     		ldrh	r3, [r7, #20]
ARM GAS  C:\Users\yguan5\AppData\Local\Temp\ccX3ogeL.s 			page 19


 511 0116 FA68     		ldr	r2, [r7, #12]
 512 0118 1344     		add	r3, r2, r3
 513 011a FB60     		str	r3, [r7, #12]
 508:.\Generated_Source\PSoC5/CapSense_CSD_CSHL.c **** 
 509:.\Generated_Source\PSoC5/CapSense_CSD_CSHL.c ****                 /* Sub the high Baseline */
 510:.\Generated_Source\PSoC5/CapSense_CSD_CSHL.c ****                 calc -= CapSense_CSD_SensorBaseline[sensor];
 514              		.loc 1 510 0
 515 011c FA79     		ldrb	r2, [r7, #7]	@ zero_extendqisi2
 516 011e 40F20003 		movw	r3, #:lower16:CapSense_CSD_SensorBaseline
 517 0122 C0F20003 		movt	r3, #:upper16:CapSense_CSD_SensorBaseline
 518 0126 33F81230 		ldrh	r3, [r3, r2, lsl #1]
 519 012a FA68     		ldr	r2, [r7, #12]
 520 012c C3EB0203 		rsb	r3, r3, r2
 521 0130 FB60     		str	r3, [r7, #12]
 511:.\Generated_Source\PSoC5/CapSense_CSD_CSHL.c **** 
 512:.\Generated_Source\PSoC5/CapSense_CSD_CSHL.c ****                 /* Put Baseline and BaselineLow */
 513:.\Generated_Source\PSoC5/CapSense_CSD_CSHL.c ****                 CapSense_CSD_SensorBaseline[sensor] = ((uint16) (calc >> 8u));
 522              		.loc 1 513 0
 523 0132 FA79     		ldrb	r2, [r7, #7]	@ zero_extendqisi2
 524 0134 FB68     		ldr	r3, [r7, #12]
 525 0136 4FEA1323 		lsr	r3, r3, #8
 526 013a 99B2     		uxth	r1, r3
 527 013c 40F20003 		movw	r3, #:lower16:CapSense_CSD_SensorBaseline
 528 0140 C0F20003 		movt	r3, #:upper16:CapSense_CSD_SensorBaseline
 529 0144 23F81210 		strh	r1, [r3, r2, lsl #1]	@ movhi
 514:.\Generated_Source\PSoC5/CapSense_CSD_CSHL.c ****                 CapSense_CSD_SensorBaselineLow[sensor] = ((uint8) calc);
 530              		.loc 1 514 0
 531 0148 FA79     		ldrb	r2, [r7, #7]	@ zero_extendqisi2
 532 014a FB68     		ldr	r3, [r7, #12]
 533 014c D9B2     		uxtb	r1, r3
 534 014e 40F20003 		movw	r3, #:lower16:CapSense_CSD_SensorBaselineLow
 535 0152 C0F20003 		movt	r3, #:upper16:CapSense_CSD_SensorBaselineLow
 536 0156 9954     		strb	r1, [r3, r2]
 515:.\Generated_Source\PSoC5/CapSense_CSD_CSHL.c **** 
 516:.\Generated_Source\PSoC5/CapSense_CSD_CSHL.c ****                 CapSense_CSD_LowBaselineResetCnt[sensor] = 0;
 537              		.loc 1 516 0
 538 0158 FA79     		ldrb	r2, [r7, #7]	@ zero_extendqisi2
 539 015a 40F20003 		movw	r3, #:lower16:CapSense_CSD_LowBaselineResetCnt
 540 015e C0F20003 		movt	r3, #:upper16:CapSense_CSD_LowBaselineResetCnt
 541 0162 4FF00001 		mov	r1, #0
 542 0166 9954     		strb	r1, [r3, r2]
 543              	.L23:
 517:.\Generated_Source\PSoC5/CapSense_CSD_CSHL.c ****         #if (CapSense_CSD_AUTO_RESET == CapSense_CSD_AUTO_RESET_DISABLE)
 518:.\Generated_Source\PSoC5/CapSense_CSD_CSHL.c ****             }
 519:.\Generated_Source\PSoC5/CapSense_CSD_CSHL.c ****         #endif /* (CapSense_CSD_AUTO_RESET == CapSense_CSD_AUTO_RESET_DISABLE) */
 520:.\Generated_Source\PSoC5/CapSense_CSD_CSHL.c ****     }
 521:.\Generated_Source\PSoC5/CapSense_CSD_CSHL.c **** 
 522:.\Generated_Source\PSoC5/CapSense_CSD_CSHL.c ****     /* Calculate Signal if possitive difference > noiseThreshold */
 523:.\Generated_Source\PSoC5/CapSense_CSD_CSHL.c ****     if((tempRaw > (uint16) noiseThreshold) && (widget != 0u))
 544              		.loc 1 523 0
 545 0168 FB7D     		ldrb	r3, [r7, #23]	@ zero_extendqisi2
 546 016a 7A8A     		ldrh	r2, [r7, #18]
 547 016c 9A42     		cmp	r2, r3
 548 016e 17D9     		bls	.L25
 549 0170 BB7D     		ldrb	r3, [r7, #22]	@ zero_extendqisi2
 550 0172 002B     		cmp	r3, #0
 551 0174 14D0     		beq	.L25
ARM GAS  C:\Users\yguan5\AppData\Local\Temp\ccX3ogeL.s 			page 20


 524:.\Generated_Source\PSoC5/CapSense_CSD_CSHL.c ****     {
 525:.\Generated_Source\PSoC5/CapSense_CSD_CSHL.c ****         #if (CapSense_CSD_SIGNAL_SIZE == CapSense_CSD_SIGNAL_SIZE_UINT8)
 526:.\Generated_Source\PSoC5/CapSense_CSD_CSHL.c ****             /* Over flow defence for uint8 */
 527:.\Generated_Source\PSoC5/CapSense_CSD_CSHL.c ****             if (tempRaw > 0xFFu)
 552              		.loc 1 527 0
 553 0176 7B8A     		ldrh	r3, [r7, #18]
 554 0178 FF2B     		cmp	r3, #255
 555 017a 08D9     		bls	.L26
 528:.\Generated_Source\PSoC5/CapSense_CSD_CSHL.c ****             {
 529:.\Generated_Source\PSoC5/CapSense_CSD_CSHL.c ****                 CapSense_CSD_SensorSignal[sensor] = 0xFFu;
 556              		.loc 1 529 0
 557 017c FA79     		ldrb	r2, [r7, #7]	@ zero_extendqisi2
 558 017e 40F20003 		movw	r3, #:lower16:CapSense_CSD_SensorSignal
 559 0182 C0F20003 		movt	r3, #:upper16:CapSense_CSD_SensorSignal
 560 0186 4FF0FF31 		mov	r1, #-1
 561 018a 9954     		strb	r1, [r3, r2]
 562              		.loc 1 523 0
 563 018c 10E0     		b	.L29
 564              	.L26:
 530:.\Generated_Source\PSoC5/CapSense_CSD_CSHL.c ****             }    
 531:.\Generated_Source\PSoC5/CapSense_CSD_CSHL.c ****             else 
 532:.\Generated_Source\PSoC5/CapSense_CSD_CSHL.c ****             {
 533:.\Generated_Source\PSoC5/CapSense_CSD_CSHL.c ****                 CapSense_CSD_SensorSignal[sensor] = ((uint8) tempRaw);
 565              		.loc 1 533 0
 566 018e FA79     		ldrb	r2, [r7, #7]	@ zero_extendqisi2
 567 0190 7B8A     		ldrh	r3, [r7, #18]	@ movhi
 568 0192 D9B2     		uxtb	r1, r3
 569 0194 40F20003 		movw	r3, #:lower16:CapSense_CSD_SensorSignal
 570 0198 C0F20003 		movt	r3, #:upper16:CapSense_CSD_SensorSignal
 571 019c 9954     		strb	r1, [r3, r2]
 572              		.loc 1 523 0
 573 019e 07E0     		b	.L29
 574              	.L25:
 534:.\Generated_Source\PSoC5/CapSense_CSD_CSHL.c ****             }
 535:.\Generated_Source\PSoC5/CapSense_CSD_CSHL.c ****         #else
 536:.\Generated_Source\PSoC5/CapSense_CSD_CSHL.c ****             CapSense_CSD_SensorSignal[sensor] = ((uint16) tempRaw);
 537:.\Generated_Source\PSoC5/CapSense_CSD_CSHL.c ****         #endif  /* (CapSense_CSD_SIGNAL_SIZE == CapSense_CSD_SIGNAL_SIZE_UINT8) */
 538:.\Generated_Source\PSoC5/CapSense_CSD_CSHL.c ****     }
 539:.\Generated_Source\PSoC5/CapSense_CSD_CSHL.c ****     else
 540:.\Generated_Source\PSoC5/CapSense_CSD_CSHL.c ****     {
 541:.\Generated_Source\PSoC5/CapSense_CSD_CSHL.c ****         /* Signal is zero */
 542:.\Generated_Source\PSoC5/CapSense_CSD_CSHL.c ****         CapSense_CSD_SensorSignal[sensor] = 0u;
 575              		.loc 1 542 0
 576 01a0 FA79     		ldrb	r2, [r7, #7]	@ zero_extendqisi2
 577 01a2 40F20003 		movw	r3, #:lower16:CapSense_CSD_SensorSignal
 578 01a6 C0F20003 		movt	r3, #:upper16:CapSense_CSD_SensorSignal
 579 01aa 4FF00001 		mov	r1, #0
 580 01ae 9954     		strb	r1, [r3, r2]
 581              	.L29:
 543:.\Generated_Source\PSoC5/CapSense_CSD_CSHL.c ****     }
 544:.\Generated_Source\PSoC5/CapSense_CSD_CSHL.c **** 
 545:.\Generated_Source\PSoC5/CapSense_CSD_CSHL.c ****     #if (CapSense_CSD_TOTAL_GENERICS_COUNT)
 546:.\Generated_Source\PSoC5/CapSense_CSD_CSHL.c ****         /* Exclude generic widget */
 547:.\Generated_Source\PSoC5/CapSense_CSD_CSHL.c ****         }
 548:.\Generated_Source\PSoC5/CapSense_CSD_CSHL.c ****     #endif  /* CapSense_CSD_TOTAL_GENERICS_COUNT */
 549:.\Generated_Source\PSoC5/CapSense_CSD_CSHL.c **** }
 582              		.loc 1 549 0
ARM GAS  C:\Users\yguan5\AppData\Local\Temp\ccX3ogeL.s 			page 21


 583 01b0 07F11807 		add	r7, r7, #24
 584 01b4 BD46     		mov	sp, r7
 585 01b6 80BD     		pop	{r7, pc}
 586              		.cfi_endproc
 587              	.LFE4:
 588              		.size	CapSense_CSD_UpdateSensorBaseline, .-CapSense_CSD_UpdateSensorBaseline
 589              		.section	.text.CapSense_CSD_UpdateEnabledBaselines,"ax",%progbits
 590              		.align	2
 591              		.global	CapSense_CSD_UpdateEnabledBaselines
 592              		.thumb
 593              		.thumb_func
 594              		.type	CapSense_CSD_UpdateEnabledBaselines, %function
 595              	CapSense_CSD_UpdateEnabledBaselines:
 596              	.LFB5:
 550:.\Generated_Source\PSoC5/CapSense_CSD_CSHL.c **** 
 551:.\Generated_Source\PSoC5/CapSense_CSD_CSHL.c **** 
 552:.\Generated_Source\PSoC5/CapSense_CSD_CSHL.c **** /*******************************************************************************
 553:.\Generated_Source\PSoC5/CapSense_CSD_CSHL.c **** * Function Name: CapSense_CSD_UpdateEnabledBaselines
 554:.\Generated_Source\PSoC5/CapSense_CSD_CSHL.c **** ********************************************************************************
 555:.\Generated_Source\PSoC5/CapSense_CSD_CSHL.c **** *
 556:.\Generated_Source\PSoC5/CapSense_CSD_CSHL.c **** * Summary:
 557:.\Generated_Source\PSoC5/CapSense_CSD_CSHL.c **** *  Checks CapSense_CSD_SensorEnableMask[] array and calls the 
 558:.\Generated_Source\PSoC5/CapSense_CSD_CSHL.c **** *  CapSense_CSD_UpdateSensorBaseline function to update the baselines 
 559:.\Generated_Source\PSoC5/CapSense_CSD_CSHL.c **** *  for enabled sensors.
 560:.\Generated_Source\PSoC5/CapSense_CSD_CSHL.c **** *
 561:.\Generated_Source\PSoC5/CapSense_CSD_CSHL.c **** * Parameters:
 562:.\Generated_Source\PSoC5/CapSense_CSD_CSHL.c **** *  None
 563:.\Generated_Source\PSoC5/CapSense_CSD_CSHL.c **** *
 564:.\Generated_Source\PSoC5/CapSense_CSD_CSHL.c **** * Return:
 565:.\Generated_Source\PSoC5/CapSense_CSD_CSHL.c **** *  None
 566:.\Generated_Source\PSoC5/CapSense_CSD_CSHL.c **** *
 567:.\Generated_Source\PSoC5/CapSense_CSD_CSHL.c **** * Global Variables:
 568:.\Generated_Source\PSoC5/CapSense_CSD_CSHL.c **** *  CapSense_CSD_SensorEnableMask[] - used to store the sensor scanning 
 569:.\Generated_Source\PSoC5/CapSense_CSD_CSHL.c **** *  state.
 570:.\Generated_Source\PSoC5/CapSense_CSD_CSHL.c **** *  CapSense_CSD_SensorEnableMask[0] contains the masked bits for sensors 
 571:.\Generated_Source\PSoC5/CapSense_CSD_CSHL.c **** *   0 through 7 (sensor 0 is bit 0, sensor 1 is bit 1).
 572:.\Generated_Source\PSoC5/CapSense_CSD_CSHL.c **** *  CapSense_CSD_SensorEnableMask[1] contains the masked bits for 
 573:.\Generated_Source\PSoC5/CapSense_CSD_CSHL.c **** *  sensors 8 through 15 (if needed), and so on.
 574:.\Generated_Source\PSoC5/CapSense_CSD_CSHL.c **** *  0 - sensor doesn't scan by CapSense_CSD_ScanEnabledWidgets().
 575:.\Generated_Source\PSoC5/CapSense_CSD_CSHL.c **** *  1 - sensor scans by CapSense_CSD_ScanEnabledWidgets().
 576:.\Generated_Source\PSoC5/CapSense_CSD_CSHL.c **** *
 577:.\Generated_Source\PSoC5/CapSense_CSD_CSHL.c **** * Reentrant:
 578:.\Generated_Source\PSoC5/CapSense_CSD_CSHL.c **** *  No
 579:.\Generated_Source\PSoC5/CapSense_CSD_CSHL.c **** *
 580:.\Generated_Source\PSoC5/CapSense_CSD_CSHL.c **** *******************************************************************************/
 581:.\Generated_Source\PSoC5/CapSense_CSD_CSHL.c ****  void CapSense_CSD_UpdateEnabledBaselines(void)
 582:.\Generated_Source\PSoC5/CapSense_CSD_CSHL.c ****                                  
 583:.\Generated_Source\PSoC5/CapSense_CSD_CSHL.c **** {
 597              		.loc 1 583 0
 598              		.cfi_startproc
 599              		@ args = 0, pretend = 0, frame = 8
 600              		@ frame_needed = 1, uses_anonymous_args = 0
 601 0000 80B5     		push	{r7, lr}
 602              	.LCFI15:
 603              		.cfi_def_cfa_offset 8
 604 0002 82B0     		sub	sp, sp, #8
 605              	.LCFI16:
ARM GAS  C:\Users\yguan5\AppData\Local\Temp\ccX3ogeL.s 			page 22


 606              		.cfi_def_cfa_offset 16
 607 0004 00AF     		add	r7, sp, #0
 608              		.cfi_offset 14, -4
 609              		.cfi_offset 7, -8
 610              	.LCFI17:
 611              		.cfi_def_cfa_register 7
 584:.\Generated_Source\PSoC5/CapSense_CSD_CSHL.c ****     uint8 i;
 585:.\Generated_Source\PSoC5/CapSense_CSD_CSHL.c ****     uint8 pos;
 586:.\Generated_Source\PSoC5/CapSense_CSD_CSHL.c ****     uint8 enMask;
 587:.\Generated_Source\PSoC5/CapSense_CSD_CSHL.c ****     
 588:.\Generated_Source\PSoC5/CapSense_CSD_CSHL.c ****     for(i = 0; i < CapSense_CSD_TOTAL_SENSOR_COUNT; i++)
 612              		.loc 1 588 0
 613 0006 4FF00003 		mov	r3, #0
 614 000a 7B71     		strb	r3, [r7, #5]
 615 000c 1FE0     		b	.L31
 616              	.L33:
 589:.\Generated_Source\PSoC5/CapSense_CSD_CSHL.c ****     {
 590:.\Generated_Source\PSoC5/CapSense_CSD_CSHL.c ****         pos = (i >> 3u);
 617              		.loc 1 590 0
 618 000e 7B79     		ldrb	r3, [r7, #5]	@ zero_extendqisi2
 619 0010 4FEAD303 		lsr	r3, r3, #3
 620 0014 BB71     		strb	r3, [r7, #6]
 591:.\Generated_Source\PSoC5/CapSense_CSD_CSHL.c ****         enMask = 0x01u << (i & 0x07u);
 621              		.loc 1 591 0
 622 0016 7B79     		ldrb	r3, [r7, #5]	@ zero_extendqisi2
 623 0018 03F00703 		and	r3, r3, #7
 624 001c 4FF00102 		mov	r2, #1
 625 0020 02FA03F3 		lsl	r3, r2, r3
 626 0024 FB71     		strb	r3, [r7, #7]
 592:.\Generated_Source\PSoC5/CapSense_CSD_CSHL.c ****         if((CapSense_CSD_SensorEnableMask[pos] & enMask) != 0u)
 627              		.loc 1 592 0
 628 0026 BA79     		ldrb	r2, [r7, #6]	@ zero_extendqisi2
 629 0028 40F20003 		movw	r3, #:lower16:CapSense_CSD_SensorEnableMask
 630 002c C0F20003 		movt	r3, #:upper16:CapSense_CSD_SensorEnableMask
 631 0030 9A5C     		ldrb	r2, [r3, r2]	@ zero_extendqisi2
 632 0032 FB79     		ldrb	r3, [r7, #7]
 633 0034 02EA0303 		and	r3, r2, r3
 634 0038 DBB2     		uxtb	r3, r3
 635 003a 002B     		cmp	r3, #0
 636 003c 03D0     		beq	.L32
 593:.\Generated_Source\PSoC5/CapSense_CSD_CSHL.c ****         {
 594:.\Generated_Source\PSoC5/CapSense_CSD_CSHL.c ****             CapSense_CSD_UpdateSensorBaseline(i);
 637              		.loc 1 594 0
 638 003e 7B79     		ldrb	r3, [r7, #5]	@ zero_extendqisi2
 639 0040 1846     		mov	r0, r3
 640 0042 FFF7FEFF 		bl	CapSense_CSD_UpdateSensorBaseline
 641              	.L32:
 642              		.loc 1 588 0
 643 0046 7B79     		ldrb	r3, [r7, #5]
 644 0048 03F10103 		add	r3, r3, #1
 645 004c 7B71     		strb	r3, [r7, #5]
 646              	.L31:
 647 004e 7B79     		ldrb	r3, [r7, #5]	@ zero_extendqisi2
 648 0050 062B     		cmp	r3, #6
 649 0052 DCD9     		bls	.L33
 595:.\Generated_Source\PSoC5/CapSense_CSD_CSHL.c ****         }
 596:.\Generated_Source\PSoC5/CapSense_CSD_CSHL.c ****     }
ARM GAS  C:\Users\yguan5\AppData\Local\Temp\ccX3ogeL.s 			page 23


 597:.\Generated_Source\PSoC5/CapSense_CSD_CSHL.c **** }
 650              		.loc 1 597 0
 651 0054 07F10807 		add	r7, r7, #8
 652 0058 BD46     		mov	sp, r7
 653 005a 80BD     		pop	{r7, pc}
 654              		.cfi_endproc
 655              	.LFE5:
 656              		.size	CapSense_CSD_UpdateEnabledBaselines, .-CapSense_CSD_UpdateEnabledBaselines
 657              		.section	.text.CapSense_CSD_CheckIsSensorActive,"ax",%progbits
 658              		.align	2
 659              		.global	CapSense_CSD_CheckIsSensorActive
 660              		.thumb
 661              		.thumb_func
 662              		.type	CapSense_CSD_CheckIsSensorActive, %function
 663              	CapSense_CSD_CheckIsSensorActive:
 664              	.LFB6:
 598:.\Generated_Source\PSoC5/CapSense_CSD_CSHL.c **** 
 599:.\Generated_Source\PSoC5/CapSense_CSD_CSHL.c **** 
 600:.\Generated_Source\PSoC5/CapSense_CSD_CSHL.c **** /*******************************************************************************
 601:.\Generated_Source\PSoC5/CapSense_CSD_CSHL.c **** * Function Name: CapSense_CSD_CheckIsSensorActive
 602:.\Generated_Source\PSoC5/CapSense_CSD_CSHL.c **** ********************************************************************************
 603:.\Generated_Source\PSoC5/CapSense_CSD_CSHL.c **** *
 604:.\Generated_Source\PSoC5/CapSense_CSD_CSHL.c **** * Summary:
 605:.\Generated_Source\PSoC5/CapSense_CSD_CSHL.c **** *  Compares the CapSense_CSD_SensorSignal[sensor] array element to finger
 606:.\Generated_Source\PSoC5/CapSense_CSD_CSHL.c **** *  threshold of widget it belongs to. The hysteresis and debounce are taken into 
 607:.\Generated_Source\PSoC5/CapSense_CSD_CSHL.c **** *  account. The hysteresis is added or subtracted from the finger threshold 
 608:.\Generated_Source\PSoC5/CapSense_CSD_CSHL.c **** *  based on whether the sensor is currently active. 
 609:.\Generated_Source\PSoC5/CapSense_CSD_CSHL.c **** *  If the sensor is active, the threshold is lowered by the hysteresis amount.
 610:.\Generated_Source\PSoC5/CapSense_CSD_CSHL.c **** *  If the sensor is inactive, the threshold is raised by the hysteresis amount.
 611:.\Generated_Source\PSoC5/CapSense_CSD_CSHL.c **** *  The debounce counter added to the sensor active transition.
 612:.\Generated_Source\PSoC5/CapSense_CSD_CSHL.c **** *  This function updates CapSense_CSD_SensorOnMask[] array element.
 613:.\Generated_Source\PSoC5/CapSense_CSD_CSHL.c **** *
 614:.\Generated_Source\PSoC5/CapSense_CSD_CSHL.c **** * Parameters:
 615:.\Generated_Source\PSoC5/CapSense_CSD_CSHL.c **** *  sensor:  Sensor number.
 616:.\Generated_Source\PSoC5/CapSense_CSD_CSHL.c **** *
 617:.\Generated_Source\PSoC5/CapSense_CSD_CSHL.c **** * Return:
 618:.\Generated_Source\PSoC5/CapSense_CSD_CSHL.c **** *  Returns sensor state 1 if active, 0 if not active.
 619:.\Generated_Source\PSoC5/CapSense_CSD_CSHL.c **** *
 620:.\Generated_Source\PSoC5/CapSense_CSD_CSHL.c **** * Global Variables:
 621:.\Generated_Source\PSoC5/CapSense_CSD_CSHL.c **** *  CapSense_CSD_SensorSignal[]      - used to store diffence between 
 622:.\Generated_Source\PSoC5/CapSense_CSD_CSHL.c **** *  current value of raw data and previous value of baseline.
 623:.\Generated_Source\PSoC5/CapSense_CSD_CSHL.c **** *  CapSense_CSD_debounceCounter[]   - used to store current debounce 
 624:.\Generated_Source\PSoC5/CapSense_CSD_CSHL.c **** *  counter of sensor. Widget which has this parameter are buttons, matrix 
 625:.\Generated_Source\PSoC5/CapSense_CSD_CSHL.c **** *  buttons, proximity, guard. All other widgets haven't debounce parameter
 626:.\Generated_Source\PSoC5/CapSense_CSD_CSHL.c **** *  and use the last element of this array with value 0 (it means no debounce).
 627:.\Generated_Source\PSoC5/CapSense_CSD_CSHL.c **** *  CapSense_CSD_SensorOnMask[] - used to store sensors on/off state.
 628:.\Generated_Source\PSoC5/CapSense_CSD_CSHL.c **** *  CapSense_CSD_SensorOnMask[0] contains the masked bits for sensors 
 629:.\Generated_Source\PSoC5/CapSense_CSD_CSHL.c **** *   0 through 7 (sensor 0 is bit 0, sensor 1 is bit 1).
 630:.\Generated_Source\PSoC5/CapSense_CSD_CSHL.c **** *  CapSense_CSD_SensorEnableMask[1] contains the masked bits for 
 631:.\Generated_Source\PSoC5/CapSense_CSD_CSHL.c **** *  sensors 8 through 15 (if needed), and so on.
 632:.\Generated_Source\PSoC5/CapSense_CSD_CSHL.c **** *  0 - sensor is inactive.
 633:.\Generated_Source\PSoC5/CapSense_CSD_CSHL.c **** *  1 - sensor is active.
 634:.\Generated_Source\PSoC5/CapSense_CSD_CSHL.c **** *
 635:.\Generated_Source\PSoC5/CapSense_CSD_CSHL.c **** * Reentrant:
 636:.\Generated_Source\PSoC5/CapSense_CSD_CSHL.c **** *  No
 637:.\Generated_Source\PSoC5/CapSense_CSD_CSHL.c **** *
 638:.\Generated_Source\PSoC5/CapSense_CSD_CSHL.c **** *******************************************************************************/
ARM GAS  C:\Users\yguan5\AppData\Local\Temp\ccX3ogeL.s 			page 24


 639:.\Generated_Source\PSoC5/CapSense_CSD_CSHL.c **** uint8 CapSense_CSD_CheckIsSensorActive(uint8 sensor)
 640:.\Generated_Source\PSoC5/CapSense_CSD_CSHL.c ****                                   
 641:.\Generated_Source\PSoC5/CapSense_CSD_CSHL.c **** {
 665              		.loc 1 641 0
 666              		.cfi_startproc
 667              		@ args = 0, pretend = 0, frame = 16
 668              		@ frame_needed = 1, uses_anonymous_args = 0
 669              		@ link register save eliminated.
 670 0000 80B4     		push	{r7}
 671              	.LCFI18:
 672              		.cfi_def_cfa_offset 4
 673 0002 85B0     		sub	sp, sp, #20
 674              	.LCFI19:
 675              		.cfi_def_cfa_offset 24
 676 0004 00AF     		add	r7, sp, #0
 677              		.cfi_offset 7, -4
 678              	.LCFI20:
 679              		.cfi_def_cfa_register 7
 680 0006 0346     		mov	r3, r0
 681 0008 FB71     		strb	r3, [r7, #7]
 642:.\Generated_Source\PSoC5/CapSense_CSD_CSHL.c ****     uint8 debounceIndex;
 643:.\Generated_Source\PSoC5/CapSense_CSD_CSHL.c ****     /* Get On/Off mask */
 644:.\Generated_Source\PSoC5/CapSense_CSD_CSHL.c ****     uint8 pos = (sensor >> 3u);
 682              		.loc 1 644 0
 683 000a FB79     		ldrb	r3, [r7, #7]	@ zero_extendqisi2
 684 000c 4FEAD303 		lsr	r3, r3, #3
 685 0010 BB72     		strb	r3, [r7, #10]
 645:.\Generated_Source\PSoC5/CapSense_CSD_CSHL.c ****     uint8 onMask = 0x01u << (sensor & 0x07u);
 686              		.loc 1 645 0
 687 0012 FB79     		ldrb	r3, [r7, #7]	@ zero_extendqisi2
 688 0014 03F00703 		and	r3, r3, #7
 689 0018 4FF00102 		mov	r2, #1
 690 001c 02FA03F3 		lsl	r3, r2, r3
 691 0020 FB72     		strb	r3, [r7, #11]
 646:.\Generated_Source\PSoC5/CapSense_CSD_CSHL.c ****     /* Prepare to find debounce counter index */
 647:.\Generated_Source\PSoC5/CapSense_CSD_CSHL.c ****     uint8 widget = CapSense_CSD_widgetNumber[sensor];
 692              		.loc 1 647 0
 693 0022 FA79     		ldrb	r2, [r7, #7]	@ zero_extendqisi2
 694 0024 40F20003 		movw	r3, #:lower16:CapSense_CSD_widgetNumber
 695 0028 C0F20003 		movt	r3, #:upper16:CapSense_CSD_widgetNumber
 696 002c 9B5C     		ldrb	r3, [r3, r2]
 697 002e 3B73     		strb	r3, [r7, #12]
 648:.\Generated_Source\PSoC5/CapSense_CSD_CSHL.c ****     uint8 fingerThreshold = CapSense_CSD_fingerThreshold[widget];
 698              		.loc 1 648 0
 699 0030 3A7B     		ldrb	r2, [r7, #12]	@ zero_extendqisi2
 700 0032 40F20003 		movw	r3, #:lower16:CapSense_CSD_fingerThreshold
 701 0036 C0F20003 		movt	r3, #:upper16:CapSense_CSD_fingerThreshold
 702 003a 9B5C     		ldrb	r3, [r3, r2]
 703 003c 7B73     		strb	r3, [r7, #13]
 649:.\Generated_Source\PSoC5/CapSense_CSD_CSHL.c ****     uint8 hysteresis = CapSense_CSD_hysteresis[widget];
 704              		.loc 1 649 0
 705 003e 3A7B     		ldrb	r2, [r7, #12]	@ zero_extendqisi2
 706 0040 40F20003 		movw	r3, #:lower16:CapSense_CSD_hysteresis
 707 0044 C0F20003 		movt	r3, #:upper16:CapSense_CSD_hysteresis
 708 0048 9B5C     		ldrb	r3, [r3, r2]
 709 004a BB73     		strb	r3, [r7, #14]
 650:.\Generated_Source\PSoC5/CapSense_CSD_CSHL.c ****     uint8 debounce = CapSense_CSD_debounce[widget];
ARM GAS  C:\Users\yguan5\AppData\Local\Temp\ccX3ogeL.s 			page 25


 710              		.loc 1 650 0
 711 004c 3A7B     		ldrb	r2, [r7, #12]	@ zero_extendqisi2
 712 004e 40F20003 		movw	r3, #:lower16:CapSense_CSD_debounce
 713 0052 C0F20003 		movt	r3, #:upper16:CapSense_CSD_debounce
 714 0056 9B5C     		ldrb	r3, [r3, r2]
 715 0058 FB73     		strb	r3, [r7, #15]
 651:.\Generated_Source\PSoC5/CapSense_CSD_CSHL.c ****     
 652:.\Generated_Source\PSoC5/CapSense_CSD_CSHL.c ****     if (widget < CapSense_CSD_TOTAL_CENTROIDS_COUNT)
 716              		.loc 1 652 0
 717 005a 3B7B     		ldrb	r3, [r7, #12]	@ zero_extendqisi2
 718 005c 002B     		cmp	r3, #0
 719 005e 0BD1     		bne	.L36
 653:.\Generated_Source\PSoC5/CapSense_CSD_CSHL.c ****     {
 654:.\Generated_Source\PSoC5/CapSense_CSD_CSHL.c ****         debounceIndex = CapSense_CSD_UNUSED_DEBOUNCE_COUNTER_INDEX;
 720              		.loc 1 654 0
 721 0060 4FF00203 		mov	r3, #2
 722 0064 7B72     		strb	r3, [r7, #9]
 655:.\Generated_Source\PSoC5/CapSense_CSD_CSHL.c ****         CapSense_CSD_debounceCounter[debounceIndex] = 1u;
 723              		.loc 1 655 0
 724 0066 7A7A     		ldrb	r2, [r7, #9]	@ zero_extendqisi2
 725 0068 40F20003 		movw	r3, #:lower16:CapSense_CSD_debounceCounter
 726 006c C0F20003 		movt	r3, #:upper16:CapSense_CSD_debounceCounter
 727 0070 4FF00101 		mov	r1, #1
 728 0074 9954     		strb	r1, [r3, r2]
 729 0076 03E0     		b	.L37
 730              	.L36:
 656:.\Generated_Source\PSoC5/CapSense_CSD_CSHL.c ****     }
 657:.\Generated_Source\PSoC5/CapSense_CSD_CSHL.c ****     else
 658:.\Generated_Source\PSoC5/CapSense_CSD_CSHL.c ****     {
 659:.\Generated_Source\PSoC5/CapSense_CSD_CSHL.c ****         debounceIndex = widget - (CapSense_CSD_END_OF_TOUCH_PAD_INDEX + 1);
 731              		.loc 1 659 0
 732 0078 3B7B     		ldrb	r3, [r7, #12]
 733 007a 03F1FF33 		add	r3, r3, #-1
 734 007e 7B72     		strb	r3, [r7, #9]
 735              	.L37:
 660:.\Generated_Source\PSoC5/CapSense_CSD_CSHL.c ****     }
 661:.\Generated_Source\PSoC5/CapSense_CSD_CSHL.c **** 
 662:.\Generated_Source\PSoC5/CapSense_CSD_CSHL.c ****     
 663:.\Generated_Source\PSoC5/CapSense_CSD_CSHL.c ****     /* Was on */
 664:.\Generated_Source\PSoC5/CapSense_CSD_CSHL.c ****     if (CapSense_CSD_SensorOnMask[pos] & onMask)
 736              		.loc 1 664 0
 737 0080 BA7A     		ldrb	r2, [r7, #10]	@ zero_extendqisi2
 738 0082 40F20003 		movw	r3, #:lower16:CapSense_CSD_SensorOnMask
 739 0086 C0F20003 		movt	r3, #:upper16:CapSense_CSD_SensorOnMask
 740 008a 9A5C     		ldrb	r2, [r3, r2]	@ zero_extendqisi2
 741 008c FB7A     		ldrb	r3, [r7, #11]
 742 008e 02EA0303 		and	r3, r2, r3
 743 0092 DBB2     		uxtb	r3, r3
 744 0094 002B     		cmp	r3, #0
 745 0096 29D0     		beq	.L38
 665:.\Generated_Source\PSoC5/CapSense_CSD_CSHL.c ****     {
 666:.\Generated_Source\PSoC5/CapSense_CSD_CSHL.c ****         /* Hysteresis minus */
 667:.\Generated_Source\PSoC5/CapSense_CSD_CSHL.c ****         if (CapSense_CSD_SensorSignal[sensor] < (fingerThreshold - hysteresis))
 746              		.loc 1 667 0
 747 0098 FA79     		ldrb	r2, [r7, #7]	@ zero_extendqisi2
 748 009a 40F20003 		movw	r3, #:lower16:CapSense_CSD_SensorSignal
 749 009e C0F20003 		movt	r3, #:upper16:CapSense_CSD_SensorSignal
ARM GAS  C:\Users\yguan5\AppData\Local\Temp\ccX3ogeL.s 			page 26


 750 00a2 9B5C     		ldrb	r3, [r3, r2]	@ zero_extendqisi2
 751 00a4 1A46     		mov	r2, r3
 752 00a6 797B     		ldrb	r1, [r7, #13]	@ zero_extendqisi2
 753 00a8 BB7B     		ldrb	r3, [r7, #14]	@ zero_extendqisi2
 754 00aa C3EB0103 		rsb	r3, r3, r1
 755 00ae 9A42     		cmp	r2, r3
 756 00b0 56DA     		bge	.L46
 668:.\Generated_Source\PSoC5/CapSense_CSD_CSHL.c ****         {
 669:.\Generated_Source\PSoC5/CapSense_CSD_CSHL.c ****             CapSense_CSD_SensorOnMask[pos] &= ~onMask;
 757              		.loc 1 669 0
 758 00b2 BA7A     		ldrb	r2, [r7, #10]	@ zero_extendqisi2
 759 00b4 B97A     		ldrb	r1, [r7, #10]	@ zero_extendqisi2
 760 00b6 40F20003 		movw	r3, #:lower16:CapSense_CSD_SensorOnMask
 761 00ba C0F20003 		movt	r3, #:upper16:CapSense_CSD_SensorOnMask
 762 00be 5B5C     		ldrb	r3, [r3, r1]	@ zero_extendqisi2
 763 00c0 1946     		mov	r1, r3
 764 00c2 FB7A     		ldrb	r3, [r7, #11]	@ zero_extendqisi2
 765 00c4 6FEA0303 		mvn	r3, r3
 766 00c8 DBB2     		uxtb	r3, r3
 767 00ca 01EA0303 		and	r3, r1, r3
 768 00ce DBB2     		uxtb	r3, r3
 769 00d0 D9B2     		uxtb	r1, r3
 770 00d2 40F20003 		movw	r3, #:lower16:CapSense_CSD_SensorOnMask
 771 00d6 C0F20003 		movt	r3, #:upper16:CapSense_CSD_SensorOnMask
 772 00da 9954     		strb	r1, [r3, r2]
 670:.\Generated_Source\PSoC5/CapSense_CSD_CSHL.c ****             CapSense_CSD_debounceCounter[debounceIndex] = debounce; 
 773              		.loc 1 670 0
 774 00dc 7A7A     		ldrb	r2, [r7, #9]	@ zero_extendqisi2
 775 00de 40F20003 		movw	r3, #:lower16:CapSense_CSD_debounceCounter
 776 00e2 C0F20003 		movt	r3, #:upper16:CapSense_CSD_debounceCounter
 777 00e6 F97B     		ldrb	r1, [r7, #15]
 778 00e8 9954     		strb	r1, [r3, r2]
 779 00ea 3CE0     		b	.L40
 780              	.L38:
 671:.\Generated_Source\PSoC5/CapSense_CSD_CSHL.c ****         }
 672:.\Generated_Source\PSoC5/CapSense_CSD_CSHL.c ****     }
 673:.\Generated_Source\PSoC5/CapSense_CSD_CSHL.c ****     else    /* Was off */
 674:.\Generated_Source\PSoC5/CapSense_CSD_CSHL.c ****     {
 675:.\Generated_Source\PSoC5/CapSense_CSD_CSHL.c ****         /* Hysteresis plus */
 676:.\Generated_Source\PSoC5/CapSense_CSD_CSHL.c ****         if (CapSense_CSD_SensorSignal[sensor] > (fingerThreshold + hysteresis))
 781              		.loc 1 676 0
 782 00ec FA79     		ldrb	r2, [r7, #7]	@ zero_extendqisi2
 783 00ee 40F20003 		movw	r3, #:lower16:CapSense_CSD_SensorSignal
 784 00f2 C0F20003 		movt	r3, #:upper16:CapSense_CSD_SensorSignal
 785 00f6 9B5C     		ldrb	r3, [r3, r2]	@ zero_extendqisi2
 786 00f8 1A46     		mov	r2, r3
 787 00fa 797B     		ldrb	r1, [r7, #13]	@ zero_extendqisi2
 788 00fc BB7B     		ldrb	r3, [r7, #14]	@ zero_extendqisi2
 789 00fe 0B44     		add	r3, r1, r3
 790 0100 9A42     		cmp	r2, r3
 791 0102 25DD     		ble	.L41
 677:.\Generated_Source\PSoC5/CapSense_CSD_CSHL.c ****         {
 678:.\Generated_Source\PSoC5/CapSense_CSD_CSHL.c ****             /* Sensor active, decrement debounce counter */
 679:.\Generated_Source\PSoC5/CapSense_CSD_CSHL.c ****             if (CapSense_CSD_debounceCounter[debounceIndex]-- <= 1u)
 792              		.loc 1 679 0
 793 0104 7A7A     		ldrb	r2, [r7, #9]	@ zero_extendqisi2
 794 0106 40F20003 		movw	r3, #:lower16:CapSense_CSD_debounceCounter
ARM GAS  C:\Users\yguan5\AppData\Local\Temp\ccX3ogeL.s 			page 27


 795 010a C0F20003 		movt	r3, #:upper16:CapSense_CSD_debounceCounter
 796 010e 9B5C     		ldrb	r3, [r3, r2]	@ zero_extendqisi2
 797 0110 012B     		cmp	r3, #1
 798 0112 8CBF     		ite	hi
 799 0114 0021     		movhi	r1, #0
 800 0116 0121     		movls	r1, #1
 801 0118 C9B2     		uxtb	r1, r1
 802 011a 03F1FF33 		add	r3, r3, #-1
 803 011e D8B2     		uxtb	r0, r3
 804 0120 40F20003 		movw	r3, #:lower16:CapSense_CSD_debounceCounter
 805 0124 C0F20003 		movt	r3, #:upper16:CapSense_CSD_debounceCounter
 806 0128 9854     		strb	r0, [r3, r2]
 807 012a 0029     		cmp	r1, #0
 808 012c 1AD0     		beq	.L47
 680:.\Generated_Source\PSoC5/CapSense_CSD_CSHL.c ****             {
 681:.\Generated_Source\PSoC5/CapSense_CSD_CSHL.c ****                 CapSense_CSD_SensorOnMask[pos] |= onMask; 
 809              		.loc 1 681 0
 810 012e BA7A     		ldrb	r2, [r7, #10]	@ zero_extendqisi2
 811 0130 B97A     		ldrb	r1, [r7, #10]	@ zero_extendqisi2
 812 0132 40F20003 		movw	r3, #:lower16:CapSense_CSD_SensorOnMask
 813 0136 C0F20003 		movt	r3, #:upper16:CapSense_CSD_SensorOnMask
 814 013a 595C     		ldrb	r1, [r3, r1]	@ zero_extendqisi2
 815 013c FB7A     		ldrb	r3, [r7, #11]
 816 013e 41EA0303 		orr	r3, r1, r3
 817 0142 D9B2     		uxtb	r1, r3
 818 0144 40F20003 		movw	r3, #:lower16:CapSense_CSD_SensorOnMask
 819 0148 C0F20003 		movt	r3, #:upper16:CapSense_CSD_SensorOnMask
 820 014c 9954     		strb	r1, [r3, r2]
 821 014e 0AE0     		b	.L40
 822              	.L41:
 682:.\Generated_Source\PSoC5/CapSense_CSD_CSHL.c ****             }
 683:.\Generated_Source\PSoC5/CapSense_CSD_CSHL.c ****         }
 684:.\Generated_Source\PSoC5/CapSense_CSD_CSHL.c ****         else
 685:.\Generated_Source\PSoC5/CapSense_CSD_CSHL.c ****         {
 686:.\Generated_Source\PSoC5/CapSense_CSD_CSHL.c ****             /* Sensor inactive - reset Debounce counter */
 687:.\Generated_Source\PSoC5/CapSense_CSD_CSHL.c ****             CapSense_CSD_debounceCounter[debounceIndex] = debounce;
 823              		.loc 1 687 0
 824 0150 7A7A     		ldrb	r2, [r7, #9]	@ zero_extendqisi2
 825 0152 40F20003 		movw	r3, #:lower16:CapSense_CSD_debounceCounter
 826 0156 C0F20003 		movt	r3, #:upper16:CapSense_CSD_debounceCounter
 827 015a F97B     		ldrb	r1, [r7, #15]
 828 015c 9954     		strb	r1, [r3, r2]
 829 015e 02E0     		b	.L40
 830              	.L46:
 831              		.loc 1 670 0
 832 0160 00BF     		nop
 833 0162 00E0     		b	.L40
 834              	.L47:
 835              		.loc 1 681 0
 836 0164 00BF     		nop
 837              	.L40:
 688:.\Generated_Source\PSoC5/CapSense_CSD_CSHL.c ****         }
 689:.\Generated_Source\PSoC5/CapSense_CSD_CSHL.c ****     }
 690:.\Generated_Source\PSoC5/CapSense_CSD_CSHL.c ****     
 691:.\Generated_Source\PSoC5/CapSense_CSD_CSHL.c ****     return (CapSense_CSD_SensorOnMask[pos] & onMask) ? 1u : 0u;
 838              		.loc 1 691 0
 839 0166 BA7A     		ldrb	r2, [r7, #10]	@ zero_extendqisi2
ARM GAS  C:\Users\yguan5\AppData\Local\Temp\ccX3ogeL.s 			page 28


 840 0168 40F20003 		movw	r3, #:lower16:CapSense_CSD_SensorOnMask
 841 016c C0F20003 		movt	r3, #:upper16:CapSense_CSD_SensorOnMask
 842 0170 9A5C     		ldrb	r2, [r3, r2]	@ zero_extendqisi2
 843 0172 FB7A     		ldrb	r3, [r7, #11]
 844 0174 02EA0303 		and	r3, r2, r3
 845 0178 DBB2     		uxtb	r3, r3
 846 017a 002B     		cmp	r3, #0
 847 017c 02D0     		beq	.L43
 848 017e 4FF00103 		mov	r3, #1
 849 0182 01E0     		b	.L44
 850              	.L43:
 851 0184 4FF00003 		mov	r3, #0
 852              	.L44:
 692:.\Generated_Source\PSoC5/CapSense_CSD_CSHL.c **** }
 853              		.loc 1 692 0
 854 0188 1846     		mov	r0, r3
 855 018a 07F11407 		add	r7, r7, #20
 856 018e BD46     		mov	sp, r7
 857 0190 80BC     		pop	{r7}
 858 0192 7047     		bx	lr
 859              		.cfi_endproc
 860              	.LFE6:
 861              		.size	CapSense_CSD_CheckIsSensorActive, .-CapSense_CSD_CheckIsSensorActive
 862              		.section	.text.CapSense_CSD_CheckIsWidgetActive,"ax",%progbits
 863              		.align	2
 864              		.global	CapSense_CSD_CheckIsWidgetActive
 865              		.thumb
 866              		.thumb_func
 867              		.type	CapSense_CSD_CheckIsWidgetActive, %function
 868              	CapSense_CSD_CheckIsWidgetActive:
 869              	.LFB7:
 693:.\Generated_Source\PSoC5/CapSense_CSD_CSHL.c **** 
 694:.\Generated_Source\PSoC5/CapSense_CSD_CSHL.c **** 
 695:.\Generated_Source\PSoC5/CapSense_CSD_CSHL.c **** /*******************************************************************************
 696:.\Generated_Source\PSoC5/CapSense_CSD_CSHL.c **** * Function Name: CapSense_CSD_CheckIsWidgetActive
 697:.\Generated_Source\PSoC5/CapSense_CSD_CSHL.c **** ********************************************************************************
 698:.\Generated_Source\PSoC5/CapSense_CSD_CSHL.c **** *
 699:.\Generated_Source\PSoC5/CapSense_CSD_CSHL.c **** * Summary:
 700:.\Generated_Source\PSoC5/CapSense_CSD_CSHL.c **** *  Use function CapSense_CSD_CheckIsSensorActive() to update 
 701:.\Generated_Source\PSoC5/CapSense_CSD_CSHL.c **** *  CapSense_CSD_SensorOnMask[] for all sensors within the widget.
 702:.\Generated_Source\PSoC5/CapSense_CSD_CSHL.c **** *  If one of sensors within widget is active the function return that widget is 
 703:.\Generated_Source\PSoC5/CapSense_CSD_CSHL.c **** *  active.
 704:.\Generated_Source\PSoC5/CapSense_CSD_CSHL.c **** *  The touch pad and matrix buttons widgets need to have active sensor within 
 705:.\Generated_Source\PSoC5/CapSense_CSD_CSHL.c **** *  col and row to return widget active status.
 706:.\Generated_Source\PSoC5/CapSense_CSD_CSHL.c **** *
 707:.\Generated_Source\PSoC5/CapSense_CSD_CSHL.c **** * Parameters:
 708:.\Generated_Source\PSoC5/CapSense_CSD_CSHL.c **** *  widget:  widget number.
 709:.\Generated_Source\PSoC5/CapSense_CSD_CSHL.c **** *
 710:.\Generated_Source\PSoC5/CapSense_CSD_CSHL.c **** * Return:
 711:.\Generated_Source\PSoC5/CapSense_CSD_CSHL.c **** *  Returns widget sensor state 1 if one or more sensors within widget is/are 
 712:.\Generated_Source\PSoC5/CapSense_CSD_CSHL.c **** *  active, 0 if all sensors within widget are inactive.
 713:.\Generated_Source\PSoC5/CapSense_CSD_CSHL.c **** *
 714:.\Generated_Source\PSoC5/CapSense_CSD_CSHL.c **** * Reentrant:
 715:.\Generated_Source\PSoC5/CapSense_CSD_CSHL.c **** *  No
 716:.\Generated_Source\PSoC5/CapSense_CSD_CSHL.c **** *
 717:.\Generated_Source\PSoC5/CapSense_CSD_CSHL.c **** *******************************************************************************/
 718:.\Generated_Source\PSoC5/CapSense_CSD_CSHL.c **** uint8 CapSense_CSD_CheckIsWidgetActive(uint8 widget)
ARM GAS  C:\Users\yguan5\AppData\Local\Temp\ccX3ogeL.s 			page 29


 719:.\Generated_Source\PSoC5/CapSense_CSD_CSHL.c ****                                  
 720:.\Generated_Source\PSoC5/CapSense_CSD_CSHL.c **** {
 870              		.loc 1 720 0
 871              		.cfi_startproc
 872              		@ args = 0, pretend = 0, frame = 16
 873              		@ frame_needed = 1, uses_anonymous_args = 0
 874 0000 80B5     		push	{r7, lr}
 875              	.LCFI21:
 876              		.cfi_def_cfa_offset 8
 877 0002 84B0     		sub	sp, sp, #16
 878              	.LCFI22:
 879              		.cfi_def_cfa_offset 24
 880 0004 00AF     		add	r7, sp, #0
 881              		.cfi_offset 14, -4
 882              		.cfi_offset 7, -8
 883              	.LCFI23:
 884              		.cfi_def_cfa_register 7
 885 0006 0346     		mov	r3, r0
 886 0008 FB71     		strb	r3, [r7, #7]
 721:.\Generated_Source\PSoC5/CapSense_CSD_CSHL.c ****     uint8 rawIndex = CapSense_CSD_rawDataIndex[widget];
 887              		.loc 1 721 0
 888 000a FA79     		ldrb	r2, [r7, #7]	@ zero_extendqisi2
 889 000c 40F20003 		movw	r3, #:lower16:CapSense_CSD_rawDataIndex
 890 0010 C0F20003 		movt	r3, #:upper16:CapSense_CSD_rawDataIndex
 891 0014 9B5C     		ldrb	r3, [r3, r2]
 892 0016 7B73     		strb	r3, [r7, #13]
 722:.\Generated_Source\PSoC5/CapSense_CSD_CSHL.c ****     uint8 numberOfSensors = CapSense_CSD_numberOfSensors[widget] + rawIndex;
 893              		.loc 1 722 0
 894 0018 FA79     		ldrb	r2, [r7, #7]	@ zero_extendqisi2
 895 001a 40F20003 		movw	r3, #:lower16:CapSense_CSD_numberOfSensors
 896 001e C0F20003 		movt	r3, #:upper16:CapSense_CSD_numberOfSensors
 897 0022 9A5C     		ldrb	r2, [r3, r2]	@ zero_extendqisi2
 898 0024 7B7B     		ldrb	r3, [r7, #13]
 899 0026 1344     		add	r3, r2, r3
 900 0028 BB73     		strb	r3, [r7, #14]
 723:.\Generated_Source\PSoC5/CapSense_CSD_CSHL.c ****     uint8 state = 0u;
 901              		.loc 1 723 0
 902 002a 4FF00003 		mov	r3, #0
 903 002e FB73     		strb	r3, [r7, #15]
 904              	.L50:
 724:.\Generated_Source\PSoC5/CapSense_CSD_CSHL.c **** 
 725:.\Generated_Source\PSoC5/CapSense_CSD_CSHL.c ****     /* Check all sensors of the widget */
 726:.\Generated_Source\PSoC5/CapSense_CSD_CSHL.c ****     do
 727:.\Generated_Source\PSoC5/CapSense_CSD_CSHL.c ****     {
 728:.\Generated_Source\PSoC5/CapSense_CSD_CSHL.c ****         if(CapSense_CSD_CheckIsSensorActive(rawIndex) != 0u)
 905              		.loc 1 728 0
 906 0030 7B7B     		ldrb	r3, [r7, #13]	@ zero_extendqisi2
 907 0032 1846     		mov	r0, r3
 908 0034 FFF7FEFF 		bl	CapSense_CSD_CheckIsSensorActive
 909 0038 0346     		mov	r3, r0
 910 003a 002B     		cmp	r3, #0
 911 003c 02D0     		beq	.L49
 729:.\Generated_Source\PSoC5/CapSense_CSD_CSHL.c ****         {
 730:.\Generated_Source\PSoC5/CapSense_CSD_CSHL.c ****             state = CapSense_CSD_SENSOR_1_IS_ACTIVE;
 912              		.loc 1 730 0
 913 003e 4FF00103 		mov	r3, #1
 914 0042 FB73     		strb	r3, [r7, #15]
ARM GAS  C:\Users\yguan5\AppData\Local\Temp\ccX3ogeL.s 			page 30


 915              	.L49:
 731:.\Generated_Source\PSoC5/CapSense_CSD_CSHL.c ****         }
 732:.\Generated_Source\PSoC5/CapSense_CSD_CSHL.c ****         rawIndex++;
 916              		.loc 1 732 0
 917 0044 7B7B     		ldrb	r3, [r7, #13]
 918 0046 03F10103 		add	r3, r3, #1
 919 004a 7B73     		strb	r3, [r7, #13]
 733:.\Generated_Source\PSoC5/CapSense_CSD_CSHL.c ****     }
 734:.\Generated_Source\PSoC5/CapSense_CSD_CSHL.c ****     while(rawIndex < numberOfSensors);
 920              		.loc 1 734 0
 921 004c 7A7B     		ldrb	r2, [r7, #13]	@ zero_extendqisi2
 922 004e BB7B     		ldrb	r3, [r7, #14]	@ zero_extendqisi2
 923 0050 9A42     		cmp	r2, r3
 924 0052 EDD3     		bcc	.L50
 735:.\Generated_Source\PSoC5/CapSense_CSD_CSHL.c ****     
 736:.\Generated_Source\PSoC5/CapSense_CSD_CSHL.c **** 
 737:.\Generated_Source\PSoC5/CapSense_CSD_CSHL.c ****     
 738:.\Generated_Source\PSoC5/CapSense_CSD_CSHL.c ****     return state;
 925              		.loc 1 738 0
 926 0054 FB7B     		ldrb	r3, [r7, #15]	@ zero_extendqisi2
 739:.\Generated_Source\PSoC5/CapSense_CSD_CSHL.c **** }
 927              		.loc 1 739 0
 928 0056 1846     		mov	r0, r3
 929 0058 07F11007 		add	r7, r7, #16
 930 005c BD46     		mov	sp, r7
 931 005e 80BD     		pop	{r7, pc}
 932              		.cfi_endproc
 933              	.LFE7:
 934              		.size	CapSense_CSD_CheckIsWidgetActive, .-CapSense_CSD_CheckIsWidgetActive
 935              		.section	.text.CapSense_CSD_CheckIsAnyWidgetActive,"ax",%progbits
 936              		.align	2
 937              		.global	CapSense_CSD_CheckIsAnyWidgetActive
 938              		.thumb
 939              		.thumb_func
 940              		.type	CapSense_CSD_CheckIsAnyWidgetActive, %function
 941              	CapSense_CSD_CheckIsAnyWidgetActive:
 942              	.LFB8:
 740:.\Generated_Source\PSoC5/CapSense_CSD_CSHL.c **** 
 741:.\Generated_Source\PSoC5/CapSense_CSD_CSHL.c **** 
 742:.\Generated_Source\PSoC5/CapSense_CSD_CSHL.c **** /*******************************************************************************
 743:.\Generated_Source\PSoC5/CapSense_CSD_CSHL.c **** * Function Name: CapSense_CSD_CheckIsAnyWidgetActive
 744:.\Generated_Source\PSoC5/CapSense_CSD_CSHL.c **** ********************************************************************************
 745:.\Generated_Source\PSoC5/CapSense_CSD_CSHL.c **** *
 746:.\Generated_Source\PSoC5/CapSense_CSD_CSHL.c **** * Summary:
 747:.\Generated_Source\PSoC5/CapSense_CSD_CSHL.c **** *  Compares all sensors of the CapSense_CSD_Signal[] array to their finger 
 748:.\Generated_Source\PSoC5/CapSense_CSD_CSHL.c **** *  threshold. Calls CapSense_CSD_CheckIsWidgetActive() for each widget so 
 749:.\Generated_Source\PSoC5/CapSense_CSD_CSHL.c **** *  the CapSense_CSD_SensorOnMask[] array is up to date after calling this 
 750:.\Generated_Source\PSoC5/CapSense_CSD_CSHL.c **** *  function.
 751:.\Generated_Source\PSoC5/CapSense_CSD_CSHL.c **** *
 752:.\Generated_Source\PSoC5/CapSense_CSD_CSHL.c **** * Parameters:
 753:.\Generated_Source\PSoC5/CapSense_CSD_CSHL.c **** *  widget:  widget number.
 754:.\Generated_Source\PSoC5/CapSense_CSD_CSHL.c **** *
 755:.\Generated_Source\PSoC5/CapSense_CSD_CSHL.c **** * Return:
 756:.\Generated_Source\PSoC5/CapSense_CSD_CSHL.c **** *  Returns 1 if any widget is active, 0 none of widgets are active.
 757:.\Generated_Source\PSoC5/CapSense_CSD_CSHL.c **** *
 758:.\Generated_Source\PSoC5/CapSense_CSD_CSHL.c **** * Reentrant:
 759:.\Generated_Source\PSoC5/CapSense_CSD_CSHL.c **** *  No
ARM GAS  C:\Users\yguan5\AppData\Local\Temp\ccX3ogeL.s 			page 31


 760:.\Generated_Source\PSoC5/CapSense_CSD_CSHL.c **** *
 761:.\Generated_Source\PSoC5/CapSense_CSD_CSHL.c **** *******************************************************************************/
 762:.\Generated_Source\PSoC5/CapSense_CSD_CSHL.c **** uint8 CapSense_CSD_CheckIsAnyWidgetActive(void)
 763:.\Generated_Source\PSoC5/CapSense_CSD_CSHL.c ****                                  
 764:.\Generated_Source\PSoC5/CapSense_CSD_CSHL.c **** {
 943              		.loc 1 764 0
 944              		.cfi_startproc
 945              		@ args = 0, pretend = 0, frame = 8
 946              		@ frame_needed = 1, uses_anonymous_args = 0
 947 0000 80B5     		push	{r7, lr}
 948              	.LCFI24:
 949              		.cfi_def_cfa_offset 8
 950 0002 82B0     		sub	sp, sp, #8
 951              	.LCFI25:
 952              		.cfi_def_cfa_offset 16
 953 0004 00AF     		add	r7, sp, #0
 954              		.cfi_offset 14, -4
 955              		.cfi_offset 7, -8
 956              	.LCFI26:
 957              		.cfi_def_cfa_register 7
 765:.\Generated_Source\PSoC5/CapSense_CSD_CSHL.c ****     uint8 i;
 766:.\Generated_Source\PSoC5/CapSense_CSD_CSHL.c ****     uint8 state = 0u;
 958              		.loc 1 766 0
 959 0006 4FF00003 		mov	r3, #0
 960 000a FB71     		strb	r3, [r7, #7]
 767:.\Generated_Source\PSoC5/CapSense_CSD_CSHL.c ****     
 768:.\Generated_Source\PSoC5/CapSense_CSD_CSHL.c ****     for(i = 0u; i < CapSense_CSD_TOTAL_WIDGET_COUNT; i++)
 961              		.loc 1 768 0
 962 000c 4FF00003 		mov	r3, #0
 963 0010 BB71     		strb	r3, [r7, #6]
 964 0012 0DE0     		b	.L53
 965              	.L55:
 769:.\Generated_Source\PSoC5/CapSense_CSD_CSHL.c ****     {
 770:.\Generated_Source\PSoC5/CapSense_CSD_CSHL.c ****         if (CapSense_CSD_CheckIsWidgetActive(i) != 0u)
 966              		.loc 1 770 0
 967 0014 BB79     		ldrb	r3, [r7, #6]	@ zero_extendqisi2
 968 0016 1846     		mov	r0, r3
 969 0018 FFF7FEFF 		bl	CapSense_CSD_CheckIsWidgetActive
 970 001c 0346     		mov	r3, r0
 971 001e 002B     		cmp	r3, #0
 972 0020 02D0     		beq	.L54
 771:.\Generated_Source\PSoC5/CapSense_CSD_CSHL.c ****         {
 772:.\Generated_Source\PSoC5/CapSense_CSD_CSHL.c ****             state = CapSense_CSD_WIDGET_IS_ACTIVE;
 973              		.loc 1 772 0
 974 0022 4FF00103 		mov	r3, #1
 975 0026 FB71     		strb	r3, [r7, #7]
 976              	.L54:
 977              		.loc 1 768 0
 978 0028 BB79     		ldrb	r3, [r7, #6]
 979 002a 03F10103 		add	r3, r3, #1
 980 002e BB71     		strb	r3, [r7, #6]
 981              	.L53:
 982 0030 BB79     		ldrb	r3, [r7, #6]	@ zero_extendqisi2
 983 0032 022B     		cmp	r3, #2
 984 0034 EED9     		bls	.L55
 773:.\Generated_Source\PSoC5/CapSense_CSD_CSHL.c ****         }
 774:.\Generated_Source\PSoC5/CapSense_CSD_CSHL.c ****     }
ARM GAS  C:\Users\yguan5\AppData\Local\Temp\ccX3ogeL.s 			page 32


 775:.\Generated_Source\PSoC5/CapSense_CSD_CSHL.c ****     
 776:.\Generated_Source\PSoC5/CapSense_CSD_CSHL.c **** 
 777:.\Generated_Source\PSoC5/CapSense_CSD_CSHL.c ****     return state;
 985              		.loc 1 777 0
 986 0036 FB79     		ldrb	r3, [r7, #7]	@ zero_extendqisi2
 778:.\Generated_Source\PSoC5/CapSense_CSD_CSHL.c **** }
 987              		.loc 1 778 0
 988 0038 1846     		mov	r0, r3
 989 003a 07F10807 		add	r7, r7, #8
 990 003e BD46     		mov	sp, r7
 991 0040 80BD     		pop	{r7, pc}
 992              		.cfi_endproc
 993              	.LFE8:
 994              		.size	CapSense_CSD_CheckIsAnyWidgetActive, .-CapSense_CSD_CheckIsAnyWidgetActive
 995 0042 00BF     		.section	.text.CapSense_CSD_EnableWidget,"ax",%progbits
 996              		.align	2
 997              		.global	CapSense_CSD_EnableWidget
 998              		.thumb
 999              		.thumb_func
 1000              		.type	CapSense_CSD_EnableWidget, %function
 1001              	CapSense_CSD_EnableWidget:
 1002              	.LFB9:
 779:.\Generated_Source\PSoC5/CapSense_CSD_CSHL.c **** 
 780:.\Generated_Source\PSoC5/CapSense_CSD_CSHL.c **** 
 781:.\Generated_Source\PSoC5/CapSense_CSD_CSHL.c **** /*******************************************************************************
 782:.\Generated_Source\PSoC5/CapSense_CSD_CSHL.c **** * Function Name: CapSense_CSD_EnableWidget
 783:.\Generated_Source\PSoC5/CapSense_CSD_CSHL.c **** ********************************************************************************
 784:.\Generated_Source\PSoC5/CapSense_CSD_CSHL.c **** *
 785:.\Generated_Source\PSoC5/CapSense_CSD_CSHL.c **** * Summary:
 786:.\Generated_Source\PSoC5/CapSense_CSD_CSHL.c **** *  Enable all widget elements (sensors) to scanning process.
 787:.\Generated_Source\PSoC5/CapSense_CSD_CSHL.c **** *
 788:.\Generated_Source\PSoC5/CapSense_CSD_CSHL.c **** * Parameters:
 789:.\Generated_Source\PSoC5/CapSense_CSD_CSHL.c **** *  widget:  widget number.
 790:.\Generated_Source\PSoC5/CapSense_CSD_CSHL.c **** *
 791:.\Generated_Source\PSoC5/CapSense_CSD_CSHL.c **** * Return:
 792:.\Generated_Source\PSoC5/CapSense_CSD_CSHL.c **** *  None
 793:.\Generated_Source\PSoC5/CapSense_CSD_CSHL.c **** *
 794:.\Generated_Source\PSoC5/CapSense_CSD_CSHL.c **** * Global Variables:
 795:.\Generated_Source\PSoC5/CapSense_CSD_CSHL.c **** *  CapSense_CSD_SensorEnableMask[] - used to store the sensor scanning 
 796:.\Generated_Source\PSoC5/CapSense_CSD_CSHL.c **** *  state.
 797:.\Generated_Source\PSoC5/CapSense_CSD_CSHL.c **** *  CapSense_CSD_SensorEnableMask[0] contains the masked bits for sensors 
 798:.\Generated_Source\PSoC5/CapSense_CSD_CSHL.c **** *  0 through 7 (sensor 0 is bit 0, sensor 1 is bit 1).
 799:.\Generated_Source\PSoC5/CapSense_CSD_CSHL.c **** *  CapSense_CSD_SensorEnableMask[1] contains the masked bits for 
 800:.\Generated_Source\PSoC5/CapSense_CSD_CSHL.c **** *  sensors 8 through 15 (if needed), and so on.
 801:.\Generated_Source\PSoC5/CapSense_CSD_CSHL.c **** *  0 - sensor doesn't scan by CapSense_CSD_ScanEnabledWidgets().
 802:.\Generated_Source\PSoC5/CapSense_CSD_CSHL.c **** *  1 - sensor scans by CapSense_CSD_ScanEnabledWidgets().
 803:.\Generated_Source\PSoC5/CapSense_CSD_CSHL.c **** *
 804:.\Generated_Source\PSoC5/CapSense_CSD_CSHL.c **** * Reentrant:
 805:.\Generated_Source\PSoC5/CapSense_CSD_CSHL.c **** *  No
 806:.\Generated_Source\PSoC5/CapSense_CSD_CSHL.c **** *
 807:.\Generated_Source\PSoC5/CapSense_CSD_CSHL.c **** *******************************************************************************/
 808:.\Generated_Source\PSoC5/CapSense_CSD_CSHL.c **** void CapSense_CSD_EnableWidget(uint8 widget)
 809:.\Generated_Source\PSoC5/CapSense_CSD_CSHL.c ****                                    
 810:.\Generated_Source\PSoC5/CapSense_CSD_CSHL.c **** {
 1003              		.loc 1 810 0
 1004              		.cfi_startproc
 1005              		@ args = 0, pretend = 0, frame = 16
ARM GAS  C:\Users\yguan5\AppData\Local\Temp\ccX3ogeL.s 			page 33


 1006              		@ frame_needed = 1, uses_anonymous_args = 0
 1007              		@ link register save eliminated.
 1008 0000 80B4     		push	{r7}
 1009              	.LCFI27:
 1010              		.cfi_def_cfa_offset 4
 1011 0002 85B0     		sub	sp, sp, #20
 1012              	.LCFI28:
 1013              		.cfi_def_cfa_offset 24
 1014 0004 00AF     		add	r7, sp, #0
 1015              		.cfi_offset 7, -4
 1016              	.LCFI29:
 1017              		.cfi_def_cfa_register 7
 1018 0006 0346     		mov	r3, r0
 1019 0008 FB71     		strb	r3, [r7, #7]
 811:.\Generated_Source\PSoC5/CapSense_CSD_CSHL.c ****     uint8 pos;
 812:.\Generated_Source\PSoC5/CapSense_CSD_CSHL.c ****     uint8 enMask;
 813:.\Generated_Source\PSoC5/CapSense_CSD_CSHL.c ****     uint8 rawIndex = CapSense_CSD_rawDataIndex[widget];
 1020              		.loc 1 813 0
 1021 000a FA79     		ldrb	r2, [r7, #7]	@ zero_extendqisi2
 1022 000c 40F20003 		movw	r3, #:lower16:CapSense_CSD_rawDataIndex
 1023 0010 C0F20003 		movt	r3, #:upper16:CapSense_CSD_rawDataIndex
 1024 0014 9B5C     		ldrb	r3, [r3, r2]
 1025 0016 BB73     		strb	r3, [r7, #14]
 814:.\Generated_Source\PSoC5/CapSense_CSD_CSHL.c ****     uint8 numberOfSensors = CapSense_CSD_numberOfSensors[widget] + rawIndex;
 1026              		.loc 1 814 0
 1027 0018 FA79     		ldrb	r2, [r7, #7]	@ zero_extendqisi2
 1028 001a 40F20003 		movw	r3, #:lower16:CapSense_CSD_numberOfSensors
 1029 001e C0F20003 		movt	r3, #:upper16:CapSense_CSD_numberOfSensors
 1030 0022 9A5C     		ldrb	r2, [r3, r2]	@ zero_extendqisi2
 1031 0024 BB7B     		ldrb	r3, [r7, #14]
 1032 0026 1344     		add	r3, r2, r3
 1033 0028 FB73     		strb	r3, [r7, #15]
 1034              	.L58:
 815:.\Generated_Source\PSoC5/CapSense_CSD_CSHL.c ****     
 816:.\Generated_Source\PSoC5/CapSense_CSD_CSHL.c ****     /* Enable all sensors of the widget */
 817:.\Generated_Source\PSoC5/CapSense_CSD_CSHL.c ****     do
 818:.\Generated_Source\PSoC5/CapSense_CSD_CSHL.c ****     {
 819:.\Generated_Source\PSoC5/CapSense_CSD_CSHL.c ****         pos = (rawIndex >> 3u);
 1035              		.loc 1 819 0
 1036 002a BB7B     		ldrb	r3, [r7, #14]	@ zero_extendqisi2
 1037 002c 4FEAD303 		lsr	r3, r3, #3
 1038 0030 3B73     		strb	r3, [r7, #12]
 820:.\Generated_Source\PSoC5/CapSense_CSD_CSHL.c ****         enMask = 0x01u << (rawIndex & 0x07u);
 1039              		.loc 1 820 0
 1040 0032 BB7B     		ldrb	r3, [r7, #14]	@ zero_extendqisi2
 1041 0034 03F00703 		and	r3, r3, #7
 1042 0038 4FF00102 		mov	r2, #1
 1043 003c 02FA03F3 		lsl	r3, r2, r3
 1044 0040 7B73     		strb	r3, [r7, #13]
 821:.\Generated_Source\PSoC5/CapSense_CSD_CSHL.c ****         
 822:.\Generated_Source\PSoC5/CapSense_CSD_CSHL.c ****         CapSense_CSD_SensorEnableMask[pos] |= enMask;
 1045              		.loc 1 822 0
 1046 0042 3A7B     		ldrb	r2, [r7, #12]	@ zero_extendqisi2
 1047 0044 397B     		ldrb	r1, [r7, #12]	@ zero_extendqisi2
 1048 0046 40F20003 		movw	r3, #:lower16:CapSense_CSD_SensorEnableMask
 1049 004a C0F20003 		movt	r3, #:upper16:CapSense_CSD_SensorEnableMask
 1050 004e 595C     		ldrb	r1, [r3, r1]	@ zero_extendqisi2
ARM GAS  C:\Users\yguan5\AppData\Local\Temp\ccX3ogeL.s 			page 34


 1051 0050 7B7B     		ldrb	r3, [r7, #13]
 1052 0052 41EA0303 		orr	r3, r1, r3
 1053 0056 D9B2     		uxtb	r1, r3
 1054 0058 40F20003 		movw	r3, #:lower16:CapSense_CSD_SensorEnableMask
 1055 005c C0F20003 		movt	r3, #:upper16:CapSense_CSD_SensorEnableMask
 1056 0060 9954     		strb	r1, [r3, r2]
 823:.\Generated_Source\PSoC5/CapSense_CSD_CSHL.c ****         rawIndex++;
 1057              		.loc 1 823 0
 1058 0062 BB7B     		ldrb	r3, [r7, #14]
 1059 0064 03F10103 		add	r3, r3, #1
 1060 0068 BB73     		strb	r3, [r7, #14]
 824:.\Generated_Source\PSoC5/CapSense_CSD_CSHL.c ****     }
 825:.\Generated_Source\PSoC5/CapSense_CSD_CSHL.c ****     while(rawIndex < numberOfSensors);
 1061              		.loc 1 825 0
 1062 006a BA7B     		ldrb	r2, [r7, #14]	@ zero_extendqisi2
 1063 006c FB7B     		ldrb	r3, [r7, #15]	@ zero_extendqisi2
 1064 006e 9A42     		cmp	r2, r3
 1065 0070 DBD3     		bcc	.L58
 826:.\Generated_Source\PSoC5/CapSense_CSD_CSHL.c ****     
 827:.\Generated_Source\PSoC5/CapSense_CSD_CSHL.c **** 
 828:.\Generated_Source\PSoC5/CapSense_CSD_CSHL.c **** }
 1066              		.loc 1 828 0
 1067 0072 07F11407 		add	r7, r7, #20
 1068 0076 BD46     		mov	sp, r7
 1069 0078 80BC     		pop	{r7}
 1070 007a 7047     		bx	lr
 1071              		.cfi_endproc
 1072              	.LFE9:
 1073              		.size	CapSense_CSD_EnableWidget, .-CapSense_CSD_EnableWidget
 1074              		.section	.text.CapSense_CSD_DisableWidget,"ax",%progbits
 1075              		.align	2
 1076              		.global	CapSense_CSD_DisableWidget
 1077              		.thumb
 1078              		.thumb_func
 1079              		.type	CapSense_CSD_DisableWidget, %function
 1080              	CapSense_CSD_DisableWidget:
 1081              	.LFB10:
 829:.\Generated_Source\PSoC5/CapSense_CSD_CSHL.c **** 
 830:.\Generated_Source\PSoC5/CapSense_CSD_CSHL.c **** 
 831:.\Generated_Source\PSoC5/CapSense_CSD_CSHL.c **** /*******************************************************************************
 832:.\Generated_Source\PSoC5/CapSense_CSD_CSHL.c **** * Function Name: CapSense_CSD_DisableWidget
 833:.\Generated_Source\PSoC5/CapSense_CSD_CSHL.c **** ********************************************************************************
 834:.\Generated_Source\PSoC5/CapSense_CSD_CSHL.c **** *
 835:.\Generated_Source\PSoC5/CapSense_CSD_CSHL.c **** * Summary:
 836:.\Generated_Source\PSoC5/CapSense_CSD_CSHL.c **** *  Disable all widget elements (sensors) from scanning process.
 837:.\Generated_Source\PSoC5/CapSense_CSD_CSHL.c **** *
 838:.\Generated_Source\PSoC5/CapSense_CSD_CSHL.c **** * Parameters:
 839:.\Generated_Source\PSoC5/CapSense_CSD_CSHL.c **** *  widget:  widget number.
 840:.\Generated_Source\PSoC5/CapSense_CSD_CSHL.c **** *
 841:.\Generated_Source\PSoC5/CapSense_CSD_CSHL.c **** * Return:
 842:.\Generated_Source\PSoC5/CapSense_CSD_CSHL.c **** *  None
 843:.\Generated_Source\PSoC5/CapSense_CSD_CSHL.c **** *
 844:.\Generated_Source\PSoC5/CapSense_CSD_CSHL.c **** * Global Variables:
 845:.\Generated_Source\PSoC5/CapSense_CSD_CSHL.c **** *  CapSense_CSD_SensorEnableMask[] - used to store the sensor scanning 
 846:.\Generated_Source\PSoC5/CapSense_CSD_CSHL.c **** *  state.
 847:.\Generated_Source\PSoC5/CapSense_CSD_CSHL.c **** *  CapSense_CSD_SensorEnableMask[0] contains the masked bits for sensors 
 848:.\Generated_Source\PSoC5/CapSense_CSD_CSHL.c **** *  0 through 7 (sensor 0 is bit 0, sensor 1 is bit 1).
ARM GAS  C:\Users\yguan5\AppData\Local\Temp\ccX3ogeL.s 			page 35


 849:.\Generated_Source\PSoC5/CapSense_CSD_CSHL.c **** *  CapSense_CSD_SensorEnableMask[1] contains the masked bits for 
 850:.\Generated_Source\PSoC5/CapSense_CSD_CSHL.c **** *  sensors 8 through 15 (if needed), and so on.
 851:.\Generated_Source\PSoC5/CapSense_CSD_CSHL.c **** *  0 - sensor doesn't scan by CapSense_CSD_ScanEnabledWidgets().
 852:.\Generated_Source\PSoC5/CapSense_CSD_CSHL.c **** *  1 - sensor scans by CapSense_CSD_ScanEnabledWidgets().
 853:.\Generated_Source\PSoC5/CapSense_CSD_CSHL.c **** *
 854:.\Generated_Source\PSoC5/CapSense_CSD_CSHL.c **** * Reentrant:
 855:.\Generated_Source\PSoC5/CapSense_CSD_CSHL.c **** *  No
 856:.\Generated_Source\PSoC5/CapSense_CSD_CSHL.c **** *
 857:.\Generated_Source\PSoC5/CapSense_CSD_CSHL.c **** *******************************************************************************/
 858:.\Generated_Source\PSoC5/CapSense_CSD_CSHL.c **** void CapSense_CSD_DisableWidget(uint8 widget)
 859:.\Generated_Source\PSoC5/CapSense_CSD_CSHL.c ****                                     
 860:.\Generated_Source\PSoC5/CapSense_CSD_CSHL.c **** {
 1082              		.loc 1 860 0
 1083              		.cfi_startproc
 1084              		@ args = 0, pretend = 0, frame = 16
 1085              		@ frame_needed = 1, uses_anonymous_args = 0
 1086              		@ link register save eliminated.
 1087 0000 80B4     		push	{r7}
 1088              	.LCFI30:
 1089              		.cfi_def_cfa_offset 4
 1090 0002 85B0     		sub	sp, sp, #20
 1091              	.LCFI31:
 1092              		.cfi_def_cfa_offset 24
 1093 0004 00AF     		add	r7, sp, #0
 1094              		.cfi_offset 7, -4
 1095              	.LCFI32:
 1096              		.cfi_def_cfa_register 7
 1097 0006 0346     		mov	r3, r0
 1098 0008 FB71     		strb	r3, [r7, #7]
 861:.\Generated_Source\PSoC5/CapSense_CSD_CSHL.c ****     uint8 pos;
 862:.\Generated_Source\PSoC5/CapSense_CSD_CSHL.c ****     uint8 enMask;
 863:.\Generated_Source\PSoC5/CapSense_CSD_CSHL.c ****     uint8 rawIndex = CapSense_CSD_rawDataIndex[widget];
 1099              		.loc 1 863 0
 1100 000a FA79     		ldrb	r2, [r7, #7]	@ zero_extendqisi2
 1101 000c 40F20003 		movw	r3, #:lower16:CapSense_CSD_rawDataIndex
 1102 0010 C0F20003 		movt	r3, #:upper16:CapSense_CSD_rawDataIndex
 1103 0014 9B5C     		ldrb	r3, [r3, r2]
 1104 0016 BB73     		strb	r3, [r7, #14]
 864:.\Generated_Source\PSoC5/CapSense_CSD_CSHL.c ****     uint8 numberOfSensors = CapSense_CSD_numberOfSensors[widget] + rawIndex;
 1105              		.loc 1 864 0
 1106 0018 FA79     		ldrb	r2, [r7, #7]	@ zero_extendqisi2
 1107 001a 40F20003 		movw	r3, #:lower16:CapSense_CSD_numberOfSensors
 1108 001e C0F20003 		movt	r3, #:upper16:CapSense_CSD_numberOfSensors
 1109 0022 9A5C     		ldrb	r2, [r3, r2]	@ zero_extendqisi2
 1110 0024 BB7B     		ldrb	r3, [r7, #14]
 1111 0026 1344     		add	r3, r2, r3
 1112 0028 FB73     		strb	r3, [r7, #15]
 1113              	.L61:
 865:.\Generated_Source\PSoC5/CapSense_CSD_CSHL.c ****    
 866:.\Generated_Source\PSoC5/CapSense_CSD_CSHL.c ****     /* Disable all sensors of the widget */
 867:.\Generated_Source\PSoC5/CapSense_CSD_CSHL.c ****     do
 868:.\Generated_Source\PSoC5/CapSense_CSD_CSHL.c ****     {
 869:.\Generated_Source\PSoC5/CapSense_CSD_CSHL.c ****         pos = (rawIndex >> 3u);
 1114              		.loc 1 869 0
 1115 002a BB7B     		ldrb	r3, [r7, #14]	@ zero_extendqisi2
 1116 002c 4FEAD303 		lsr	r3, r3, #3
 1117 0030 3B73     		strb	r3, [r7, #12]
ARM GAS  C:\Users\yguan5\AppData\Local\Temp\ccX3ogeL.s 			page 36


 870:.\Generated_Source\PSoC5/CapSense_CSD_CSHL.c ****         enMask = 0x01u << (rawIndex & 0x07u);
 1118              		.loc 1 870 0
 1119 0032 BB7B     		ldrb	r3, [r7, #14]	@ zero_extendqisi2
 1120 0034 03F00703 		and	r3, r3, #7
 1121 0038 4FF00102 		mov	r2, #1
 1122 003c 02FA03F3 		lsl	r3, r2, r3
 1123 0040 7B73     		strb	r3, [r7, #13]
 871:.\Generated_Source\PSoC5/CapSense_CSD_CSHL.c ****         
 872:.\Generated_Source\PSoC5/CapSense_CSD_CSHL.c ****         CapSense_CSD_SensorEnableMask[pos] &= ~enMask;
 1124              		.loc 1 872 0
 1125 0042 3A7B     		ldrb	r2, [r7, #12]	@ zero_extendqisi2
 1126 0044 397B     		ldrb	r1, [r7, #12]	@ zero_extendqisi2
 1127 0046 40F20003 		movw	r3, #:lower16:CapSense_CSD_SensorEnableMask
 1128 004a C0F20003 		movt	r3, #:upper16:CapSense_CSD_SensorEnableMask
 1129 004e 5B5C     		ldrb	r3, [r3, r1]	@ zero_extendqisi2
 1130 0050 1946     		mov	r1, r3
 1131 0052 7B7B     		ldrb	r3, [r7, #13]	@ zero_extendqisi2
 1132 0054 6FEA0303 		mvn	r3, r3
 1133 0058 DBB2     		uxtb	r3, r3
 1134 005a 01EA0303 		and	r3, r1, r3
 1135 005e DBB2     		uxtb	r3, r3
 1136 0060 D9B2     		uxtb	r1, r3
 1137 0062 40F20003 		movw	r3, #:lower16:CapSense_CSD_SensorEnableMask
 1138 0066 C0F20003 		movt	r3, #:upper16:CapSense_CSD_SensorEnableMask
 1139 006a 9954     		strb	r1, [r3, r2]
 873:.\Generated_Source\PSoC5/CapSense_CSD_CSHL.c ****         rawIndex++;
 1140              		.loc 1 873 0
 1141 006c BB7B     		ldrb	r3, [r7, #14]
 1142 006e 03F10103 		add	r3, r3, #1
 1143 0072 BB73     		strb	r3, [r7, #14]
 874:.\Generated_Source\PSoC5/CapSense_CSD_CSHL.c ****     }
 875:.\Generated_Source\PSoC5/CapSense_CSD_CSHL.c ****     while(rawIndex < numberOfSensors);
 1144              		.loc 1 875 0
 1145 0074 BA7B     		ldrb	r2, [r7, #14]	@ zero_extendqisi2
 1146 0076 FB7B     		ldrb	r3, [r7, #15]	@ zero_extendqisi2
 1147 0078 9A42     		cmp	r2, r3
 1148 007a D6D3     		bcc	.L61
 876:.\Generated_Source\PSoC5/CapSense_CSD_CSHL.c ****     
 877:.\Generated_Source\PSoC5/CapSense_CSD_CSHL.c **** 
 878:.\Generated_Source\PSoC5/CapSense_CSD_CSHL.c **** }
 1149              		.loc 1 878 0
 1150 007c 07F11407 		add	r7, r7, #20
 1151 0080 BD46     		mov	sp, r7
 1152 0082 80BC     		pop	{r7}
 1153 0084 7047     		bx	lr
 1154              		.cfi_endproc
 1155              	.LFE10:
 1156              		.size	CapSense_CSD_DisableWidget, .-CapSense_CSD_DisableWidget
 1157 0086 00BF     		.section	.text.CapSense_CSD_FindMaximum,"ax",%progbits
 1158              		.align	2
 1159              		.global	CapSense_CSD_FindMaximum
 1160              		.thumb
 1161              		.thumb_func
 1162              		.type	CapSense_CSD_FindMaximum, %function
 1163              	CapSense_CSD_FindMaximum:
 1164              	.LFB11:
 879:.\Generated_Source\PSoC5/CapSense_CSD_CSHL.c **** #if(CapSense_CSD_TOTAL_CENTROIDS_COUNT)
ARM GAS  C:\Users\yguan5\AppData\Local\Temp\ccX3ogeL.s 			page 37


 880:.\Generated_Source\PSoC5/CapSense_CSD_CSHL.c ****     /*******************************************************************************
 881:.\Generated_Source\PSoC5/CapSense_CSD_CSHL.c ****     * Function Name: CapSense_CSD_FindMaximum
 882:.\Generated_Source\PSoC5/CapSense_CSD_CSHL.c ****     ********************************************************************************
 883:.\Generated_Source\PSoC5/CapSense_CSD_CSHL.c ****     *
 884:.\Generated_Source\PSoC5/CapSense_CSD_CSHL.c ****     * Summary:
 885:.\Generated_Source\PSoC5/CapSense_CSD_CSHL.c ****     *  Finds index of maximum element within defined centroid. Checks 
 886:.\Generated_Source\PSoC5/CapSense_CSD_CSHL.c ****     *  CapSense_CSD_SensorSignal[] within defined cenrtoid and 
 887:.\Generated_Source\PSoC5/CapSense_CSD_CSHL.c ****     *  returns index of maximum element. The values below finger threshold are 
 888:.\Generated_Source\PSoC5/CapSense_CSD_CSHL.c ****     *  ignored.
 889:.\Generated_Source\PSoC5/CapSense_CSD_CSHL.c ****     *  The centrod defines by offset of first element and number of elements - count.
 890:.\Generated_Source\PSoC5/CapSense_CSD_CSHL.c ****     *  The diplexed centroid requires at least consecutive two elements above
 891:.\Generated_Source\PSoC5/CapSense_CSD_CSHL.c ****     *  FingerThreshold to find index of maximum element.
 892:.\Generated_Source\PSoC5/CapSense_CSD_CSHL.c ****     * 
 893:.\Generated_Source\PSoC5/CapSense_CSD_CSHL.c ****     * Parameters:
 894:.\Generated_Source\PSoC5/CapSense_CSD_CSHL.c ****     *  offset:  Start index of cetroid in CapSense_CSD_SensorSignal[] array.
 895:.\Generated_Source\PSoC5/CapSense_CSD_CSHL.c ****     *  count:   number of elements within centroid.
 896:.\Generated_Source\PSoC5/CapSense_CSD_CSHL.c ****     *  fingerThreshold:  Finger threshould.
 897:.\Generated_Source\PSoC5/CapSense_CSD_CSHL.c ****     *  diplex:   pointer to diplex table.
 898:.\Generated_Source\PSoC5/CapSense_CSD_CSHL.c ****     * 
 899:.\Generated_Source\PSoC5/CapSense_CSD_CSHL.c ****     * Return:
 900:.\Generated_Source\PSoC5/CapSense_CSD_CSHL.c ****     *  Returns index of maximum element within defined centroid.
 901:.\Generated_Source\PSoC5/CapSense_CSD_CSHL.c ****     *  If index of maximum element doesn't find the 0xFF returns.
 902:.\Generated_Source\PSoC5/CapSense_CSD_CSHL.c ****     * 
 903:.\Generated_Source\PSoC5/CapSense_CSD_CSHL.c ****     *******************************************************************************/
 904:.\Generated_Source\PSoC5/CapSense_CSD_CSHL.c ****     #if (CapSense_CSD_IS_DIPLEX_SLIDER)
 905:.\Generated_Source\PSoC5/CapSense_CSD_CSHL.c ****         uint8 CapSense_CSD_FindMaximum(uint8 offset, uint8 count, uint8 fingerThreshold, const uint
 906:.\Generated_Source\PSoC5/CapSense_CSD_CSHL.c **** 	                                       
 907:.\Generated_Source\PSoC5/CapSense_CSD_CSHL.c ****     #else 
 908:.\Generated_Source\PSoC5/CapSense_CSD_CSHL.c ****         uint8 CapSense_CSD_FindMaximum(uint8 offset, uint8 count, uint8 fingerThreshold)
 909:.\Generated_Source\PSoC5/CapSense_CSD_CSHL.c **** 	                                       
 910:.\Generated_Source\PSoC5/CapSense_CSD_CSHL.c ****     #endif /* (CapSense_CSD_IS_DIPLEX_SLIDER) */
 911:.\Generated_Source\PSoC5/CapSense_CSD_CSHL.c ****     {
 1165              		.loc 1 911 0
 1166              		.cfi_startproc
 1167              		@ args = 0, pretend = 0, frame = 16
 1168              		@ frame_needed = 1, uses_anonymous_args = 0
 1169              		@ link register save eliminated.
 1170 0000 80B4     		push	{r7}
 1171              	.LCFI33:
 1172              		.cfi_def_cfa_offset 4
 1173 0002 85B0     		sub	sp, sp, #20
 1174              	.LCFI34:
 1175              		.cfi_def_cfa_offset 24
 1176 0004 00AF     		add	r7, sp, #0
 1177              		.cfi_offset 7, -4
 1178              	.LCFI35:
 1179              		.cfi_def_cfa_register 7
 1180 0006 1346     		mov	r3, r2
 1181 0008 0246     		mov	r2, r0
 1182 000a FA71     		strb	r2, [r7, #7]
 1183 000c 0A46     		mov	r2, r1
 1184 000e BA71     		strb	r2, [r7, #6]
 1185 0010 7B71     		strb	r3, [r7, #5]
 912:.\Generated_Source\PSoC5/CapSense_CSD_CSHL.c ****         uint8 i;
 913:.\Generated_Source\PSoC5/CapSense_CSD_CSHL.c ****         #if (CapSense_CSD_IS_DIPLEX_SLIDER)        
 914:.\Generated_Source\PSoC5/CapSense_CSD_CSHL.c ****             uint8 curPos = 0u;
 915:.\Generated_Source\PSoC5/CapSense_CSD_CSHL.c ****             /* No centroid at the Start */
ARM GAS  C:\Users\yguan5\AppData\Local\Temp\ccX3ogeL.s 			page 38


 916:.\Generated_Source\PSoC5/CapSense_CSD_CSHL.c ****             uint8 curCntrdSize = 0u;
 917:.\Generated_Source\PSoC5/CapSense_CSD_CSHL.c ****             uint8 curCtrdStartPos = 0xFFu;
 918:.\Generated_Source\PSoC5/CapSense_CSD_CSHL.c ****             /* The biggset centroid is zero */
 919:.\Generated_Source\PSoC5/CapSense_CSD_CSHL.c ****             uint8 biggestCtrdSize = 0u;
 920:.\Generated_Source\PSoC5/CapSense_CSD_CSHL.c ****             uint8 biggestCtrdStartPos = 0u;
 921:.\Generated_Source\PSoC5/CapSense_CSD_CSHL.c ****         #endif /* (CapSense_CSD_IS_DIPLEX_SLIDER) */
 922:.\Generated_Source\PSoC5/CapSense_CSD_CSHL.c ****         uint8 maximum = 0xFFu;
 1186              		.loc 1 922 0
 1187 0012 4FF0FF33 		mov	r3, #-1
 1188 0016 BB72     		strb	r3, [r7, #10]
 923:.\Generated_Source\PSoC5/CapSense_CSD_CSHL.c ****         uint8 temp = 0u;
 1189              		.loc 1 923 0
 1190 0018 4FF00003 		mov	r3, #0
 1191 001c FB72     		strb	r3, [r7, #11]
 924:.\Generated_Source\PSoC5/CapSense_CSD_CSHL.c ****         uint8 *startOfSlider = &CapSense_CSD_SensorSignal[offset]; 
 1192              		.loc 1 924 0
 1193 001e FA79     		ldrb	r2, [r7, #7]	@ zero_extendqisi2
 1194 0020 40F20003 		movw	r3, #:lower16:CapSense_CSD_SensorSignal
 1195 0024 C0F20003 		movt	r3, #:upper16:CapSense_CSD_SensorSignal
 1196 0028 1344     		add	r3, r2, r3
 1197 002a FB60     		str	r3, [r7, #12]
 925:.\Generated_Source\PSoC5/CapSense_CSD_CSHL.c **** 
 926:.\Generated_Source\PSoC5/CapSense_CSD_CSHL.c ****         #if (CapSense_CSD_IS_DIPLEX_SLIDER)        
 927:.\Generated_Source\PSoC5/CapSense_CSD_CSHL.c ****             if(diplex != 0u)
 928:.\Generated_Source\PSoC5/CapSense_CSD_CSHL.c ****             {
 929:.\Generated_Source\PSoC5/CapSense_CSD_CSHL.c ****                 /* Initialize */
 930:.\Generated_Source\PSoC5/CapSense_CSD_CSHL.c ****                 i = 0u;
 931:.\Generated_Source\PSoC5/CapSense_CSD_CSHL.c ****                 
 932:.\Generated_Source\PSoC5/CapSense_CSD_CSHL.c ****                 /* Make slider x2 as Diplexed */
 933:.\Generated_Source\PSoC5/CapSense_CSD_CSHL.c ****                 count <<= 1u;
 934:.\Generated_Source\PSoC5/CapSense_CSD_CSHL.c ****                 while(1u)
 935:.\Generated_Source\PSoC5/CapSense_CSD_CSHL.c ****                 { 
 936:.\Generated_Source\PSoC5/CapSense_CSD_CSHL.c ****                     if (startOfSlider[curPos] > 0u)    /* Looking for centroids */
 937:.\Generated_Source\PSoC5/CapSense_CSD_CSHL.c ****                     {
 938:.\Generated_Source\PSoC5/CapSense_CSD_CSHL.c ****                         if (curCtrdStartPos == 0xFFu)
 939:.\Generated_Source\PSoC5/CapSense_CSD_CSHL.c ****                         {
 940:.\Generated_Source\PSoC5/CapSense_CSD_CSHL.c ****                             /* Start of centroid */
 941:.\Generated_Source\PSoC5/CapSense_CSD_CSHL.c ****                             curCtrdStartPos = i;
 942:.\Generated_Source\PSoC5/CapSense_CSD_CSHL.c ****                             curCntrdSize++;
 943:.\Generated_Source\PSoC5/CapSense_CSD_CSHL.c ****                         }
 944:.\Generated_Source\PSoC5/CapSense_CSD_CSHL.c ****                         else
 945:.\Generated_Source\PSoC5/CapSense_CSD_CSHL.c ****                         {
 946:.\Generated_Source\PSoC5/CapSense_CSD_CSHL.c ****                             curCntrdSize++;
 947:.\Generated_Source\PSoC5/CapSense_CSD_CSHL.c ****                         }
 948:.\Generated_Source\PSoC5/CapSense_CSD_CSHL.c ****                     }
 949:.\Generated_Source\PSoC5/CapSense_CSD_CSHL.c ****                     else   /* Select the bigest and indicate zero start */
 950:.\Generated_Source\PSoC5/CapSense_CSD_CSHL.c ****                     {          
 951:.\Generated_Source\PSoC5/CapSense_CSD_CSHL.c ****                         if(curCntrdSize > 0)
 952:.\Generated_Source\PSoC5/CapSense_CSD_CSHL.c ****                         {
 953:.\Generated_Source\PSoC5/CapSense_CSD_CSHL.c ****                             /* We are in the end of current */
 954:.\Generated_Source\PSoC5/CapSense_CSD_CSHL.c ****                             if(curCntrdSize > biggestCtrdSize)
 955:.\Generated_Source\PSoC5/CapSense_CSD_CSHL.c ****                             {
 956:.\Generated_Source\PSoC5/CapSense_CSD_CSHL.c ****                                 biggestCtrdSize = curCntrdSize;
 957:.\Generated_Source\PSoC5/CapSense_CSD_CSHL.c ****                                 biggestCtrdStartPos = curCtrdStartPos;
 958:.\Generated_Source\PSoC5/CapSense_CSD_CSHL.c ****                             }
 959:.\Generated_Source\PSoC5/CapSense_CSD_CSHL.c ****                             
 960:.\Generated_Source\PSoC5/CapSense_CSD_CSHL.c ****                             curCntrdSize = 0u;
ARM GAS  C:\Users\yguan5\AppData\Local\Temp\ccX3ogeL.s 			page 39


 961:.\Generated_Source\PSoC5/CapSense_CSD_CSHL.c ****                             curCtrdStartPos = 0xFFu;
 962:.\Generated_Source\PSoC5/CapSense_CSD_CSHL.c ****                         }
 963:.\Generated_Source\PSoC5/CapSense_CSD_CSHL.c ****                     }
 964:.\Generated_Source\PSoC5/CapSense_CSD_CSHL.c ****                     
 965:.\Generated_Source\PSoC5/CapSense_CSD_CSHL.c ****                     i++; 
 966:.\Generated_Source\PSoC5/CapSense_CSD_CSHL.c ****                     curPos = diplex[i];
 967:.\Generated_Source\PSoC5/CapSense_CSD_CSHL.c ****                     if(i == count)
 968:.\Generated_Source\PSoC5/CapSense_CSD_CSHL.c ****                     {
 969:.\Generated_Source\PSoC5/CapSense_CSD_CSHL.c ****                         break;
 970:.\Generated_Source\PSoC5/CapSense_CSD_CSHL.c ****                     }            
 971:.\Generated_Source\PSoC5/CapSense_CSD_CSHL.c ****                 }
 972:.\Generated_Source\PSoC5/CapSense_CSD_CSHL.c ****                     
 973:.\Generated_Source\PSoC5/CapSense_CSD_CSHL.c ****                     /* Find the biggest centroid if two are the same size, last one wins
 974:.\Generated_Source\PSoC5/CapSense_CSD_CSHL.c ****                        We are in the end of current */
 975:.\Generated_Source\PSoC5/CapSense_CSD_CSHL.c ****                 if (curCntrdSize >= biggestCtrdSize) 
 976:.\Generated_Source\PSoC5/CapSense_CSD_CSHL.c ****                 {
 977:.\Generated_Source\PSoC5/CapSense_CSD_CSHL.c ****                     biggestCtrdSize = curCntrdSize;
 978:.\Generated_Source\PSoC5/CapSense_CSD_CSHL.c ****                     biggestCtrdStartPos = curCtrdStartPos;
 979:.\Generated_Source\PSoC5/CapSense_CSD_CSHL.c ****                 }
 980:.\Generated_Source\PSoC5/CapSense_CSD_CSHL.c ****             }
 981:.\Generated_Source\PSoC5/CapSense_CSD_CSHL.c ****             else
 982:.\Generated_Source\PSoC5/CapSense_CSD_CSHL.c ****             {
 983:.\Generated_Source\PSoC5/CapSense_CSD_CSHL.c ****                 /* Without diplexing */ 
 984:.\Generated_Source\PSoC5/CapSense_CSD_CSHL.c ****                 biggestCtrdSize = count;
 985:.\Generated_Source\PSoC5/CapSense_CSD_CSHL.c ****             }
 986:.\Generated_Source\PSoC5/CapSense_CSD_CSHL.c ****                         
 987:.\Generated_Source\PSoC5/CapSense_CSD_CSHL.c **** 
 988:.\Generated_Source\PSoC5/CapSense_CSD_CSHL.c ****             /* Check centroid size */
 989:.\Generated_Source\PSoC5/CapSense_CSD_CSHL.c ****             #if (CapSense_CSD_IS_NON_DIPLEX_SLIDER)
 990:.\Generated_Source\PSoC5/CapSense_CSD_CSHL.c ****                 if((biggestCtrdSize >= 2u) || ((biggestCtrdSize == 1u) && (diplex == 0u)))
 991:.\Generated_Source\PSoC5/CapSense_CSD_CSHL.c ****             #else                    
 992:.\Generated_Source\PSoC5/CapSense_CSD_CSHL.c ****                 if(biggestCtrdSize >= 2u)
 993:.\Generated_Source\PSoC5/CapSense_CSD_CSHL.c ****             #endif /* (CapSense_CSD_IS_NON_DIPLEX_SLIDER) */
 994:.\Generated_Source\PSoC5/CapSense_CSD_CSHL.c ****                 {
 995:.\Generated_Source\PSoC5/CapSense_CSD_CSHL.c ****                     for (i = biggestCtrdStartPos; i < (biggestCtrdStartPos + biggestCtrdSize); i++)
 996:.\Generated_Source\PSoC5/CapSense_CSD_CSHL.c ****                     {
 997:.\Generated_Source\PSoC5/CapSense_CSD_CSHL.c ****                         #if (CapSense_CSD_IS_DIPLEX_SLIDER && CapSense_CSD_IS_NON_DIPLEX_SLIDER)
 998:.\Generated_Source\PSoC5/CapSense_CSD_CSHL.c ****                             if (diplex == 0u)
 999:.\Generated_Source\PSoC5/CapSense_CSD_CSHL.c ****                             {
1000:.\Generated_Source\PSoC5/CapSense_CSD_CSHL.c ****                                 curPos = i;
1001:.\Generated_Source\PSoC5/CapSense_CSD_CSHL.c ****                             }
1002:.\Generated_Source\PSoC5/CapSense_CSD_CSHL.c ****                             else
1003:.\Generated_Source\PSoC5/CapSense_CSD_CSHL.c ****                             {
1004:.\Generated_Source\PSoC5/CapSense_CSD_CSHL.c ****                                 curPos = diplex[i];
1005:.\Generated_Source\PSoC5/CapSense_CSD_CSHL.c ****                             }                    
1006:.\Generated_Source\PSoC5/CapSense_CSD_CSHL.c ****                         #elif (CapSense_CSD_IS_DIPLEX_SLIDER)                    
1007:.\Generated_Source\PSoC5/CapSense_CSD_CSHL.c ****                             curPos = diplex[i];                    
1008:.\Generated_Source\PSoC5/CapSense_CSD_CSHL.c ****                         #endif /* (CapSense_CSD_IS_DIPLEX_SLIDER && CapSense_CSD_IS_NON_DIPLEX_SLID
1009:.\Generated_Source\PSoC5/CapSense_CSD_CSHL.c ****                         /* Looking for the grater element within centroid */
1010:.\Generated_Source\PSoC5/CapSense_CSD_CSHL.c ****                         if(startOfSlider[curPos] > fingerThreshold)
1011:.\Generated_Source\PSoC5/CapSense_CSD_CSHL.c ****                         {
1012:.\Generated_Source\PSoC5/CapSense_CSD_CSHL.c ****                             if(startOfSlider[curPos] > temp)
1013:.\Generated_Source\PSoC5/CapSense_CSD_CSHL.c ****                             {
1014:.\Generated_Source\PSoC5/CapSense_CSD_CSHL.c ****                                 maximum = i;
1015:.\Generated_Source\PSoC5/CapSense_CSD_CSHL.c ****                                 temp = startOfSlider[curPos];
1016:.\Generated_Source\PSoC5/CapSense_CSD_CSHL.c ****                             }
1017:.\Generated_Source\PSoC5/CapSense_CSD_CSHL.c ****                         }
ARM GAS  C:\Users\yguan5\AppData\Local\Temp\ccX3ogeL.s 			page 40


1018:.\Generated_Source\PSoC5/CapSense_CSD_CSHL.c ****                     }
1019:.\Generated_Source\PSoC5/CapSense_CSD_CSHL.c ****                 } 
1020:.\Generated_Source\PSoC5/CapSense_CSD_CSHL.c ****         #else
1021:.\Generated_Source\PSoC5/CapSense_CSD_CSHL.c ****             for (i = 0u; i < count; i++)
 1198              		.loc 1 1021 0
 1199 002c 4FF00003 		mov	r3, #0
 1200 0030 7B72     		strb	r3, [r7, #9]
 1201 0032 18E0     		b	.L64
 1202              	.L66:
1022:.\Generated_Source\PSoC5/CapSense_CSD_CSHL.c ****             {                      
1023:.\Generated_Source\PSoC5/CapSense_CSD_CSHL.c ****                 /* Looking for the grater element within centroid */
1024:.\Generated_Source\PSoC5/CapSense_CSD_CSHL.c ****                 if(startOfSlider[i] > fingerThreshold)
 1203              		.loc 1 1024 0
 1204 0034 7A7A     		ldrb	r2, [r7, #9]	@ zero_extendqisi2
 1205 0036 FB68     		ldr	r3, [r7, #12]
 1206 0038 1344     		add	r3, r2, r3
 1207 003a 1B78     		ldrb	r3, [r3, #0]	@ zero_extendqisi2
 1208 003c 7A79     		ldrb	r2, [r7, #5]	@ zero_extendqisi2
 1209 003e 9A42     		cmp	r2, r3
 1210 0040 0DD2     		bcs	.L65
1025:.\Generated_Source\PSoC5/CapSense_CSD_CSHL.c ****                 {
1026:.\Generated_Source\PSoC5/CapSense_CSD_CSHL.c ****                     if(startOfSlider[i] > temp)
 1211              		.loc 1 1026 0
 1212 0042 7A7A     		ldrb	r2, [r7, #9]	@ zero_extendqisi2
 1213 0044 FB68     		ldr	r3, [r7, #12]
 1214 0046 1344     		add	r3, r2, r3
 1215 0048 1B78     		ldrb	r3, [r3, #0]	@ zero_extendqisi2
 1216 004a FA7A     		ldrb	r2, [r7, #11]	@ zero_extendqisi2
 1217 004c 9A42     		cmp	r2, r3
 1218 004e 06D2     		bcs	.L65
1027:.\Generated_Source\PSoC5/CapSense_CSD_CSHL.c ****                     {
1028:.\Generated_Source\PSoC5/CapSense_CSD_CSHL.c ****                         maximum = i;
 1219              		.loc 1 1028 0
 1220 0050 7B7A     		ldrb	r3, [r7, #9]
 1221 0052 BB72     		strb	r3, [r7, #10]
1029:.\Generated_Source\PSoC5/CapSense_CSD_CSHL.c ****                         temp = startOfSlider[i];
 1222              		.loc 1 1029 0
 1223 0054 7A7A     		ldrb	r2, [r7, #9]	@ zero_extendqisi2
 1224 0056 FB68     		ldr	r3, [r7, #12]
 1225 0058 1344     		add	r3, r2, r3
 1226 005a 1B78     		ldrb	r3, [r3, #0]
 1227 005c FB72     		strb	r3, [r7, #11]
 1228              	.L65:
 1229              		.loc 1 1021 0
 1230 005e 7B7A     		ldrb	r3, [r7, #9]
 1231 0060 03F10103 		add	r3, r3, #1
 1232 0064 7B72     		strb	r3, [r7, #9]
 1233              	.L64:
 1234 0066 7A7A     		ldrb	r2, [r7, #9]	@ zero_extendqisi2
 1235 0068 BB79     		ldrb	r3, [r7, #6]	@ zero_extendqisi2
 1236 006a 9A42     		cmp	r2, r3
 1237 006c E2D3     		bcc	.L66
1030:.\Generated_Source\PSoC5/CapSense_CSD_CSHL.c ****                     }
1031:.\Generated_Source\PSoC5/CapSense_CSD_CSHL.c ****                 }
1032:.\Generated_Source\PSoC5/CapSense_CSD_CSHL.c ****             }    
1033:.\Generated_Source\PSoC5/CapSense_CSD_CSHL.c ****         #endif /* (CapSense_CSD_IS_DIPLEX_SLIDER) */
1034:.\Generated_Source\PSoC5/CapSense_CSD_CSHL.c ****         return (maximum);
ARM GAS  C:\Users\yguan5\AppData\Local\Temp\ccX3ogeL.s 			page 41


 1238              		.loc 1 1034 0
 1239 006e BB7A     		ldrb	r3, [r7, #10]	@ zero_extendqisi2
1035:.\Generated_Source\PSoC5/CapSense_CSD_CSHL.c ****     }
 1240              		.loc 1 1035 0
 1241 0070 1846     		mov	r0, r3
 1242 0072 07F11407 		add	r7, r7, #20
 1243 0076 BD46     		mov	sp, r7
 1244 0078 80BC     		pop	{r7}
 1245 007a 7047     		bx	lr
 1246              		.cfi_endproc
 1247              	.LFE11:
 1248              		.size	CapSense_CSD_FindMaximum, .-CapSense_CSD_FindMaximum
 1249              		.section	.text.CapSense_CSD_CalcCentroid,"ax",%progbits
 1250              		.align	2
 1251              		.global	CapSense_CSD_CalcCentroid
 1252              		.thumb
 1253              		.thumb_func
 1254              		.type	CapSense_CSD_CalcCentroid, %function
 1255              	CapSense_CSD_CalcCentroid:
 1256              	.LFB12:
1036:.\Generated_Source\PSoC5/CapSense_CSD_CSHL.c ****     
1037:.\Generated_Source\PSoC5/CapSense_CSD_CSHL.c ****     
1038:.\Generated_Source\PSoC5/CapSense_CSD_CSHL.c ****     /*******************************************************************************
1039:.\Generated_Source\PSoC5/CapSense_CSD_CSHL.c ****     * Function Name: CapSense_CSD_CalcCentroid
1040:.\Generated_Source\PSoC5/CapSense_CSD_CSHL.c ****     ********************************************************************************
1041:.\Generated_Source\PSoC5/CapSense_CSD_CSHL.c ****     *
1042:.\Generated_Source\PSoC5/CapSense_CSD_CSHL.c ****     * Summary:
1043:.\Generated_Source\PSoC5/CapSense_CSD_CSHL.c ****     *  Returns position value calculated accoring index of maximum element and API
1044:.\Generated_Source\PSoC5/CapSense_CSD_CSHL.c ****     *  resolution.
1045:.\Generated_Source\PSoC5/CapSense_CSD_CSHL.c ****     *
1046:.\Generated_Source\PSoC5/CapSense_CSD_CSHL.c ****     * Parameters:
1047:.\Generated_Source\PSoC5/CapSense_CSD_CSHL.c ****     *  type:  widget type.
1048:.\Generated_Source\PSoC5/CapSense_CSD_CSHL.c ****     *  diplex:  pointer to diplex table.
1049:.\Generated_Source\PSoC5/CapSense_CSD_CSHL.c ****     *  maximum:  Index of maximum element within centroid.
1050:.\Generated_Source\PSoC5/CapSense_CSD_CSHL.c ****     *  offset:   Start index of cetroid in CapSense_CSD_SensorSignal[] array.
1051:.\Generated_Source\PSoC5/CapSense_CSD_CSHL.c ****     *  count:    Number of elements within centroid.
1052:.\Generated_Source\PSoC5/CapSense_CSD_CSHL.c ****     *  resolution:  multiplicator calculated according to centroid type and
1053:.\Generated_Source\PSoC5/CapSense_CSD_CSHL.c ****     *  API resolution.
1054:.\Generated_Source\PSoC5/CapSense_CSD_CSHL.c ****     *  noiseThreshold:  Noise threshould.
1055:.\Generated_Source\PSoC5/CapSense_CSD_CSHL.c ****     * 
1056:.\Generated_Source\PSoC5/CapSense_CSD_CSHL.c ****     * Return:
1057:.\Generated_Source\PSoC5/CapSense_CSD_CSHL.c ****     *  Returns position value of the slider.
1058:.\Generated_Source\PSoC5/CapSense_CSD_CSHL.c ****     * 
1059:.\Generated_Source\PSoC5/CapSense_CSD_CSHL.c ****     *
1060:.\Generated_Source\PSoC5/CapSense_CSD_CSHL.c ****     * Reentrant:
1061:.\Generated_Source\PSoC5/CapSense_CSD_CSHL.c ****     *  No.
1062:.\Generated_Source\PSoC5/CapSense_CSD_CSHL.c ****     *
1063:.\Generated_Source\PSoC5/CapSense_CSD_CSHL.c ****     *******************************************************************************/
1064:.\Generated_Source\PSoC5/CapSense_CSD_CSHL.c ****     uint8 CapSense_CSD_CalcCentroid(uint8 maximum, uint8 offset, 
1065:.\Generated_Source\PSoC5/CapSense_CSD_CSHL.c ****                                         uint8 count, uint16 resolution, uint8 noiseThreshold)
1066:.\Generated_Source\PSoC5/CapSense_CSD_CSHL.c **** 	                                    
1067:.\Generated_Source\PSoC5/CapSense_CSD_CSHL.c ****     {
 1257              		.loc 1 1067 0
 1258              		.cfi_startproc
 1259              		@ args = 4, pretend = 0, frame = 24
 1260              		@ frame_needed = 1, uses_anonymous_args = 0
 1261              		@ link register save eliminated.
ARM GAS  C:\Users\yguan5\AppData\Local\Temp\ccX3ogeL.s 			page 42


 1262 0000 80B4     		push	{r7}
 1263              	.LCFI36:
 1264              		.cfi_def_cfa_offset 4
 1265 0002 87B0     		sub	sp, sp, #28
 1266              	.LCFI37:
 1267              		.cfi_def_cfa_offset 32
 1268 0004 00AF     		add	r7, sp, #0
 1269              		.cfi_offset 7, -4
 1270              	.LCFI38:
 1271              		.cfi_def_cfa_register 7
 1272 0006 F871     		strb	r0, [r7, #7]
 1273 0008 B971     		strb	r1, [r7, #6]
 1274 000a 7A71     		strb	r2, [r7, #5]
 1275 000c 7B80     		strh	r3, [r7, #2]	@ movhi
1068:.\Generated_Source\PSoC5/CapSense_CSD_CSHL.c ****         #if ((CapSense_CSD_TOTAL_LINEAR_SLIDERS_COUNT > 0u) || (CapSense_CSD_TOTAL_TOUCH_PADS_COUNT
1069:.\Generated_Source\PSoC5/CapSense_CSD_CSHL.c ****             uint8 posPrev;
1070:.\Generated_Source\PSoC5/CapSense_CSD_CSHL.c ****             uint8 posNext;
1071:.\Generated_Source\PSoC5/CapSense_CSD_CSHL.c ****         #endif /* ((CapSense_CSD_TOTAL_LINEAR_SLIDERS_COUNT>0u) || (CapSense_CSD_TOTAL_TOUCH_PADS_C
1072:.\Generated_Source\PSoC5/CapSense_CSD_CSHL.c ****                
1073:.\Generated_Source\PSoC5/CapSense_CSD_CSHL.c ****         #if (CapSense_CSD_IS_DIPLEX_SLIDER)                
1074:.\Generated_Source\PSoC5/CapSense_CSD_CSHL.c ****             uint8 pos;
1075:.\Generated_Source\PSoC5/CapSense_CSD_CSHL.c ****         #endif /* (CapSense_CSD_IS_DIPLEX_SLIDER) */
1076:.\Generated_Source\PSoC5/CapSense_CSD_CSHL.c **** 
1077:.\Generated_Source\PSoC5/CapSense_CSD_CSHL.c ****         uint8 position;
1078:.\Generated_Source\PSoC5/CapSense_CSD_CSHL.c ****         int32 numerator;
1079:.\Generated_Source\PSoC5/CapSense_CSD_CSHL.c ****         int32 denominator;
1080:.\Generated_Source\PSoC5/CapSense_CSD_CSHL.c ****         uint8 *startOfSlider = &CapSense_CSD_SensorSignal[offset];
 1276              		.loc 1 1080 0
 1277 000e BA79     		ldrb	r2, [r7, #6]	@ zero_extendqisi2
 1278 0010 40F20003 		movw	r3, #:lower16:CapSense_CSD_SensorSignal
 1279 0014 C0F20003 		movt	r3, #:upper16:CapSense_CSD_SensorSignal
 1280 0018 1344     		add	r3, r2, r3
 1281 001a 7B61     		str	r3, [r7, #20]
1081:.\Generated_Source\PSoC5/CapSense_CSD_CSHL.c ****                     
1082:.\Generated_Source\PSoC5/CapSense_CSD_CSHL.c ****         #if (CapSense_CSD_ADD_SLIDER_TYPE)
1083:.\Generated_Source\PSoC5/CapSense_CSD_CSHL.c ****             if(type == CapSense_CSD_TYPE_RADIAL_SLIDER)
1084:.\Generated_Source\PSoC5/CapSense_CSD_CSHL.c ****             {
1085:.\Generated_Source\PSoC5/CapSense_CSD_CSHL.c ****         #endif /* (CapSense_CSD_ADD_SLIDER_TYPE) */
1086:.\Generated_Source\PSoC5/CapSense_CSD_CSHL.c **** 
1087:.\Generated_Source\PSoC5/CapSense_CSD_CSHL.c ****             #if (CapSense_CSD_TOTAL_RADIAL_SLIDERS_COUNT > 0u)                
1088:.\Generated_Source\PSoC5/CapSense_CSD_CSHL.c ****                 /* Copy Signal for found centriod */
1089:.\Generated_Source\PSoC5/CapSense_CSD_CSHL.c ****                 CapSense_CSD_centroid[CapSense_CSD_POS] = startOfSlider[maximum];
1090:.\Generated_Source\PSoC5/CapSense_CSD_CSHL.c ****                  
1091:.\Generated_Source\PSoC5/CapSense_CSD_CSHL.c ****                 /* Check borders for ROTARY Slider */
1092:.\Generated_Source\PSoC5/CapSense_CSD_CSHL.c ****                 if (maximum == 0u)                   /* Start of centroid */
1093:.\Generated_Source\PSoC5/CapSense_CSD_CSHL.c ****                 { 
1094:.\Generated_Source\PSoC5/CapSense_CSD_CSHL.c ****                     CapSense_CSD_centroid[CapSense_CSD_POS_PREV] = startOfSlider[count - 1u];
1095:.\Generated_Source\PSoC5/CapSense_CSD_CSHL.c ****                     CapSense_CSD_centroid[CapSense_CSD_POS_NEXT] = startOfSlider[maximum + 1u];
1096:.\Generated_Source\PSoC5/CapSense_CSD_CSHL.c ****                 }
1097:.\Generated_Source\PSoC5/CapSense_CSD_CSHL.c ****                 else if (maximum == (count - 1u))    /* End of centroid */
1098:.\Generated_Source\PSoC5/CapSense_CSD_CSHL.c ****                 {
1099:.\Generated_Source\PSoC5/CapSense_CSD_CSHL.c ****                     CapSense_CSD_centroid[CapSense_CSD_POS_PREV] = startOfSlider[maximum - 1u];
1100:.\Generated_Source\PSoC5/CapSense_CSD_CSHL.c ****                     CapSense_CSD_centroid[CapSense_CSD_POS_NEXT] = startOfSlider[0u];
1101:.\Generated_Source\PSoC5/CapSense_CSD_CSHL.c ****                 }
1102:.\Generated_Source\PSoC5/CapSense_CSD_CSHL.c ****                 else                                /* Not first Not last */
1103:.\Generated_Source\PSoC5/CapSense_CSD_CSHL.c ****                 {
1104:.\Generated_Source\PSoC5/CapSense_CSD_CSHL.c ****                     CapSense_CSD_centroid[CapSense_CSD_POS_PREV] = startOfSlider[maximum - 1u];
ARM GAS  C:\Users\yguan5\AppData\Local\Temp\ccX3ogeL.s 			page 43


1105:.\Generated_Source\PSoC5/CapSense_CSD_CSHL.c ****                     CapSense_CSD_centroid[CapSense_CSD_POS_NEXT] = startOfSlider[maximum + 1u];
1106:.\Generated_Source\PSoC5/CapSense_CSD_CSHL.c ****                 }
1107:.\Generated_Source\PSoC5/CapSense_CSD_CSHL.c ****             #endif /* (CapSense_CSD_TOTAL_RADIAL_SLIDERS_COUNT > 0u) */
1108:.\Generated_Source\PSoC5/CapSense_CSD_CSHL.c **** 
1109:.\Generated_Source\PSoC5/CapSense_CSD_CSHL.c ****         #if (CapSense_CSD_ADD_SLIDER_TYPE)
1110:.\Generated_Source\PSoC5/CapSense_CSD_CSHL.c ****             }
1111:.\Generated_Source\PSoC5/CapSense_CSD_CSHL.c ****             else
1112:.\Generated_Source\PSoC5/CapSense_CSD_CSHL.c ****             {
1113:.\Generated_Source\PSoC5/CapSense_CSD_CSHL.c ****         #endif
1114:.\Generated_Source\PSoC5/CapSense_CSD_CSHL.c **** 
1115:.\Generated_Source\PSoC5/CapSense_CSD_CSHL.c ****             #if ((CapSense_CSD_TOTAL_LINEAR_SLIDERS_COUNT > 0u) || (CapSense_CSD_TOTAL_TOUCH_PADS_C
1116:.\Generated_Source\PSoC5/CapSense_CSD_CSHL.c ****                 #if (CapSense_CSD_IS_DIPLEX_SLIDER && CapSense_CSD_IS_NON_DIPLEX_SLIDER)           
1117:.\Generated_Source\PSoC5/CapSense_CSD_CSHL.c ****                     /* Calculate next and previous near to maximum */
1118:.\Generated_Source\PSoC5/CapSense_CSD_CSHL.c ****                     if(diplex == 0u)
1119:.\Generated_Source\PSoC5/CapSense_CSD_CSHL.c ****                     {
1120:.\Generated_Source\PSoC5/CapSense_CSD_CSHL.c ****                         pos     = maximum;
1121:.\Generated_Source\PSoC5/CapSense_CSD_CSHL.c ****                         posPrev = maximum - 1u;
1122:.\Generated_Source\PSoC5/CapSense_CSD_CSHL.c ****                         posNext = maximum + 1u; 
1123:.\Generated_Source\PSoC5/CapSense_CSD_CSHL.c ****                     }
1124:.\Generated_Source\PSoC5/CapSense_CSD_CSHL.c ****                     else
1125:.\Generated_Source\PSoC5/CapSense_CSD_CSHL.c ****                     {
1126:.\Generated_Source\PSoC5/CapSense_CSD_CSHL.c ****                         pos     = diplex[maximum];
1127:.\Generated_Source\PSoC5/CapSense_CSD_CSHL.c ****                         posPrev = diplex[maximum - 1u];
1128:.\Generated_Source\PSoC5/CapSense_CSD_CSHL.c ****                         posNext = diplex[maximum + 1u];
1129:.\Generated_Source\PSoC5/CapSense_CSD_CSHL.c ****                         count <<= 1u;
1130:.\Generated_Source\PSoC5/CapSense_CSD_CSHL.c ****                     }                    
1131:.\Generated_Source\PSoC5/CapSense_CSD_CSHL.c ****                 #elif (CapSense_CSD_IS_DIPLEX_SLIDER)
1132:.\Generated_Source\PSoC5/CapSense_CSD_CSHL.c ****                     /* Calculate next and previous near to maximum */
1133:.\Generated_Source\PSoC5/CapSense_CSD_CSHL.c ****                     pos     = diplex[maximum];
1134:.\Generated_Source\PSoC5/CapSense_CSD_CSHL.c ****                     posPrev = diplex[maximum - 1u];
1135:.\Generated_Source\PSoC5/CapSense_CSD_CSHL.c ****                     posNext = diplex[maximum + 1u];
1136:.\Generated_Source\PSoC5/CapSense_CSD_CSHL.c ****                     count <<= 1u;                    
1137:.\Generated_Source\PSoC5/CapSense_CSD_CSHL.c ****                 #else                    
1138:.\Generated_Source\PSoC5/CapSense_CSD_CSHL.c ****                     /* Calculate next and previous near to maximum */
1139:.\Generated_Source\PSoC5/CapSense_CSD_CSHL.c ****                     posPrev = maximum - 1u;
 1282              		.loc 1 1139 0
 1283 001c FB79     		ldrb	r3, [r7, #7]
 1284 001e 03F1FF33 		add	r3, r3, #-1
 1285 0022 7B72     		strb	r3, [r7, #9]
1140:.\Generated_Source\PSoC5/CapSense_CSD_CSHL.c ****                     posNext = maximum + 1u; 
 1286              		.loc 1 1140 0
 1287 0024 FB79     		ldrb	r3, [r7, #7]
 1288 0026 03F10103 		add	r3, r3, #1
 1289 002a BB72     		strb	r3, [r7, #10]
1141:.\Generated_Source\PSoC5/CapSense_CSD_CSHL.c ****                 #endif /* (CapSense_CSD_IS_DIPLEX_SLIDER && CapSense_CSD_IS_NON_DIPLEX_SLIDER) */
1142:.\Generated_Source\PSoC5/CapSense_CSD_CSHL.c ****                         
1143:.\Generated_Source\PSoC5/CapSense_CSD_CSHL.c ****                 /* Copy Signal for found centriod */
1144:.\Generated_Source\PSoC5/CapSense_CSD_CSHL.c ****                 #if (CapSense_CSD_IS_DIPLEX_SLIDER)
1145:.\Generated_Source\PSoC5/CapSense_CSD_CSHL.c ****                     CapSense_CSD_centroid[CapSense_CSD_POS] = startOfSlider[pos];
1146:.\Generated_Source\PSoC5/CapSense_CSD_CSHL.c ****                 #else
1147:.\Generated_Source\PSoC5/CapSense_CSD_CSHL.c ****                     CapSense_CSD_centroid[CapSense_CSD_POS] = startOfSlider[maximum];
 1290              		.loc 1 1147 0
 1291 002c FA79     		ldrb	r2, [r7, #7]	@ zero_extendqisi2
 1292 002e 7B69     		ldr	r3, [r7, #20]
 1293 0030 1344     		add	r3, r2, r3
 1294 0032 1A78     		ldrb	r2, [r3, #0]	@ zero_extendqisi2
 1295 0034 40F20003 		movw	r3, #:lower16:CapSense_CSD_centroid
ARM GAS  C:\Users\yguan5\AppData\Local\Temp\ccX3ogeL.s 			page 44


 1296 0038 C0F20003 		movt	r3, #:upper16:CapSense_CSD_centroid
 1297 003c 5A70     		strb	r2, [r3, #1]
1148:.\Generated_Source\PSoC5/CapSense_CSD_CSHL.c ****                 #endif /* (CapSense_CSD_IS_DIPLEX_SLIDER) */
1149:.\Generated_Source\PSoC5/CapSense_CSD_CSHL.c ****                     
1150:.\Generated_Source\PSoC5/CapSense_CSD_CSHL.c ****                 /* Check borders for LINEAR Slider */
1151:.\Generated_Source\PSoC5/CapSense_CSD_CSHL.c ****                 if (maximum == 0u)                   /* Start of centroid */
 1298              		.loc 1 1151 0
 1299 003e FB79     		ldrb	r3, [r7, #7]	@ zero_extendqisi2
 1300 0040 002B     		cmp	r3, #0
 1301 0042 10D1     		bne	.L69
1152:.\Generated_Source\PSoC5/CapSense_CSD_CSHL.c ****                 { 
1153:.\Generated_Source\PSoC5/CapSense_CSD_CSHL.c ****                     CapSense_CSD_centroid[CapSense_CSD_POS_PREV] = 0u;
 1302              		.loc 1 1153 0
 1303 0044 40F20003 		movw	r3, #:lower16:CapSense_CSD_centroid
 1304 0048 C0F20003 		movt	r3, #:upper16:CapSense_CSD_centroid
 1305 004c 4FF00002 		mov	r2, #0
 1306 0050 1A70     		strb	r2, [r3, #0]
1154:.\Generated_Source\PSoC5/CapSense_CSD_CSHL.c ****                     CapSense_CSD_centroid[CapSense_CSD_POS_NEXT] = startOfSlider[posNext];
 1307              		.loc 1 1154 0
 1308 0052 BA7A     		ldrb	r2, [r7, #10]	@ zero_extendqisi2
 1309 0054 7B69     		ldr	r3, [r7, #20]
 1310 0056 1344     		add	r3, r2, r3
 1311 0058 1A78     		ldrb	r2, [r3, #0]	@ zero_extendqisi2
 1312 005a 40F20003 		movw	r3, #:lower16:CapSense_CSD_centroid
 1313 005e C0F20003 		movt	r3, #:upper16:CapSense_CSD_centroid
 1314 0062 9A70     		strb	r2, [r3, #2]
 1315 0064 28E0     		b	.L70
 1316              	.L69:
1155:.\Generated_Source\PSoC5/CapSense_CSD_CSHL.c ****                 }
1156:.\Generated_Source\PSoC5/CapSense_CSD_CSHL.c ****                 else if (maximum == ((count) - 1u)) /* End of centroid */
 1317              		.loc 1 1156 0
 1318 0066 FA79     		ldrb	r2, [r7, #7]	@ zero_extendqisi2
 1319 0068 7B79     		ldrb	r3, [r7, #5]	@ zero_extendqisi2
 1320 006a 03F1FF33 		add	r3, r3, #-1
 1321 006e 9A42     		cmp	r2, r3
 1322 0070 10D1     		bne	.L71
1157:.\Generated_Source\PSoC5/CapSense_CSD_CSHL.c ****                 {
1158:.\Generated_Source\PSoC5/CapSense_CSD_CSHL.c ****                     CapSense_CSD_centroid[CapSense_CSD_POS_PREV] = startOfSlider[posPrev];
 1323              		.loc 1 1158 0
 1324 0072 7A7A     		ldrb	r2, [r7, #9]	@ zero_extendqisi2
 1325 0074 7B69     		ldr	r3, [r7, #20]
 1326 0076 1344     		add	r3, r2, r3
 1327 0078 1A78     		ldrb	r2, [r3, #0]	@ zero_extendqisi2
 1328 007a 40F20003 		movw	r3, #:lower16:CapSense_CSD_centroid
 1329 007e C0F20003 		movt	r3, #:upper16:CapSense_CSD_centroid
 1330 0082 1A70     		strb	r2, [r3, #0]
1159:.\Generated_Source\PSoC5/CapSense_CSD_CSHL.c ****                     CapSense_CSD_centroid[CapSense_CSD_POS_NEXT] = 0u;
 1331              		.loc 1 1159 0
 1332 0084 40F20003 		movw	r3, #:lower16:CapSense_CSD_centroid
 1333 0088 C0F20003 		movt	r3, #:upper16:CapSense_CSD_centroid
 1334 008c 4FF00002 		mov	r2, #0
 1335 0090 9A70     		strb	r2, [r3, #2]
 1336 0092 11E0     		b	.L70
 1337              	.L71:
1160:.\Generated_Source\PSoC5/CapSense_CSD_CSHL.c ****                 }
1161:.\Generated_Source\PSoC5/CapSense_CSD_CSHL.c ****                 else                                /* Not first Not last */
1162:.\Generated_Source\PSoC5/CapSense_CSD_CSHL.c ****                 {
ARM GAS  C:\Users\yguan5\AppData\Local\Temp\ccX3ogeL.s 			page 45


1163:.\Generated_Source\PSoC5/CapSense_CSD_CSHL.c ****                     CapSense_CSD_centroid[CapSense_CSD_POS_PREV] = startOfSlider[posPrev];
 1338              		.loc 1 1163 0
 1339 0094 7A7A     		ldrb	r2, [r7, #9]	@ zero_extendqisi2
 1340 0096 7B69     		ldr	r3, [r7, #20]
 1341 0098 1344     		add	r3, r2, r3
 1342 009a 1A78     		ldrb	r2, [r3, #0]	@ zero_extendqisi2
 1343 009c 40F20003 		movw	r3, #:lower16:CapSense_CSD_centroid
 1344 00a0 C0F20003 		movt	r3, #:upper16:CapSense_CSD_centroid
 1345 00a4 1A70     		strb	r2, [r3, #0]
1164:.\Generated_Source\PSoC5/CapSense_CSD_CSHL.c ****                     CapSense_CSD_centroid[CapSense_CSD_POS_NEXT] = startOfSlider[posNext];
 1346              		.loc 1 1164 0
 1347 00a6 BA7A     		ldrb	r2, [r7, #10]	@ zero_extendqisi2
 1348 00a8 7B69     		ldr	r3, [r7, #20]
 1349 00aa 1344     		add	r3, r2, r3
 1350 00ac 1A78     		ldrb	r2, [r3, #0]	@ zero_extendqisi2
 1351 00ae 40F20003 		movw	r3, #:lower16:CapSense_CSD_centroid
 1352 00b2 C0F20003 		movt	r3, #:upper16:CapSense_CSD_centroid
 1353 00b6 9A70     		strb	r2, [r3, #2]
 1354              	.L70:
1165:.\Generated_Source\PSoC5/CapSense_CSD_CSHL.c ****                 }
1166:.\Generated_Source\PSoC5/CapSense_CSD_CSHL.c ****             #endif /* ((CapSense_CSD_TOTAL_LINEAR_SLIDERS_COUNT>0u)||(CapSense_CSD_TOTAL_TOUCH_PADS
1167:.\Generated_Source\PSoC5/CapSense_CSD_CSHL.c **** 
1168:.\Generated_Source\PSoC5/CapSense_CSD_CSHL.c ****         #if (CapSense_CSD_ADD_SLIDER_TYPE)
1169:.\Generated_Source\PSoC5/CapSense_CSD_CSHL.c ****             }
1170:.\Generated_Source\PSoC5/CapSense_CSD_CSHL.c ****         #endif /* (CapSense_CSD_ADD_SLIDER_TYPE) */
1171:.\Generated_Source\PSoC5/CapSense_CSD_CSHL.c ****     
1172:.\Generated_Source\PSoC5/CapSense_CSD_CSHL.c ****         /* Subtract noiseThreshold */
1173:.\Generated_Source\PSoC5/CapSense_CSD_CSHL.c ****         if(CapSense_CSD_centroid[CapSense_CSD_POS_PREV] > noiseThreshold)
 1355              		.loc 1 1173 0
 1356 00b8 40F20003 		movw	r3, #:lower16:CapSense_CSD_centroid
 1357 00bc C0F20003 		movt	r3, #:upper16:CapSense_CSD_centroid
 1358 00c0 1B78     		ldrb	r3, [r3, #0]	@ zero_extendqisi2
 1359 00c2 97F82020 		ldrb	r2, [r7, #32]	@ zero_extendqisi2
 1360 00c6 9A42     		cmp	r2, r3
 1361 00c8 0FD2     		bcs	.L72
1174:.\Generated_Source\PSoC5/CapSense_CSD_CSHL.c ****         {
1175:.\Generated_Source\PSoC5/CapSense_CSD_CSHL.c ****             CapSense_CSD_centroid[CapSense_CSD_POS_PREV] -= noiseThreshold;
 1362              		.loc 1 1175 0
 1363 00ca 40F20003 		movw	r3, #:lower16:CapSense_CSD_centroid
 1364 00ce C0F20003 		movt	r3, #:upper16:CapSense_CSD_centroid
 1365 00d2 1A78     		ldrb	r2, [r3, #0]	@ zero_extendqisi2
 1366 00d4 97F82030 		ldrb	r3, [r7, #32]
 1367 00d8 C3EB0203 		rsb	r3, r3, r2
 1368 00dc DAB2     		uxtb	r2, r3
 1369 00de 40F20003 		movw	r3, #:lower16:CapSense_CSD_centroid
 1370 00e2 C0F20003 		movt	r3, #:upper16:CapSense_CSD_centroid
 1371 00e6 1A70     		strb	r2, [r3, #0]
 1372 00e8 06E0     		b	.L73
 1373              	.L72:
1176:.\Generated_Source\PSoC5/CapSense_CSD_CSHL.c ****         }
1177:.\Generated_Source\PSoC5/CapSense_CSD_CSHL.c ****         else
1178:.\Generated_Source\PSoC5/CapSense_CSD_CSHL.c ****         {
1179:.\Generated_Source\PSoC5/CapSense_CSD_CSHL.c ****             CapSense_CSD_centroid[CapSense_CSD_POS_PREV] = 0u;
 1374              		.loc 1 1179 0
 1375 00ea 40F20003 		movw	r3, #:lower16:CapSense_CSD_centroid
 1376 00ee C0F20003 		movt	r3, #:upper16:CapSense_CSD_centroid
 1377 00f2 4FF00002 		mov	r2, #0
ARM GAS  C:\Users\yguan5\AppData\Local\Temp\ccX3ogeL.s 			page 46


 1378 00f6 1A70     		strb	r2, [r3, #0]
 1379              	.L73:
1180:.\Generated_Source\PSoC5/CapSense_CSD_CSHL.c ****         }
1181:.\Generated_Source\PSoC5/CapSense_CSD_CSHL.c ****         
1182:.\Generated_Source\PSoC5/CapSense_CSD_CSHL.c ****         /* Maximum always grater than fingerThreshold, so grate than noiseThreshold */
1183:.\Generated_Source\PSoC5/CapSense_CSD_CSHL.c ****         CapSense_CSD_centroid[CapSense_CSD_POS] -= noiseThreshold;
 1380              		.loc 1 1183 0
 1381 00f8 40F20003 		movw	r3, #:lower16:CapSense_CSD_centroid
 1382 00fc C0F20003 		movt	r3, #:upper16:CapSense_CSD_centroid
 1383 0100 5A78     		ldrb	r2, [r3, #1]	@ zero_extendqisi2
 1384 0102 97F82030 		ldrb	r3, [r7, #32]
 1385 0106 C3EB0203 		rsb	r3, r3, r2
 1386 010a DAB2     		uxtb	r2, r3
 1387 010c 40F20003 		movw	r3, #:lower16:CapSense_CSD_centroid
 1388 0110 C0F20003 		movt	r3, #:upper16:CapSense_CSD_centroid
 1389 0114 5A70     		strb	r2, [r3, #1]
1184:.\Generated_Source\PSoC5/CapSense_CSD_CSHL.c ****         
1185:.\Generated_Source\PSoC5/CapSense_CSD_CSHL.c ****         /* Subtract noiseThreshold */
1186:.\Generated_Source\PSoC5/CapSense_CSD_CSHL.c ****         if(CapSense_CSD_centroid[CapSense_CSD_POS_NEXT] > noiseThreshold)
 1390              		.loc 1 1186 0
 1391 0116 40F20003 		movw	r3, #:lower16:CapSense_CSD_centroid
 1392 011a C0F20003 		movt	r3, #:upper16:CapSense_CSD_centroid
 1393 011e 9B78     		ldrb	r3, [r3, #2]	@ zero_extendqisi2
 1394 0120 97F82020 		ldrb	r2, [r7, #32]	@ zero_extendqisi2
 1395 0124 9A42     		cmp	r2, r3
 1396 0126 0FD2     		bcs	.L74
1187:.\Generated_Source\PSoC5/CapSense_CSD_CSHL.c ****         {
1188:.\Generated_Source\PSoC5/CapSense_CSD_CSHL.c ****             CapSense_CSD_centroid[CapSense_CSD_POS_NEXT] -= noiseThreshold;
 1397              		.loc 1 1188 0
 1398 0128 40F20003 		movw	r3, #:lower16:CapSense_CSD_centroid
 1399 012c C0F20003 		movt	r3, #:upper16:CapSense_CSD_centroid
 1400 0130 9A78     		ldrb	r2, [r3, #2]	@ zero_extendqisi2
 1401 0132 97F82030 		ldrb	r3, [r7, #32]
 1402 0136 C3EB0203 		rsb	r3, r3, r2
 1403 013a DAB2     		uxtb	r2, r3
 1404 013c 40F20003 		movw	r3, #:lower16:CapSense_CSD_centroid
 1405 0140 C0F20003 		movt	r3, #:upper16:CapSense_CSD_centroid
 1406 0144 9A70     		strb	r2, [r3, #2]
 1407 0146 06E0     		b	.L75
 1408              	.L74:
1189:.\Generated_Source\PSoC5/CapSense_CSD_CSHL.c ****         }
1190:.\Generated_Source\PSoC5/CapSense_CSD_CSHL.c ****         else
1191:.\Generated_Source\PSoC5/CapSense_CSD_CSHL.c ****         {
1192:.\Generated_Source\PSoC5/CapSense_CSD_CSHL.c ****             CapSense_CSD_centroid[CapSense_CSD_POS_NEXT] = 0u;
 1409              		.loc 1 1192 0
 1410 0148 40F20003 		movw	r3, #:lower16:CapSense_CSD_centroid
 1411 014c C0F20003 		movt	r3, #:upper16:CapSense_CSD_centroid
 1412 0150 4FF00002 		mov	r2, #0
 1413 0154 9A70     		strb	r2, [r3, #2]
 1414              	.L75:
1193:.\Generated_Source\PSoC5/CapSense_CSD_CSHL.c ****         }
1194:.\Generated_Source\PSoC5/CapSense_CSD_CSHL.c ****         
1195:.\Generated_Source\PSoC5/CapSense_CSD_CSHL.c ****         
1196:.\Generated_Source\PSoC5/CapSense_CSD_CSHL.c ****         /* Si+1 - Si-1 */
1197:.\Generated_Source\PSoC5/CapSense_CSD_CSHL.c ****         numerator = (int32) CapSense_CSD_centroid[CapSense_CSD_POS_NEXT] - 
 1415              		.loc 1 1197 0
 1416 0156 40F20003 		movw	r3, #:lower16:CapSense_CSD_centroid
ARM GAS  C:\Users\yguan5\AppData\Local\Temp\ccX3ogeL.s 			page 47


 1417 015a C0F20003 		movt	r3, #:upper16:CapSense_CSD_centroid
 1418 015e 9B78     		ldrb	r3, [r3, #2]	@ zero_extendqisi2
 1419 0160 1A46     		mov	r2, r3
1198:.\Generated_Source\PSoC5/CapSense_CSD_CSHL.c ****                     (int32) CapSense_CSD_centroid[CapSense_CSD_POS_PREV];
 1420              		.loc 1 1198 0
 1421 0162 40F20003 		movw	r3, #:lower16:CapSense_CSD_centroid
 1422 0166 C0F20003 		movt	r3, #:upper16:CapSense_CSD_centroid
 1423 016a 1B78     		ldrb	r3, [r3, #0]	@ zero_extendqisi2
 1424              		.loc 1 1197 0
 1425 016c C3EB0203 		rsb	r3, r3, r2
 1426 0170 FB60     		str	r3, [r7, #12]
1199:.\Generated_Source\PSoC5/CapSense_CSD_CSHL.c ****         
1200:.\Generated_Source\PSoC5/CapSense_CSD_CSHL.c ****         /* Si+1 + Si + Si-1 */
1201:.\Generated_Source\PSoC5/CapSense_CSD_CSHL.c ****         denominator = (int32) CapSense_CSD_centroid[CapSense_CSD_POS_PREV] + 
 1427              		.loc 1 1201 0
 1428 0172 40F20003 		movw	r3, #:lower16:CapSense_CSD_centroid
 1429 0176 C0F20003 		movt	r3, #:upper16:CapSense_CSD_centroid
 1430 017a 1B78     		ldrb	r3, [r3, #0]	@ zero_extendqisi2
1202:.\Generated_Source\PSoC5/CapSense_CSD_CSHL.c ****                       (int32) CapSense_CSD_centroid[CapSense_CSD_POS] + 
 1431              		.loc 1 1202 0
 1432 017c 1A46     		mov	r2, r3
 1433 017e 40F20003 		movw	r3, #:lower16:CapSense_CSD_centroid
 1434 0182 C0F20003 		movt	r3, #:upper16:CapSense_CSD_centroid
 1435 0186 5B78     		ldrb	r3, [r3, #1]	@ zero_extendqisi2
 1436 0188 1A44     		add	r2, r2, r3
1203:.\Generated_Source\PSoC5/CapSense_CSD_CSHL.c ****                       (int32) CapSense_CSD_centroid[CapSense_CSD_POS_NEXT];
 1437              		.loc 1 1203 0
 1438 018a 40F20003 		movw	r3, #:lower16:CapSense_CSD_centroid
 1439 018e C0F20003 		movt	r3, #:upper16:CapSense_CSD_centroid
 1440 0192 9B78     		ldrb	r3, [r3, #2]	@ zero_extendqisi2
 1441              		.loc 1 1201 0
 1442 0194 1344     		add	r3, r2, r3
 1443 0196 3B61     		str	r3, [r7, #16]
1204:.\Generated_Source\PSoC5/CapSense_CSD_CSHL.c ****         
1205:.\Generated_Source\PSoC5/CapSense_CSD_CSHL.c ****         /* (numerator/denominator) + maximum */
1206:.\Generated_Source\PSoC5/CapSense_CSD_CSHL.c ****         denominator = (numerator << 8u)/denominator + ((uint16) maximum << 8u);
 1444              		.loc 1 1206 0
 1445 0198 FB68     		ldr	r3, [r7, #12]
 1446 019a 4FEA0322 		lsl	r2, r3, #8
 1447 019e 3B69     		ldr	r3, [r7, #16]
 1448 01a0 92FBF3F2 		sdiv	r2, r2, r3
 1449 01a4 FB79     		ldrb	r3, [r7, #7]	@ zero_extendqisi2
 1450 01a6 4FEA0323 		lsl	r3, r3, #8
 1451 01aa 1344     		add	r3, r2, r3
 1452 01ac 3B61     		str	r3, [r7, #16]
1207:.\Generated_Source\PSoC5/CapSense_CSD_CSHL.c ****         
1208:.\Generated_Source\PSoC5/CapSense_CSD_CSHL.c ****         #if(CapSense_CSD_TOTAL_RADIAL_SLIDERS_COUNT > 0u)
1209:.\Generated_Source\PSoC5/CapSense_CSD_CSHL.c ****             /* Only required for RADIAL Slider */
1210:.\Generated_Source\PSoC5/CapSense_CSD_CSHL.c ****             if(denominator < 0)
1211:.\Generated_Source\PSoC5/CapSense_CSD_CSHL.c ****             {
1212:.\Generated_Source\PSoC5/CapSense_CSD_CSHL.c ****                 denominator += ((uint16) count << 8u);
1213:.\Generated_Source\PSoC5/CapSense_CSD_CSHL.c ****             }
1214:.\Generated_Source\PSoC5/CapSense_CSD_CSHL.c ****         #endif /* (CapSense_CSD_TOTAL_RADIAL_SLIDERS_COUNT > 0u) */
1215:.\Generated_Source\PSoC5/CapSense_CSD_CSHL.c ****         
1216:.\Generated_Source\PSoC5/CapSense_CSD_CSHL.c ****         denominator *= resolution;
 1453              		.loc 1 1216 0
 1454 01ae 7A88     		ldrh	r2, [r7, #2]
ARM GAS  C:\Users\yguan5\AppData\Local\Temp\ccX3ogeL.s 			page 48


 1455 01b0 3B69     		ldr	r3, [r7, #16]
 1456 01b2 02FB03F3 		mul	r3, r2, r3
 1457 01b6 3B61     		str	r3, [r7, #16]
1217:.\Generated_Source\PSoC5/CapSense_CSD_CSHL.c ****         
1218:.\Generated_Source\PSoC5/CapSense_CSD_CSHL.c ****         /* Round the relust and put it to uint8 */
1219:.\Generated_Source\PSoC5/CapSense_CSD_CSHL.c ****         position = ((uint8) HI16(denominator + CapSense_CSD_CENTROID_ROUND_VALUE));
 1458              		.loc 1 1219 0
 1459 01b8 3B69     		ldr	r3, [r7, #16]
 1460 01ba 03F5FE43 		add	r3, r3, #32512
 1461 01be 4FEA1343 		lsr	r3, r3, #16
 1462 01c2 FB72     		strb	r3, [r7, #11]
1220:.\Generated_Source\PSoC5/CapSense_CSD_CSHL.c **** 
1221:.\Generated_Source\PSoC5/CapSense_CSD_CSHL.c ****         return (position);
 1463              		.loc 1 1221 0
 1464 01c4 FB7A     		ldrb	r3, [r7, #11]	@ zero_extendqisi2
1222:.\Generated_Source\PSoC5/CapSense_CSD_CSHL.c ****     }    
 1465              		.loc 1 1222 0
 1466 01c6 1846     		mov	r0, r3
 1467 01c8 07F11C07 		add	r7, r7, #28
 1468 01cc BD46     		mov	sp, r7
 1469 01ce 80BC     		pop	{r7}
 1470 01d0 7047     		bx	lr
 1471              		.cfi_endproc
 1472              	.LFE12:
 1473              		.size	CapSense_CSD_CalcCentroid, .-CapSense_CSD_CalcCentroid
 1474 01d2 00BF     		.section	.text.CapSense_CSD_GetCentroidPos,"ax",%progbits
 1475              		.align	2
 1476              		.global	CapSense_CSD_GetCentroidPos
 1477              		.thumb
 1478              		.thumb_func
 1479              		.type	CapSense_CSD_GetCentroidPos, %function
 1480              	CapSense_CSD_GetCentroidPos:
 1481              	.LFB13:
1223:.\Generated_Source\PSoC5/CapSense_CSD_CSHL.c **** #endif /* (CapSense_CSD_TOTAL_CENTROIDS_COUNT) */
1224:.\Generated_Source\PSoC5/CapSense_CSD_CSHL.c **** 
1225:.\Generated_Source\PSoC5/CapSense_CSD_CSHL.c **** 
1226:.\Generated_Source\PSoC5/CapSense_CSD_CSHL.c **** #if(CapSense_CSD_TOTAL_LINEAR_SLIDERS_COUNT > 0u)
1227:.\Generated_Source\PSoC5/CapSense_CSD_CSHL.c ****     /*******************************************************************************
1228:.\Generated_Source\PSoC5/CapSense_CSD_CSHL.c ****     * Function Name: CapSense_CSD_GetCentroidPos
1229:.\Generated_Source\PSoC5/CapSense_CSD_CSHL.c ****     ********************************************************************************
1230:.\Generated_Source\PSoC5/CapSense_CSD_CSHL.c ****     *
1231:.\Generated_Source\PSoC5/CapSense_CSD_CSHL.c ****     * Summary:
1232:.\Generated_Source\PSoC5/CapSense_CSD_CSHL.c ****     *  Checks the CapSense_CSD_Signal[ ] array for a centroid within
1233:.\Generated_Source\PSoC5/CapSense_CSD_CSHL.c ****     *  slider specified range. The centroid position is calculated to the resolution
1234:.\Generated_Source\PSoC5/CapSense_CSD_CSHL.c ****     *  specified in the CapSense customizer. The position filters are applied to the
1235:.\Generated_Source\PSoC5/CapSense_CSD_CSHL.c ****     *  result if enabled.
1236:.\Generated_Source\PSoC5/CapSense_CSD_CSHL.c ****     *
1237:.\Generated_Source\PSoC5/CapSense_CSD_CSHL.c ****     * Parameters:
1238:.\Generated_Source\PSoC5/CapSense_CSD_CSHL.c ****     *  widget:  Widget number.
1239:.\Generated_Source\PSoC5/CapSense_CSD_CSHL.c ****     *  For every linear slider widget there are defines in this format:
1240:.\Generated_Source\PSoC5/CapSense_CSD_CSHL.c ****     *  #define CapSense_CSD_LS__"widget_name"            5
1241:.\Generated_Source\PSoC5/CapSense_CSD_CSHL.c ****     * 
1242:.\Generated_Source\PSoC5/CapSense_CSD_CSHL.c ****     * Return:
1243:.\Generated_Source\PSoC5/CapSense_CSD_CSHL.c ****     *  Returns position value of the linear slider.
1244:.\Generated_Source\PSoC5/CapSense_CSD_CSHL.c ****     *
1245:.\Generated_Source\PSoC5/CapSense_CSD_CSHL.c ****     * Side Effects:
1246:.\Generated_Source\PSoC5/CapSense_CSD_CSHL.c ****     *  If any sensor within the slider widget is active, the function returns values
ARM GAS  C:\Users\yguan5\AppData\Local\Temp\ccX3ogeL.s 			page 49


1247:.\Generated_Source\PSoC5/CapSense_CSD_CSHL.c ****     *  from zero to the API resolution value set in the CapSense customizer. If no
1248:.\Generated_Source\PSoC5/CapSense_CSD_CSHL.c ****     *  sensors are active, the function returns 0xFFFF. If an error occurs during
1249:.\Generated_Source\PSoC5/CapSense_CSD_CSHL.c ****     *  execution of the centroid/diplexing algorithm, the function returns 0xFFFF.
1250:.\Generated_Source\PSoC5/CapSense_CSD_CSHL.c ****     *  There are no checks of widget type argument provided to this function.
1251:.\Generated_Source\PSoC5/CapSense_CSD_CSHL.c ****     *  The unproper widget type provided will cause unexpected position calculations.
1252:.\Generated_Source\PSoC5/CapSense_CSD_CSHL.c ****     *
1253:.\Generated_Source\PSoC5/CapSense_CSD_CSHL.c ****     * Note:
1254:.\Generated_Source\PSoC5/CapSense_CSD_CSHL.c ****     *  If noise counts on the slider segments are greater than the noise
1255:.\Generated_Source\PSoC5/CapSense_CSD_CSHL.c ****     *  threshold, this subroutine may generate a false centroid result. The noise
1256:.\Generated_Source\PSoC5/CapSense_CSD_CSHL.c ****     *  threshold should be set carefully (high enough above the noise level) so
1257:.\Generated_Source\PSoC5/CapSense_CSD_CSHL.c ****     *  that noise will not generate a false centroid.
1258:.\Generated_Source\PSoC5/CapSense_CSD_CSHL.c ****     *
1259:.\Generated_Source\PSoC5/CapSense_CSD_CSHL.c ****     * Reentrant:
1260:.\Generated_Source\PSoC5/CapSense_CSD_CSHL.c ****     *  No.
1261:.\Generated_Source\PSoC5/CapSense_CSD_CSHL.c ****     *
1262:.\Generated_Source\PSoC5/CapSense_CSD_CSHL.c ****     *******************************************************************************/
1263:.\Generated_Source\PSoC5/CapSense_CSD_CSHL.c ****     uint16 CapSense_CSD_GetCentroidPos(uint8 widget) 
1264:.\Generated_Source\PSoC5/CapSense_CSD_CSHL.c ****     {
 1482              		.loc 1 1264 0
 1483              		.cfi_startproc
 1484              		@ args = 0, pretend = 0, frame = 16
 1485              		@ frame_needed = 1, uses_anonymous_args = 0
 1486 0000 80B5     		push	{r7, lr}
 1487              	.LCFI39:
 1488              		.cfi_def_cfa_offset 8
 1489 0002 86B0     		sub	sp, sp, #24
 1490              	.LCFI40:
 1491              		.cfi_def_cfa_offset 32
 1492 0004 02AF     		add	r7, sp, #8
 1493              		.cfi_offset 14, -4
 1494              		.cfi_offset 7, -8
 1495              	.LCFI41:
 1496              		.cfi_def_cfa 7, 24
 1497 0006 0346     		mov	r3, r0
 1498 0008 FB71     		strb	r3, [r7, #7]
1265:.\Generated_Source\PSoC5/CapSense_CSD_CSHL.c ****         #if (CapSense_CSD_IS_DIPLEX_SLIDER)
1266:.\Generated_Source\PSoC5/CapSense_CSD_CSHL.c ****             const uint8 CYCODE *diplex;
1267:.\Generated_Source\PSoC5/CapSense_CSD_CSHL.c ****         #endif /* (CapSense_CSD_IS_DIPLEX_SLIDER) */
1268:.\Generated_Source\PSoC5/CapSense_CSD_CSHL.c ****                 
1269:.\Generated_Source\PSoC5/CapSense_CSD_CSHL.c ****         #if (0u != CapSense_CSD_LINEAR_SLIDERS_POS_FILTERS_MASK)
1270:.\Generated_Source\PSoC5/CapSense_CSD_CSHL.c ****             uint8 posIndex;
1271:.\Generated_Source\PSoC5/CapSense_CSD_CSHL.c ****             uint8 firstTimeIndex = CapSense_CSD_posFiltersData[widget];
1272:.\Generated_Source\PSoC5/CapSense_CSD_CSHL.c ****             uint8 posFiltersMask = CapSense_CSD_posFiltersMask[widget];  
1273:.\Generated_Source\PSoC5/CapSense_CSD_CSHL.c ****         #endif /* (0u != CapSense_CSD_LINEAR_SLIDERS_POS_FILTERS_MASK) */
1274:.\Generated_Source\PSoC5/CapSense_CSD_CSHL.c **** 
1275:.\Generated_Source\PSoC5/CapSense_CSD_CSHL.c ****         #if ((0u != (CapSense_CSD_MEDIAN_FILTER & CapSense_CSD_LINEAR_SLIDERS_POS_FILTERS_MASK)) ||
1276:.\Generated_Source\PSoC5/CapSense_CSD_CSHL.c ****              (0u != (CapSense_CSD_AVERAGING_FILTER & CapSense_CSD_LINEAR_SLIDERS_POS_FILTERS_MASK))
1277:.\Generated_Source\PSoC5/CapSense_CSD_CSHL.c ****             uint8 tempPos;
1278:.\Generated_Source\PSoC5/CapSense_CSD_CSHL.c ****         #endif /* ((0u != (CapSense_CSD_MEDIAN_FILTER & CapSense_CSD_LINEAR_SLIDERS_POS_FILTERS_MAS
1279:.\Generated_Source\PSoC5/CapSense_CSD_CSHL.c ****                *   (0u != (CapSense_CSD_AVERAGING_FILTER & CapSense_CSD_LINEAR_SLIDERS_POS_FILTERS_
1280:.\Generated_Source\PSoC5/CapSense_CSD_CSHL.c ****                */
1281:.\Generated_Source\PSoC5/CapSense_CSD_CSHL.c **** 
1282:.\Generated_Source\PSoC5/CapSense_CSD_CSHL.c ****         uint8 maximum;
1283:.\Generated_Source\PSoC5/CapSense_CSD_CSHL.c ****         uint16 position;
1284:.\Generated_Source\PSoC5/CapSense_CSD_CSHL.c ****         uint8 offset = CapSense_CSD_rawDataIndex[widget];
 1499              		.loc 1 1284 0
 1500 000a FA79     		ldrb	r2, [r7, #7]	@ zero_extendqisi2
ARM GAS  C:\Users\yguan5\AppData\Local\Temp\ccX3ogeL.s 			page 50


 1501 000c 40F20003 		movw	r3, #:lower16:CapSense_CSD_rawDataIndex
 1502 0010 C0F20003 		movt	r3, #:upper16:CapSense_CSD_rawDataIndex
 1503 0014 9B5C     		ldrb	r3, [r3, r2]
 1504 0016 BB73     		strb	r3, [r7, #14]
1285:.\Generated_Source\PSoC5/CapSense_CSD_CSHL.c ****         uint8 count = CapSense_CSD_numberOfSensors[widget];
 1505              		.loc 1 1285 0
 1506 0018 FA79     		ldrb	r2, [r7, #7]	@ zero_extendqisi2
 1507 001a 40F20003 		movw	r3, #:lower16:CapSense_CSD_numberOfSensors
 1508 001e C0F20003 		movt	r3, #:upper16:CapSense_CSD_numberOfSensors
 1509 0022 9B5C     		ldrb	r3, [r3, r2]
 1510 0024 FB73     		strb	r3, [r7, #15]
1286:.\Generated_Source\PSoC5/CapSense_CSD_CSHL.c ****                         
1287:.\Generated_Source\PSoC5/CapSense_CSD_CSHL.c ****         #if (CapSense_CSD_IS_DIPLEX_SLIDER)
1288:.\Generated_Source\PSoC5/CapSense_CSD_CSHL.c ****             if(widget < CapSense_CSD_TOTAL_DIPLEXED_SLIDERS_COUNT)
1289:.\Generated_Source\PSoC5/CapSense_CSD_CSHL.c ****             {
1290:.\Generated_Source\PSoC5/CapSense_CSD_CSHL.c ****                 maximum = CapSense_CSD_diplexTable[widget];
1291:.\Generated_Source\PSoC5/CapSense_CSD_CSHL.c ****                 diplex = &CapSense_CSD_diplexTable[maximum];
1292:.\Generated_Source\PSoC5/CapSense_CSD_CSHL.c ****             }
1293:.\Generated_Source\PSoC5/CapSense_CSD_CSHL.c ****             else
1294:.\Generated_Source\PSoC5/CapSense_CSD_CSHL.c ****             {
1295:.\Generated_Source\PSoC5/CapSense_CSD_CSHL.c ****                 diplex = 0u;
1296:.\Generated_Source\PSoC5/CapSense_CSD_CSHL.c ****             }
1297:.\Generated_Source\PSoC5/CapSense_CSD_CSHL.c ****         #endif /* (CapSense_CSD_IS_DIPLEX_SLIDER) */
1298:.\Generated_Source\PSoC5/CapSense_CSD_CSHL.c **** 
1299:.\Generated_Source\PSoC5/CapSense_CSD_CSHL.c ****         /* Find Maximum within centroid */      
1300:.\Generated_Source\PSoC5/CapSense_CSD_CSHL.c ****         #if (CapSense_CSD_IS_DIPLEX_SLIDER)        
1301:.\Generated_Source\PSoC5/CapSense_CSD_CSHL.c ****             maximum = CapSense_CSD_FindMaximum(offset, count, CapSense_CSD_fingerThreshold[widget],
1302:.\Generated_Source\PSoC5/CapSense_CSD_CSHL.c ****         #else
1303:.\Generated_Source\PSoC5/CapSense_CSD_CSHL.c ****             maximum = CapSense_CSD_FindMaximum(offset, count, CapSense_CSD_fingerThreshold[widget])
 1511              		.loc 1 1303 0
 1512 0026 FA79     		ldrb	r2, [r7, #7]	@ zero_extendqisi2
 1513 0028 40F20003 		movw	r3, #:lower16:CapSense_CSD_fingerThreshold
 1514 002c C0F20003 		movt	r3, #:upper16:CapSense_CSD_fingerThreshold
 1515 0030 9B5C     		ldrb	r3, [r3, r2]	@ zero_extendqisi2
 1516 0032 B97B     		ldrb	r1, [r7, #14]	@ zero_extendqisi2
 1517 0034 FA7B     		ldrb	r2, [r7, #15]	@ zero_extendqisi2
 1518 0036 0846     		mov	r0, r1
 1519 0038 1146     		mov	r1, r2
 1520 003a 1A46     		mov	r2, r3
 1521 003c FFF7FEFF 		bl	CapSense_CSD_FindMaximum
 1522 0040 0346     		mov	r3, r0
 1523 0042 FB72     		strb	r3, [r7, #11]
1304:.\Generated_Source\PSoC5/CapSense_CSD_CSHL.c ****         #endif /* (CapSense_CSD_IS_DIPLEX_SLIDER) */
1305:.\Generated_Source\PSoC5/CapSense_CSD_CSHL.c **** 
1306:.\Generated_Source\PSoC5/CapSense_CSD_CSHL.c ****         if (maximum != 0xFFu)
 1524              		.loc 1 1306 0
 1525 0044 FB7A     		ldrb	r3, [r7, #11]	@ zero_extendqisi2
 1526 0046 FF2B     		cmp	r3, #255
 1527 0048 19D0     		beq	.L78
1307:.\Generated_Source\PSoC5/CapSense_CSD_CSHL.c ****         {
1308:.\Generated_Source\PSoC5/CapSense_CSD_CSHL.c ****             /* Calculate centroid */
1309:.\Generated_Source\PSoC5/CapSense_CSD_CSHL.c ****             position = (uint16) CapSense_CSD_CalcCentroid(maximum, 
 1528              		.loc 1 1309 0
 1529 004a FA79     		ldrb	r2, [r7, #7]	@ zero_extendqisi2
 1530 004c 40F20003 		movw	r3, #:lower16:CapSense_CSD_centroidMult
 1531 0050 C0F20003 		movt	r3, #:upper16:CapSense_CSD_centroidMult
 1532 0054 33F812C0 		ldrh	ip, [r3, r2, lsl #1]
ARM GAS  C:\Users\yguan5\AppData\Local\Temp\ccX3ogeL.s 			page 51


 1533 0058 FA79     		ldrb	r2, [r7, #7]	@ zero_extendqisi2
 1534 005a 40F20003 		movw	r3, #:lower16:CapSense_CSD_noiseThreshold
 1535 005e C0F20003 		movt	r3, #:upper16:CapSense_CSD_noiseThreshold
 1536 0062 985C     		ldrb	r0, [r3, r2]	@ zero_extendqisi2
 1537 0064 F97A     		ldrb	r1, [r7, #11]	@ zero_extendqisi2
 1538 0066 BA7B     		ldrb	r2, [r7, #14]	@ zero_extendqisi2
 1539 0068 FB7B     		ldrb	r3, [r7, #15]	@ zero_extendqisi2
 1540 006a 0090     		str	r0, [sp, #0]
 1541 006c 0846     		mov	r0, r1
 1542 006e 1146     		mov	r1, r2
 1543 0070 1A46     		mov	r2, r3
 1544 0072 6346     		mov	r3, ip
 1545 0074 FFF7FEFF 		bl	CapSense_CSD_CalcCentroid
 1546 0078 0346     		mov	r3, r0
 1547 007a BB81     		strh	r3, [r7, #12]	@ movhi
 1548 007c 02E0     		b	.L79
 1549              	.L78:
1310:.\Generated_Source\PSoC5/CapSense_CSD_CSHL.c ****                          offset, count, CapSense_CSD_centroidMult[widget], CapSense_CSD_noiseThresh
1311:.\Generated_Source\PSoC5/CapSense_CSD_CSHL.c **** 
1312:.\Generated_Source\PSoC5/CapSense_CSD_CSHL.c ****             #if (0u != CapSense_CSD_LINEAR_SLIDERS_POS_FILTERS_MASK)
1313:.\Generated_Source\PSoC5/CapSense_CSD_CSHL.c ****                 /* Check if this linear slider has enabled filters */
1314:.\Generated_Source\PSoC5/CapSense_CSD_CSHL.c ****                 if (0u != (posFiltersMask & CapSense_CSD_ANY_POS_FILTER))
1315:.\Generated_Source\PSoC5/CapSense_CSD_CSHL.c ****                 {
1316:.\Generated_Source\PSoC5/CapSense_CSD_CSHL.c ****                     /* Caluclate position to store filters data */
1317:.\Generated_Source\PSoC5/CapSense_CSD_CSHL.c ****                     posIndex  = firstTimeIndex + 1u;
1318:.\Generated_Source\PSoC5/CapSense_CSD_CSHL.c ****                     
1319:.\Generated_Source\PSoC5/CapSense_CSD_CSHL.c ****                     if (0u == CapSense_CSD_posFiltersData[firstTimeIndex])
1320:.\Generated_Source\PSoC5/CapSense_CSD_CSHL.c ****                     {
1321:.\Generated_Source\PSoC5/CapSense_CSD_CSHL.c ****                         /* Init filters */
1322:.\Generated_Source\PSoC5/CapSense_CSD_CSHL.c ****                         CapSense_CSD_posFiltersData[posIndex] = (uint8) position;
1323:.\Generated_Source\PSoC5/CapSense_CSD_CSHL.c ****                         #if ((0u != (CapSense_CSD_MEDIAN_FILTER & \
1324:.\Generated_Source\PSoC5/CapSense_CSD_CSHL.c ****                                      CapSense_CSD_LINEAR_SLIDERS_POS_FILTERS_MASK)) || \
1325:.\Generated_Source\PSoC5/CapSense_CSD_CSHL.c ****                              (0u != (CapSense_CSD_AVERAGING_FILTER & \
1326:.\Generated_Source\PSoC5/CapSense_CSD_CSHL.c ****                                      CapSense_CSD_LINEAR_SLIDERS_POS_FILTERS_MASK)))
1327:.\Generated_Source\PSoC5/CapSense_CSD_CSHL.c **** 
1328:.\Generated_Source\PSoC5/CapSense_CSD_CSHL.c ****                             if ( (0u != (posFiltersMask & CapSense_CSD_MEDIAN_FILTER)) || 
1329:.\Generated_Source\PSoC5/CapSense_CSD_CSHL.c ****                                  (0u != (posFiltersMask & CapSense_CSD_AVERAGING_FILTER)) )
1330:.\Generated_Source\PSoC5/CapSense_CSD_CSHL.c ****                             {
1331:.\Generated_Source\PSoC5/CapSense_CSD_CSHL.c ****                                 CapSense_CSD_posFiltersData[posIndex + 1u] = (uint8) position;
1332:.\Generated_Source\PSoC5/CapSense_CSD_CSHL.c ****                             }
1333:.\Generated_Source\PSoC5/CapSense_CSD_CSHL.c ****                         #endif /* ((0u != (CapSense_CSD_MEDIAN_FILTER & \
1334:.\Generated_Source\PSoC5/CapSense_CSD_CSHL.c ****                                *           CapSense_CSD_LINEAR_SLIDERS_POS_FILTERS_MASK)) || \
1335:.\Generated_Source\PSoC5/CapSense_CSD_CSHL.c ****                                *   (0u != (CapSense_CSD_AVERAGING_FILTER & \
1336:.\Generated_Source\PSoC5/CapSense_CSD_CSHL.c ****                                *           CapSense_CSD_LINEAR_SLIDERS_POS_FILTERS_MASK)))
1337:.\Generated_Source\PSoC5/CapSense_CSD_CSHL.c ****                                */
1338:.\Generated_Source\PSoC5/CapSense_CSD_CSHL.c ****                         
1339:.\Generated_Source\PSoC5/CapSense_CSD_CSHL.c ****                         CapSense_CSD_posFiltersData[firstTimeIndex] = 1u;
1340:.\Generated_Source\PSoC5/CapSense_CSD_CSHL.c ****                     }
1341:.\Generated_Source\PSoC5/CapSense_CSD_CSHL.c ****                     else
1342:.\Generated_Source\PSoC5/CapSense_CSD_CSHL.c ****                     {
1343:.\Generated_Source\PSoC5/CapSense_CSD_CSHL.c ****                         /* Do filtering */
1344:.\Generated_Source\PSoC5/CapSense_CSD_CSHL.c ****                         #if (0u != (CapSense_CSD_MEDIAN_FILTER & CapSense_CSD_LINEAR_SLIDERS_POS_FI
1345:.\Generated_Source\PSoC5/CapSense_CSD_CSHL.c ****                             if (0u != (posFiltersMask & CapSense_CSD_MEDIAN_FILTER))
1346:.\Generated_Source\PSoC5/CapSense_CSD_CSHL.c ****                             {
1347:.\Generated_Source\PSoC5/CapSense_CSD_CSHL.c ****                                 tempPos = (uint8) position;
1348:.\Generated_Source\PSoC5/CapSense_CSD_CSHL.c ****                                 position = CapSense_CSD_MedianFilter(position, 
1349:.\Generated_Source\PSoC5/CapSense_CSD_CSHL.c ****                                                                     CapSense_CSD_posFiltersData[pos
ARM GAS  C:\Users\yguan5\AppData\Local\Temp\ccX3ogeL.s 			page 52


1350:.\Generated_Source\PSoC5/CapSense_CSD_CSHL.c ****                                                                     CapSense_CSD_posFiltersData[pos
1351:.\Generated_Source\PSoC5/CapSense_CSD_CSHL.c ****                                 CapSense_CSD_posFiltersData[posIndex + 1u] = 
1352:.\Generated_Source\PSoC5/CapSense_CSD_CSHL.c ****                                                                              CapSense_CSD_posFilter
1353:.\Generated_Source\PSoC5/CapSense_CSD_CSHL.c ****                                 CapSense_CSD_posFiltersData[posIndex] = tempPos;
1354:.\Generated_Source\PSoC5/CapSense_CSD_CSHL.c ****                             }
1355:.\Generated_Source\PSoC5/CapSense_CSD_CSHL.c ****                         #endif /*(0u != (CapSense_CSD_MEDIAN_FILTER &
1356:.\Generated_Source\PSoC5/CapSense_CSD_CSHL.c ****                                *         CapSense_CSD_LINEAR_SLIDERS_POS_FILTERS_MASK))
1357:.\Generated_Source\PSoC5/CapSense_CSD_CSHL.c ****                                */
1358:.\Generated_Source\PSoC5/CapSense_CSD_CSHL.c **** 
1359:.\Generated_Source\PSoC5/CapSense_CSD_CSHL.c ****                         #if(0u!=(CapSense_CSD_AVERAGING_FILTER & CapSense_CSD_LINEAR_SLIDERS_POS_FI
1360:.\Generated_Source\PSoC5/CapSense_CSD_CSHL.c ****                             if (0u != (posFiltersMask & CapSense_CSD_AVERAGING_FILTER)) 
1361:.\Generated_Source\PSoC5/CapSense_CSD_CSHL.c ****                             {
1362:.\Generated_Source\PSoC5/CapSense_CSD_CSHL.c ****                                 tempPos = (uint8) position;
1363:.\Generated_Source\PSoC5/CapSense_CSD_CSHL.c ****                                 position = CapSense_CSD_AveragingFilter(position, 
1364:.\Generated_Source\PSoC5/CapSense_CSD_CSHL.c ****                                                                        CapSense_CSD_posFiltersData[
1365:.\Generated_Source\PSoC5/CapSense_CSD_CSHL.c ****                                                                        CapSense_CSD_posFiltersData[
1366:.\Generated_Source\PSoC5/CapSense_CSD_CSHL.c ****                                 CapSense_CSD_posFiltersData[posIndex+1u]=CapSense_CSD_posFiltersDat
1367:.\Generated_Source\PSoC5/CapSense_CSD_CSHL.c ****                                 CapSense_CSD_posFiltersData[posIndex] = tempPos;
1368:.\Generated_Source\PSoC5/CapSense_CSD_CSHL.c ****                             }
1369:.\Generated_Source\PSoC5/CapSense_CSD_CSHL.c ****                         #endif /* (0u != (CapSense_CSD_AVERAGING_FILTER & \
1370:.\Generated_Source\PSoC5/CapSense_CSD_CSHL.c ****                                *           CapSense_CSD_LINEAR_SLIDERS_POS_FILTERS_MASK))
1371:.\Generated_Source\PSoC5/CapSense_CSD_CSHL.c ****                                */
1372:.\Generated_Source\PSoC5/CapSense_CSD_CSHL.c **** 
1373:.\Generated_Source\PSoC5/CapSense_CSD_CSHL.c ****                         #if (0u != (CapSense_CSD_IIR2_FILTER & CapSense_CSD_LINEAR_SLIDERS_POS_FILT
1374:.\Generated_Source\PSoC5/CapSense_CSD_CSHL.c ****                             if (0u != (posFiltersMask & CapSense_CSD_IIR2_FILTER)) 
1375:.\Generated_Source\PSoC5/CapSense_CSD_CSHL.c ****                             {
1376:.\Generated_Source\PSoC5/CapSense_CSD_CSHL.c ****                                 position = CapSense_CSD_IIR2Filter(position,
1377:.\Generated_Source\PSoC5/CapSense_CSD_CSHL.c ****                                                                        CapSense_CSD_posFiltersData[
1378:.\Generated_Source\PSoC5/CapSense_CSD_CSHL.c ****                                 CapSense_CSD_posFiltersData[posIndex] = (uint8) position;
1379:.\Generated_Source\PSoC5/CapSense_CSD_CSHL.c ****                             }
1380:.\Generated_Source\PSoC5/CapSense_CSD_CSHL.c ****                         #endif /* (0u != (CapSense_CSD_IIR2_FILTER & \
1381:.\Generated_Source\PSoC5/CapSense_CSD_CSHL.c ****                                *          CapSense_CSD_LINEAR_SLIDERS_POS_FILTERS_MASK))
1382:.\Generated_Source\PSoC5/CapSense_CSD_CSHL.c ****                                */
1383:.\Generated_Source\PSoC5/CapSense_CSD_CSHL.c **** 
1384:.\Generated_Source\PSoC5/CapSense_CSD_CSHL.c ****                         #if (0u != (CapSense_CSD_IIR4_FILTER & CapSense_CSD_LINEAR_SLIDERS_POS_FILT
1385:.\Generated_Source\PSoC5/CapSense_CSD_CSHL.c ****                             if (0u != (posFiltersMask & CapSense_CSD_IIR4_FILTER))
1386:.\Generated_Source\PSoC5/CapSense_CSD_CSHL.c ****                             {
1387:.\Generated_Source\PSoC5/CapSense_CSD_CSHL.c ****                                 position = CapSense_CSD_IIR4Filter(position, 
1388:.\Generated_Source\PSoC5/CapSense_CSD_CSHL.c ****                                                                        CapSense_CSD_posFiltersData[
1389:.\Generated_Source\PSoC5/CapSense_CSD_CSHL.c ****                                 CapSense_CSD_posFiltersData[posIndex] = (uint8) position;
1390:.\Generated_Source\PSoC5/CapSense_CSD_CSHL.c ****                             }                                
1391:.\Generated_Source\PSoC5/CapSense_CSD_CSHL.c ****                         #endif /* (0u != (CapSense_CSD_IIR4_FILTER & \
1392:.\Generated_Source\PSoC5/CapSense_CSD_CSHL.c ****                                *          CapSense_CSD_LINEAR_SLIDERS_POS_FILTERS_MASK))
1393:.\Generated_Source\PSoC5/CapSense_CSD_CSHL.c ****                                */
1394:.\Generated_Source\PSoC5/CapSense_CSD_CSHL.c **** 
1395:.\Generated_Source\PSoC5/CapSense_CSD_CSHL.c ****                         #if (0u != (CapSense_CSD_JITTER_FILTER & CapSense_CSD_LINEAR_SLIDERS_POS_FI
1396:.\Generated_Source\PSoC5/CapSense_CSD_CSHL.c ****                             if (0u != (posFiltersMask & CapSense_CSD_JITTER_FILTER))
1397:.\Generated_Source\PSoC5/CapSense_CSD_CSHL.c ****                             {
1398:.\Generated_Source\PSoC5/CapSense_CSD_CSHL.c ****                                 position = CapSense_CSD_JitterFilter(position, 
1399:.\Generated_Source\PSoC5/CapSense_CSD_CSHL.c ****                                                                          CapSense_CSD_posFiltersDat
1400:.\Generated_Source\PSoC5/CapSense_CSD_CSHL.c ****                                 CapSense_CSD_posFiltersData[posIndex] = (uint8) position;
1401:.\Generated_Source\PSoC5/CapSense_CSD_CSHL.c ****                             }
1402:.\Generated_Source\PSoC5/CapSense_CSD_CSHL.c ****                         #endif /* (0u != (CapSense_CSD_JITTER_FILTER & \
1403:.\Generated_Source\PSoC5/CapSense_CSD_CSHL.c ****                                *           CapSense_CSD_LINEAR_SLIDERS_POS_FILTERS_MASK))
1404:.\Generated_Source\PSoC5/CapSense_CSD_CSHL.c ****                                */
1405:.\Generated_Source\PSoC5/CapSense_CSD_CSHL.c ****                     }
1406:.\Generated_Source\PSoC5/CapSense_CSD_CSHL.c ****                 }
ARM GAS  C:\Users\yguan5\AppData\Local\Temp\ccX3ogeL.s 			page 53


1407:.\Generated_Source\PSoC5/CapSense_CSD_CSHL.c ****             #endif /* (0u != CapSense_CSD_LINEAR_SLIDERS_POS_FILTERS_MASK) */
1408:.\Generated_Source\PSoC5/CapSense_CSD_CSHL.c **** 
1409:.\Generated_Source\PSoC5/CapSense_CSD_CSHL.c ****         }
1410:.\Generated_Source\PSoC5/CapSense_CSD_CSHL.c ****         else
1411:.\Generated_Source\PSoC5/CapSense_CSD_CSHL.c ****         {
1412:.\Generated_Source\PSoC5/CapSense_CSD_CSHL.c ****             /* The maximum didn't find */
1413:.\Generated_Source\PSoC5/CapSense_CSD_CSHL.c ****             position = 0xFFFFu;
 1550              		.loc 1 1413 0
 1551 007e 4FF6FF73 		movw	r3, #65535
 1552 0082 BB81     		strh	r3, [r7, #12]	@ movhi
 1553              	.L79:
1414:.\Generated_Source\PSoC5/CapSense_CSD_CSHL.c **** 
1415:.\Generated_Source\PSoC5/CapSense_CSD_CSHL.c ****             #if(0u != CapSense_CSD_LINEAR_SLIDERS_POS_FILTERS_MASK)
1416:.\Generated_Source\PSoC5/CapSense_CSD_CSHL.c ****                 /* Reset the filters */
1417:.\Generated_Source\PSoC5/CapSense_CSD_CSHL.c ****                 if(0u != (posFiltersMask & CapSense_CSD_ANY_POS_FILTER))
1418:.\Generated_Source\PSoC5/CapSense_CSD_CSHL.c ****                 {
1419:.\Generated_Source\PSoC5/CapSense_CSD_CSHL.c ****                     CapSense_CSD_posFiltersData[firstTimeIndex] = 0u;
1420:.\Generated_Source\PSoC5/CapSense_CSD_CSHL.c ****                 }
1421:.\Generated_Source\PSoC5/CapSense_CSD_CSHL.c ****             #endif /* (0u != CapSense_CSD_LINEAR_SLIDERS_POS_FILTERS_MASK) */
1422:.\Generated_Source\PSoC5/CapSense_CSD_CSHL.c ****         }
1423:.\Generated_Source\PSoC5/CapSense_CSD_CSHL.c **** 
1424:.\Generated_Source\PSoC5/CapSense_CSD_CSHL.c ****         
1425:.\Generated_Source\PSoC5/CapSense_CSD_CSHL.c ****         return (position);
 1554              		.loc 1 1425 0
 1555 0084 BB89     		ldrh	r3, [r7, #12]
1426:.\Generated_Source\PSoC5/CapSense_CSD_CSHL.c ****     }
 1556              		.loc 1 1426 0
 1557 0086 1846     		mov	r0, r3
 1558 0088 07F11007 		add	r7, r7, #16
 1559 008c BD46     		mov	sp, r7
 1560 008e 80BD     		pop	{r7, pc}
 1561              		.cfi_endproc
 1562              	.LFE13:
 1563              		.size	CapSense_CSD_GetCentroidPos, .-CapSense_CSD_GetCentroidPos
 1564              		.text
 1565              	.Letext0: