ARM GAS  C:\Users\yguan5\AppData\Local\Temp\ccf0bccD.s 			page 1


   1              		.syntax unified
   2              		.cpu cortex-m3
   3              		.fpu softvfp
   4              		.eabi_attribute 20, 1
   5              		.eabi_attribute 21, 1
   6              		.eabi_attribute 23, 3
   7              		.eabi_attribute 24, 1
   8              		.eabi_attribute 25, 1
   9              		.eabi_attribute 26, 1
  10              		.eabi_attribute 30, 6
  11              		.eabi_attribute 18, 4
  12              		.thumb
  13              		.file	"main.c"
  20 0000 52030000 		.text
  20      02005300 
  20      00000201 
  20      FB0E0D00 
  20      01010101 
  21              	.Ltext0:
  22              		.cfi_sections	.debug_frame
  23              		.global	opponID
  24              		.data
  25              		.type	opponID, %object
  26              		.size	opponID, 1
  27              	opponID:
  28 0000 85       		.byte	-123
  29              		.global	ID
  30              		.type	ID, %object
  31              		.size	ID, 1
  32              	ID:
  33 0001 12       		.byte	18
  34              		.global	DelayTime
  35 0002 0000     		.align	2
  36              		.type	DelayTime, %object
  37              		.size	DelayTime, 4
  38              	DelayTime:
  39 0004 02000000 		.word	2
  40              		.global	GRow
  41              		.align	2
  42              		.type	GRow, %object
  43              		.size	GRow, 4
  44              	GRow:
  45 0008 08000000 		.word	8
  46              		.comm	arrayLED,256,4
  47              		.global	setButton
  48              		.bss
  49              		.type	setButton, %object
  50              		.size	setButton, 1
  51              	setButton:
  52 0000 00       		.space	1
  53              		.global	currentSpot
ARM GAS  C:\Users\yguan5\AppData\Local\Temp\ccf0bccD.s 			page 2


  54              		.data
  55              		.type	currentSpot, %object
  56              		.size	currentSpot, 1
  57              	currentSpot:
  58 000c 01       		.byte	1
  59              		.global	setSpot
  60              		.bss
  61              		.type	setSpot, %object
  62              		.size	setSpot, 1
  63              	setSpot:
  64 0001 00       		.space	1
  65              		.comm	CSpot,2,2
  66              		.global	selecting
  67              		.data
  68              		.type	selecting, %object
  69              		.size	selecting, 1
  70              	selecting:
  71 000d 07       		.byte	7
  72              		.comm	setLocation,1,1
  73              		.comm	Horizontal,8,4
  74              		.comm	Vertical,8,4
  75              		.global	Flashing
  76              		.bss
  77              		.type	Flashing, %object
  78              		.size	Flashing, 1
  79              	Flashing:
  80 0002 00       		.space	1
  81              		.global	Winner
  82              		.type	Winner, %object
  83              		.size	Winner, 1
  84              	Winner:
  85 0003 00       		.space	1
  86              		.global	twist
  87              		.type	twist, %object
  88              		.size	twist, 1
  89              	twist:
  90 0004 00       		.space	1
  91              		.global	z
  92              		.type	z, %object
  93              		.size	z, 1
  94              	z:
  95 0005 00       		.space	1
  96              		.comm	flag,1,1
  97              		.global	home
  98              		.data
  99              		.type	home, %object
 100              		.size	home, 1
 101              	home:
 102 000e 01       		.byte	1
 103              		.comm	playerTurn,1,1
 104              		.comm	checkSum,1,1
 105              		.global	GT
 106 000f 00       		.bss
 107              		.type	GT, %object
 108              		.size	GT, 1
 109              	GT:
 110 0006 00       		.space	1
ARM GAS  C:\Users\yguan5\AppData\Local\Temp\ccf0bccD.s 			page 3


 111              		.comm	Senting,13,4
 112              		.comm	Received,13,4
 113              		.section	.text.fl,"ax",%progbits
 114              		.align	2
 115              		.global	fl
 116              		.thumb
 117              		.thumb_func
 118              		.type	fl, %function
 119              	fl:
 120              	.LFB29:
 121              		.file 1 ".\\main.c"
   1:.\main.c      **** /* ========================================
   2:.\main.c      ****  *
   3:.\main.c      ****  * Copyright YOUR COMPANY, THE YEAR
   4:.\main.c      ****  * All Rights Reserved
   5:.\main.c      ****  * UNPUBLISHED, LICENSED SOFTWARE.
   6:.\main.c      ****  *
   7:.\main.c      ****  * CONFIDENTIAL AND PROPRIETARY INFORMATION
   8:.\main.c      ****  * WHICH IS THE PROPERTY OF your company.
   9:.\main.c      ****  *
  10:.\main.c      ****  * ========================================
  11:.\main.c      **** */
  12:.\main.c      **** #include <device.h>
  13:.\main.c      **** #define Blue 1
  14:.\main.c      **** #define myColor 1
  15:.\main.c      **** #define Red 2
  16:.\main.c      **** #define Nothing 0
  17:.\main.c      **** 
  18:.\main.c      **** 
  19:.\main.c      **** /*variables used in program*/
  20:.\main.c      **** uint8 opponID = 0x85;
  21:.\main.c      **** uint8 ID = 0x12;
  22:.\main.c      **** uint32 DelayTime = 2;
  23:.\main.c      **** uint32 GRow = 8;
  24:.\main.c      **** uint32 arrayLED[8][8];
  25:.\main.c      **** uint8  setButton = 0;
  26:.\main.c      **** uint8  currentSpot = 1;
  27:.\main.c      **** uint8  setSpot = 0;
  28:.\main.c      **** uint16 CSpot;
  29:.\main.c      **** int8    selecting = 7;
  30:.\main.c      **** uint8   setLocation;
  31:.\main.c      **** uint8   Horizontal[8];
  32:.\main.c      **** uint8   Vertical[8];
  33:.\main.c      **** uint8   Flashing = 0;
  34:.\main.c      **** uint8   Winner = 0;
  35:.\main.c      **** uint8   twist = 0;
  36:.\main.c      **** uint8   z =0;
  37:.\main.c      **** uint8   flag;
  38:.\main.c      **** uint8   home = 1;
  39:.\main.c      **** uint8   playerTurn;
  40:.\main.c      **** uint8   checkSum;
  41:.\main.c      **** uint8   GT = 0;
  42:.\main.c      **** uint8 Senting[13];
  43:.\main.c      **** uint8 Received[13];
  44:.\main.c      **** 
  45:.\main.c      **** 
  46:.\main.c      **** 
ARM GAS  C:\Users\yguan5\AppData\Local\Temp\ccf0bccD.s 			page 4


  47:.\main.c      **** /*interrupt to flash after win*/
  48:.\main.c      **** CY_ISR(fl) 
  49:.\main.c      **** {
 122              		.loc 1 49 0
 123              		.cfi_startproc
 124              		@ args = 0, pretend = 0, frame = 0
 125              		@ frame_needed = 1, uses_anonymous_args = 0
 126 0000 80B5     		push	{r7, lr}
 127              	.LCFI0:
 128              		.cfi_def_cfa_offset 8
 129 0002 00AF     		add	r7, sp, #0
 130              		.cfi_offset 14, -4
 131              		.cfi_offset 7, -8
 132              	.LCFI1:
 133              		.cfi_def_cfa_register 7
  50:.\main.c      ****     /*if winning spot is lit, turn it off*/
  51:.\main.c      ****     if(twist == 0){
 134              		.loc 1 51 0
 135 0004 40F20003 		movw	r3, #:lower16:twist
 136 0008 C0F20003 		movt	r3, #:upper16:twist
 137 000c 1B78     		ldrb	r3, [r3, #0]	@ zero_extendqisi2
 138 000e 002B     		cmp	r3, #0
 139 0010 46D1     		bne	.L2
  52:.\main.c      ****         for(z=0; z<4; z++){
 140              		.loc 1 52 0
 141 0012 40F20003 		movw	r3, #:lower16:z
 142 0016 C0F20003 		movt	r3, #:upper16:z
 143 001a 4FF00002 		mov	r2, #0
 144 001e 1A70     		strb	r2, [r3, #0]
 145 0020 2FE0     		b	.L3
 146              	.L4:
  53:.\main.c      ****             arrayLED[Vertical[z]][Horizontal[z]] = Nothing;
 147              		.loc 1 53 0
 148 0022 40F20003 		movw	r3, #:lower16:z
 149 0026 C0F20003 		movt	r3, #:upper16:z
 150 002a 1B78     		ldrb	r3, [r3, #0]	@ zero_extendqisi2
 151 002c 1A46     		mov	r2, r3
 152 002e 40F20003 		movw	r3, #:lower16:Vertical
 153 0032 C0F20003 		movt	r3, #:upper16:Vertical
 154 0036 9B5C     		ldrb	r3, [r3, r2]	@ zero_extendqisi2
 155 0038 1946     		mov	r1, r3
 156 003a 40F20003 		movw	r3, #:lower16:z
 157 003e C0F20003 		movt	r3, #:upper16:z
 158 0042 1B78     		ldrb	r3, [r3, #0]	@ zero_extendqisi2
 159 0044 1A46     		mov	r2, r3
 160 0046 40F20003 		movw	r3, #:lower16:Horizontal
 161 004a C0F20003 		movt	r3, #:upper16:Horizontal
 162 004e 9B5C     		ldrb	r3, [r3, r2]	@ zero_extendqisi2
 163 0050 1A46     		mov	r2, r3
 164 0052 40F20003 		movw	r3, #:lower16:arrayLED
 165 0056 C0F20003 		movt	r3, #:upper16:arrayLED
 166 005a 4FEAC101 		lsl	r1, r1, #3
 167 005e 0A44     		add	r2, r1, r2
 168 0060 4FF00001 		mov	r1, #0
 169 0064 43F82210 		str	r1, [r3, r2, lsl #2]
 170              		.loc 1 52 0
 171 0068 40F20003 		movw	r3, #:lower16:z
ARM GAS  C:\Users\yguan5\AppData\Local\Temp\ccf0bccD.s 			page 5


 172 006c C0F20003 		movt	r3, #:upper16:z
 173 0070 1B78     		ldrb	r3, [r3, #0]	@ zero_extendqisi2
 174 0072 03F10103 		add	r3, r3, #1
 175 0076 DAB2     		uxtb	r2, r3
 176 0078 40F20003 		movw	r3, #:lower16:z
 177 007c C0F20003 		movt	r3, #:upper16:z
 178 0080 1A70     		strb	r2, [r3, #0]
 179              	.L3:
 180 0082 40F20003 		movw	r3, #:lower16:z
 181 0086 C0F20003 		movt	r3, #:upper16:z
 182 008a 1B78     		ldrb	r3, [r3, #0]	@ zero_extendqisi2
 183 008c 032B     		cmp	r3, #3
 184 008e C8D9     		bls	.L4
  54:.\main.c      ****         }
  55:.\main.c      ****         twist = 1;
 185              		.loc 1 55 0
 186 0090 40F20003 		movw	r3, #:lower16:twist
 187 0094 C0F20003 		movt	r3, #:upper16:twist
 188 0098 4FF00102 		mov	r2, #1
 189 009c 1A70     		strb	r2, [r3, #0]
 190 009e 49E0     		b	.L5
 191              	.L2:
  56:.\main.c      ****     }else{
  57:.\main.c      ****         /*if winning spot is off, turn it on*/
  58:.\main.c      ****         for(z=0; z<4; z++){
 192              		.loc 1 58 0
 193 00a0 40F20003 		movw	r3, #:lower16:z
 194 00a4 C0F20003 		movt	r3, #:upper16:z
 195 00a8 4FF00002 		mov	r2, #0
 196 00ac 1A70     		strb	r2, [r3, #0]
 197 00ae 33E0     		b	.L6
 198              	.L7:
  59:.\main.c      ****             arrayLED[Vertical[z]][Horizontal[z]] = Winner;
 199              		.loc 1 59 0
 200 00b0 40F20003 		movw	r3, #:lower16:z
 201 00b4 C0F20003 		movt	r3, #:upper16:z
 202 00b8 1B78     		ldrb	r3, [r3, #0]	@ zero_extendqisi2
 203 00ba 1A46     		mov	r2, r3
 204 00bc 40F20003 		movw	r3, #:lower16:Vertical
 205 00c0 C0F20003 		movt	r3, #:upper16:Vertical
 206 00c4 9B5C     		ldrb	r3, [r3, r2]	@ zero_extendqisi2
 207 00c6 1846     		mov	r0, r3
 208 00c8 40F20003 		movw	r3, #:lower16:z
 209 00cc C0F20003 		movt	r3, #:upper16:z
 210 00d0 1B78     		ldrb	r3, [r3, #0]	@ zero_extendqisi2
 211 00d2 1A46     		mov	r2, r3
 212 00d4 40F20003 		movw	r3, #:lower16:Horizontal
 213 00d8 C0F20003 		movt	r3, #:upper16:Horizontal
 214 00dc 9B5C     		ldrb	r3, [r3, r2]	@ zero_extendqisi2
 215 00de 1A46     		mov	r2, r3
 216 00e0 40F20003 		movw	r3, #:lower16:Winner
 217 00e4 C0F20003 		movt	r3, #:upper16:Winner
 218 00e8 1B78     		ldrb	r3, [r3, #0]	@ zero_extendqisi2
 219 00ea 1946     		mov	r1, r3
 220 00ec 40F20003 		movw	r3, #:lower16:arrayLED
 221 00f0 C0F20003 		movt	r3, #:upper16:arrayLED
 222 00f4 4FEAC000 		lsl	r0, r0, #3
ARM GAS  C:\Users\yguan5\AppData\Local\Temp\ccf0bccD.s 			page 6


 223 00f8 0244     		add	r2, r0, r2
 224 00fa 43F82210 		str	r1, [r3, r2, lsl #2]
 225              		.loc 1 58 0
 226 00fe 40F20003 		movw	r3, #:lower16:z
 227 0102 C0F20003 		movt	r3, #:upper16:z
 228 0106 1B78     		ldrb	r3, [r3, #0]	@ zero_extendqisi2
 229 0108 03F10103 		add	r3, r3, #1
 230 010c DAB2     		uxtb	r2, r3
 231 010e 40F20003 		movw	r3, #:lower16:z
 232 0112 C0F20003 		movt	r3, #:upper16:z
 233 0116 1A70     		strb	r2, [r3, #0]
 234              	.L6:
 235 0118 40F20003 		movw	r3, #:lower16:z
 236 011c C0F20003 		movt	r3, #:upper16:z
 237 0120 1B78     		ldrb	r3, [r3, #0]	@ zero_extendqisi2
 238 0122 032B     		cmp	r3, #3
 239 0124 C4D9     		bls	.L7
  60:.\main.c      ****         }
  61:.\main.c      ****         twist = 0;
 240              		.loc 1 61 0
 241 0126 40F20003 		movw	r3, #:lower16:twist
 242 012a C0F20003 		movt	r3, #:upper16:twist
 243 012e 4FF00002 		mov	r2, #0
 244 0132 1A70     		strb	r2, [r3, #0]
 245              	.L5:
  62:.\main.c      ****     }
  63:.\main.c      ****     /* # the flashes = Flashing/2*/
  64:.\main.c      ****     Flashing++;
 246              		.loc 1 64 0
 247 0134 40F20003 		movw	r3, #:lower16:Flashing
 248 0138 C0F20003 		movt	r3, #:upper16:Flashing
 249 013c 1B78     		ldrb	r3, [r3, #0]	@ zero_extendqisi2
 250 013e 03F10103 		add	r3, r3, #1
 251 0142 DAB2     		uxtb	r2, r3
 252 0144 40F20003 		movw	r3, #:lower16:Flashing
 253 0148 C0F20003 		movt	r3, #:upper16:Flashing
 254 014c 1A70     		strb	r2, [r3, #0]
  65:.\main.c      ****     Timer_ReadStatusRegister(); 
 255              		.loc 1 65 0
 256 014e FFF7FEFF 		bl	Timer_ReadStatusRegister
  66:.\main.c      **** }
 257              		.loc 1 66 0
 258 0152 80BD     		pop	{r7, pc}
 259              		.cfi_endproc
 260              	.LFE29:
 261              		.size	fl, .-fl
 262              		.section	.text.sleep,"ax",%progbits
 263              		.align	2
 264              		.global	sleep
 265              		.thumb
 266              		.thumb_func
 267              		.type	sleep, %function
 268              	sleep:
 269              	.LFB30:
  67:.\main.c      **** 
  68:.\main.c      **** 
  69:.\main.c      **** /*sleep timer interrupt for when the dics is dropping down*/
ARM GAS  C:\Users\yguan5\AppData\Local\Temp\ccf0bccD.s 			page 7


  70:.\main.c      **** CY_ISR(sleep) 
  71:.\main.c      **** { 
 270              		.loc 1 71 0
 271              		.cfi_startproc
 272              		@ args = 0, pretend = 0, frame = 0
 273              		@ frame_needed = 1, uses_anonymous_args = 0
 274 0000 80B5     		push	{r7, lr}
 275              	.LCFI2:
 276              		.cfi_def_cfa_offset 8
 277 0002 00AF     		add	r7, sp, #0
 278              		.cfi_offset 14, -4
 279              		.cfi_offset 7, -8
 280              	.LCFI3:
 281              		.cfi_def_cfa_register 7
  72:.\main.c      ****     /* if the next LED on the panel is not taken, keep dropping*/
  73:.\main.c      ****     if((selecting>0) && (arrayLED[selecting-1][setLocation] == Nothing)){
 282              		.loc 1 73 0
 283 0004 40F20003 		movw	r3, #:lower16:selecting
 284 0008 C0F20003 		movt	r3, #:upper16:selecting
 285 000c 1B78     		ldrb	r3, [r3, #0]	@ zero_extendqisi2
 286 000e 5BB2     		sxtb	r3, r3
 287 0010 002B     		cmp	r3, #0
 288 0012 6ADD     		ble	.L10
 289 0014 40F20003 		movw	r3, #:lower16:selecting
 290 0018 C0F20003 		movt	r3, #:upper16:selecting
 291 001c 1B78     		ldrb	r3, [r3, #0]	@ zero_extendqisi2
 292 001e 5BB2     		sxtb	r3, r3
 293 0020 03F1FF31 		add	r1, r3, #-1
 294 0024 40F20003 		movw	r3, #:lower16:setLocation
 295 0028 C0F20003 		movt	r3, #:upper16:setLocation
 296 002c 1B78     		ldrb	r3, [r3, #0]	@ zero_extendqisi2
 297 002e 1A46     		mov	r2, r3
 298 0030 40F20003 		movw	r3, #:lower16:arrayLED
 299 0034 C0F20003 		movt	r3, #:upper16:arrayLED
 300 0038 4FEAC101 		lsl	r1, r1, #3
 301 003c 0A44     		add	r2, r1, r2
 302 003e 53F82230 		ldr	r3, [r3, r2, lsl #2]
 303 0042 002B     		cmp	r3, #0
 304 0044 51D1     		bne	.L10
  74:.\main.c      ****         arrayLED[selecting-1][setLocation] = arrayLED[selecting][setLocation];
 305              		.loc 1 74 0
 306 0046 40F20003 		movw	r3, #:lower16:selecting
 307 004a C0F20003 		movt	r3, #:upper16:selecting
 308 004e 1B78     		ldrb	r3, [r3, #0]	@ zero_extendqisi2
 309 0050 5BB2     		sxtb	r3, r3
 310 0052 03F1FF30 		add	r0, r3, #-1
 311 0056 40F20003 		movw	r3, #:lower16:setLocation
 312 005a C0F20003 		movt	r3, #:upper16:setLocation
 313 005e 1B78     		ldrb	r3, [r3, #0]	@ zero_extendqisi2
 314 0060 1A46     		mov	r2, r3
 315 0062 40F20003 		movw	r3, #:lower16:selecting
 316 0066 C0F20003 		movt	r3, #:upper16:selecting
 317 006a 1B78     		ldrb	r3, [r3, #0]	@ zero_extendqisi2
 318 006c 4FFA83FC 		sxtb	ip, r3
 319 0070 40F20003 		movw	r3, #:lower16:setLocation
 320 0074 C0F20003 		movt	r3, #:upper16:setLocation
 321 0078 1B78     		ldrb	r3, [r3, #0]	@ zero_extendqisi2
ARM GAS  C:\Users\yguan5\AppData\Local\Temp\ccf0bccD.s 			page 8


 322 007a 1946     		mov	r1, r3
 323 007c 40F20003 		movw	r3, #:lower16:arrayLED
 324 0080 C0F20003 		movt	r3, #:upper16:arrayLED
 325 0084 4FEACC0C 		lsl	ip, ip, #3
 326 0088 6144     		add	r1, ip, r1
 327 008a 53F82110 		ldr	r1, [r3, r1, lsl #2]
 328 008e 40F20003 		movw	r3, #:lower16:arrayLED
 329 0092 C0F20003 		movt	r3, #:upper16:arrayLED
 330 0096 4FEAC000 		lsl	r0, r0, #3
 331 009a 0244     		add	r2, r0, r2
 332 009c 43F82210 		str	r1, [r3, r2, lsl #2]
  75:.\main.c      ****         arrayLED[selecting][setLocation] = Nothing;
 333              		.loc 1 75 0
 334 00a0 40F20003 		movw	r3, #:lower16:selecting
 335 00a4 C0F20003 		movt	r3, #:upper16:selecting
 336 00a8 1B78     		ldrb	r3, [r3, #0]	@ zero_extendqisi2
 337 00aa 59B2     		sxtb	r1, r3
 338 00ac 40F20003 		movw	r3, #:lower16:setLocation
 339 00b0 C0F20003 		movt	r3, #:upper16:setLocation
 340 00b4 1B78     		ldrb	r3, [r3, #0]	@ zero_extendqisi2
 341 00b6 1A46     		mov	r2, r3
 342 00b8 40F20003 		movw	r3, #:lower16:arrayLED
 343 00bc C0F20003 		movt	r3, #:upper16:arrayLED
 344 00c0 4FEAC101 		lsl	r1, r1, #3
 345 00c4 0A44     		add	r2, r1, r2
 346 00c6 4FF00001 		mov	r1, #0
 347 00ca 43F82210 		str	r1, [r3, r2, lsl #2]
  76:.\main.c      ****         selecting --;
 348              		.loc 1 76 0
 349 00ce 40F20003 		movw	r3, #:lower16:selecting
 350 00d2 C0F20003 		movt	r3, #:upper16:selecting
 351 00d6 1B78     		ldrb	r3, [r3, #0]	@ zero_extendqisi2
 352 00d8 03F1FF33 		add	r3, r3, #-1
 353 00dc DAB2     		uxtb	r2, r3
 354 00de 40F20003 		movw	r3, #:lower16:selecting
 355 00e2 C0F20003 		movt	r3, #:upper16:selecting
 356 00e6 1A70     		strb	r2, [r3, #0]
 357              		.loc 1 73 0
 358 00e8 06E0     		b	.L11
 359              	.L10:
  77:.\main.c      ****     }else{
  78:.\main.c      ****         setSpot = 1;
 360              		.loc 1 78 0
 361 00ea 40F20003 		movw	r3, #:lower16:setSpot
 362 00ee C0F20003 		movt	r3, #:upper16:setSpot
 363 00f2 4FF00102 		mov	r2, #1
 364 00f6 1A70     		strb	r2, [r3, #0]
 365              	.L11:
  79:.\main.c      ****     }
  80:.\main.c      ****     SleepTimer_GetStatus(); 
 366              		.loc 1 80 0
 367 00f8 FFF7FEFF 		bl	SleepTimer_GetStatus
  81:.\main.c      **** } 
 368              		.loc 1 81 0
 369 00fc 80BD     		pop	{r7, pc}
 370              		.cfi_endproc
 371              	.LFE30:
ARM GAS  C:\Users\yguan5\AppData\Local\Temp\ccf0bccD.s 			page 9


 372              		.size	sleep, .-sleep
 373 00fe 00BF     		.section	.text.resetArray,"ax",%progbits
 374              		.align	2
 375              		.global	resetArray
 376              		.thumb
 377              		.thumb_func
 378              		.type	resetArray, %function
 379              	resetArray:
 380              	.LFB31:
  82:.\main.c      **** 
  83:.\main.c      **** /* resets the all the arrays to nothing*/
  84:.\main.c      **** void resetArray(){
 381              		.loc 1 84 0
 382              		.cfi_startproc
 383              		@ args = 0, pretend = 0, frame = 8
 384              		@ frame_needed = 1, uses_anonymous_args = 0
 385              		@ link register save eliminated.
 386 0000 80B4     		push	{r7}
 387              	.LCFI4:
 388              		.cfi_def_cfa_offset 4
 389 0002 83B0     		sub	sp, sp, #12
 390              	.LCFI5:
 391              		.cfi_def_cfa_offset 16
 392 0004 00AF     		add	r7, sp, #0
 393              		.cfi_offset 7, -4
 394              	.LCFI6:
 395              		.cfi_def_cfa_register 7
  85:.\main.c      ****     uint8 h, t;
  86:.\main.c      ****     for(h=0; h<8; h++){
 396              		.loc 1 86 0
 397 0006 4FF00003 		mov	r3, #0
 398 000a BB71     		strb	r3, [r7, #6]
 399 000c 1BE0     		b	.L14
 400              	.L17:
  87:.\main.c      ****         for(t=0; t<8; t++){
 401              		.loc 1 87 0
 402 000e 4FF00003 		mov	r3, #0
 403 0012 FB71     		strb	r3, [r7, #7]
 404 0014 10E0     		b	.L15
 405              	.L16:
  88:.\main.c      ****             arrayLED[h][t] = Nothing;
 406              		.loc 1 88 0
 407 0016 B979     		ldrb	r1, [r7, #6]	@ zero_extendqisi2
 408 0018 FA79     		ldrb	r2, [r7, #7]	@ zero_extendqisi2
 409 001a 40F20003 		movw	r3, #:lower16:arrayLED
 410 001e C0F20003 		movt	r3, #:upper16:arrayLED
 411 0022 4FEAC101 		lsl	r1, r1, #3
 412 0026 0A44     		add	r2, r1, r2
 413 0028 4FF00001 		mov	r1, #0
 414 002c 43F82210 		str	r1, [r3, r2, lsl #2]
 415              		.loc 1 87 0
 416 0030 FB79     		ldrb	r3, [r7, #7]
 417 0032 03F10103 		add	r3, r3, #1
 418 0036 FB71     		strb	r3, [r7, #7]
 419              	.L15:
 420 0038 FB79     		ldrb	r3, [r7, #7]	@ zero_extendqisi2
 421 003a 072B     		cmp	r3, #7
ARM GAS  C:\Users\yguan5\AppData\Local\Temp\ccf0bccD.s 			page 10


 422 003c EBD9     		bls	.L16
 423              		.loc 1 86 0
 424 003e BB79     		ldrb	r3, [r7, #6]
 425 0040 03F10103 		add	r3, r3, #1
 426 0044 BB71     		strb	r3, [r7, #6]
 427              	.L14:
 428 0046 BB79     		ldrb	r3, [r7, #6]	@ zero_extendqisi2
 429 0048 072B     		cmp	r3, #7
 430 004a E0D9     		bls	.L17
  89:.\main.c      ****         }
  90:.\main.c      ****     }
  91:.\main.c      ****     for(h=0; h<4; h++){
 431              		.loc 1 91 0
 432 004c 4FF00003 		mov	r3, #0
 433 0050 BB71     		strb	r3, [r7, #6]
 434 0052 13E0     		b	.L18
 435              	.L19:
  92:.\main.c      ****         Horizontal[h] = Nothing;
 436              		.loc 1 92 0
 437 0054 BA79     		ldrb	r2, [r7, #6]	@ zero_extendqisi2
 438 0056 40F20003 		movw	r3, #:lower16:Horizontal
 439 005a C0F20003 		movt	r3, #:upper16:Horizontal
 440 005e 4FF00001 		mov	r1, #0
 441 0062 9954     		strb	r1, [r3, r2]
  93:.\main.c      ****         Vertical[h] = Nothing;
 442              		.loc 1 93 0
 443 0064 BA79     		ldrb	r2, [r7, #6]	@ zero_extendqisi2
 444 0066 40F20003 		movw	r3, #:lower16:Vertical
 445 006a C0F20003 		movt	r3, #:upper16:Vertical
 446 006e 4FF00001 		mov	r1, #0
 447 0072 9954     		strb	r1, [r3, r2]
 448              		.loc 1 91 0
 449 0074 BB79     		ldrb	r3, [r7, #6]
 450 0076 03F10103 		add	r3, r3, #1
 451 007a BB71     		strb	r3, [r7, #6]
 452              	.L18:
 453 007c BB79     		ldrb	r3, [r7, #6]	@ zero_extendqisi2
 454 007e 032B     		cmp	r3, #3
 455 0080 E8D9     		bls	.L19
  94:.\main.c      ****     }
  95:.\main.c      **** }
 456              		.loc 1 95 0
 457 0082 07F10C07 		add	r7, r7, #12
 458 0086 BD46     		mov	sp, r7
 459 0088 80BC     		pop	{r7}
 460 008a 7047     		bx	lr
 461              		.cfi_endproc
 462              	.LFE31:
 463              		.size	resetArray, .-resetArray
 464              		.section	.text.PrepNextRowRed,"ax",%progbits
 465              		.align	2
 466              		.global	PrepNextRowRed
 467              		.thumb
 468              		.thumb_func
 469              		.type	PrepNextRowRed, %function
 470              	PrepNextRowRed:
 471              	.LFB32:
ARM GAS  C:\Users\yguan5\AppData\Local\Temp\ccf0bccD.s 			page 11


  96:.\main.c      **** 
  97:.\main.c      **** /*prepares the reds on the next row to be displayed by ring counter*/ 
  98:.\main.c      **** void PrepNextRowRed(){
 472              		.loc 1 98 0
 473              		.cfi_startproc
 474              		@ args = 0, pretend = 0, frame = 8
 475              		@ frame_needed = 1, uses_anonymous_args = 0
 476 0000 80B5     		push	{r7, lr}
 477              	.LCFI7:
 478              		.cfi_def_cfa_offset 8
 479 0002 82B0     		sub	sp, sp, #8
 480              	.LCFI8:
 481              		.cfi_def_cfa_offset 16
 482 0004 00AF     		add	r7, sp, #0
 483              		.cfi_offset 14, -4
 484              		.cfi_offset 7, -8
 485              	.LCFI9:
 486              		.cfi_def_cfa_register 7
  99:.\main.c      ****     int8 i;
 100:.\main.c      ****     for(i = 7; i>=0; i--){
 487              		.loc 1 100 0
 488 0006 4FF00703 		mov	r3, #7
 489 000a FB71     		strb	r3, [r7, #7]
 490 000c 26E0     		b	.L22
 491              	.L25:
 101:.\main.c      ****         if(arrayLED[GRow][i]==Red){
 492              		.loc 1 101 0
 493 000e 40F20003 		movw	r3, #:lower16:GRow
 494 0012 C0F20003 		movt	r3, #:upper16:GRow
 495 0016 1968     		ldr	r1, [r3, #0]
 496 0018 97F90720 		ldrsb	r2, [r7, #7]
 497 001c 40F20003 		movw	r3, #:lower16:arrayLED
 498 0020 C0F20003 		movt	r3, #:upper16:arrayLED
 499 0024 4FEAC101 		lsl	r1, r1, #3
 500 0028 0A44     		add	r2, r1, r2
 501 002a 53F82230 		ldr	r3, [r3, r2, lsl #2]
 502 002e 022B     		cmp	r3, #2
 503 0030 04D1     		bne	.L23
 102:.\main.c      ****             SER_Red_Write(0);
 504              		.loc 1 102 0
 505 0032 4FF00000 		mov	r0, #0
 506 0036 FFF7FEFF 		bl	SER_Red_Write
 507 003a 03E0     		b	.L24
 508              	.L23:
 103:.\main.c      ****         }else{
 104:.\main.c      ****             SER_Red_Write(1);
 509              		.loc 1 104 0
 510 003c 4FF00100 		mov	r0, #1
 511 0040 FFF7FEFF 		bl	SER_Red_Write
 512              	.L24:
 105:.\main.c      ****         }
 106:.\main.c      ****         Control_Reg_Red_Write(1);
 513              		.loc 1 106 0
 514 0044 4FF00100 		mov	r0, #1
 515 0048 FFF7FEFF 		bl	Control_Reg_Red_Write
 107:.\main.c      ****         Control_Reg_Red_Write(0);
 516              		.loc 1 107 0
ARM GAS  C:\Users\yguan5\AppData\Local\Temp\ccf0bccD.s 			page 12


 517 004c 4FF00000 		mov	r0, #0
 518 0050 FFF7FEFF 		bl	Control_Reg_Red_Write
 519              		.loc 1 100 0
 520 0054 FB79     		ldrb	r3, [r7, #7]
 521 0056 03F1FF33 		add	r3, r3, #-1
 522 005a FB71     		strb	r3, [r7, #7]
 523              	.L22:
 524 005c 97F90730 		ldrsb	r3, [r7, #7]
 525 0060 002B     		cmp	r3, #0
 526 0062 D4DA     		bge	.L25
 108:.\main.c      ****     }
 109:.\main.c      **** }
 527              		.loc 1 109 0
 528 0064 07F10807 		add	r7, r7, #8
 529 0068 BD46     		mov	sp, r7
 530 006a 80BD     		pop	{r7, pc}
 531              		.cfi_endproc
 532              	.LFE32:
 533              		.size	PrepNextRowRed, .-PrepNextRowRed
 534              		.section	.text.PrepNextRowBlue,"ax",%progbits
 535              		.align	2
 536              		.global	PrepNextRowBlue
 537              		.thumb
 538              		.thumb_func
 539              		.type	PrepNextRowBlue, %function
 540              	PrepNextRowBlue:
 541              	.LFB33:
 110:.\main.c      **** 
 111:.\main.c      **** /*prepares the Blue on the next row to be displayed by ring counter*/
 112:.\main.c      **** void PrepNextRowBlue(){
 542              		.loc 1 112 0
 543              		.cfi_startproc
 544              		@ args = 0, pretend = 0, frame = 8
 545              		@ frame_needed = 1, uses_anonymous_args = 0
 546 0000 80B5     		push	{r7, lr}
 547              	.LCFI10:
 548              		.cfi_def_cfa_offset 8
 549 0002 82B0     		sub	sp, sp, #8
 550              	.LCFI11:
 551              		.cfi_def_cfa_offset 16
 552 0004 00AF     		add	r7, sp, #0
 553              		.cfi_offset 14, -4
 554              		.cfi_offset 7, -8
 555              	.LCFI12:
 556              		.cfi_def_cfa_register 7
 113:.\main.c      ****     int8 i;
 114:.\main.c      ****     for(i = 7; i>=0; i--){
 557              		.loc 1 114 0
 558 0006 4FF00703 		mov	r3, #7
 559 000a FB71     		strb	r3, [r7, #7]
 560 000c 26E0     		b	.L28
 561              	.L31:
 115:.\main.c      ****         if(arrayLED[GRow][i]==Blue){
 562              		.loc 1 115 0
 563 000e 40F20003 		movw	r3, #:lower16:GRow
 564 0012 C0F20003 		movt	r3, #:upper16:GRow
 565 0016 1968     		ldr	r1, [r3, #0]
ARM GAS  C:\Users\yguan5\AppData\Local\Temp\ccf0bccD.s 			page 13


 566 0018 97F90720 		ldrsb	r2, [r7, #7]
 567 001c 40F20003 		movw	r3, #:lower16:arrayLED
 568 0020 C0F20003 		movt	r3, #:upper16:arrayLED
 569 0024 4FEAC101 		lsl	r1, r1, #3
 570 0028 0A44     		add	r2, r1, r2
 571 002a 53F82230 		ldr	r3, [r3, r2, lsl #2]
 572 002e 012B     		cmp	r3, #1
 573 0030 04D1     		bne	.L29
 116:.\main.c      ****             SER_Blue_Write(0);
 574              		.loc 1 116 0
 575 0032 4FF00000 		mov	r0, #0
 576 0036 FFF7FEFF 		bl	SER_Blue_Write
 577 003a 03E0     		b	.L30
 578              	.L29:
 117:.\main.c      ****         }else{
 118:.\main.c      ****             SER_Blue_Write(1);
 579              		.loc 1 118 0
 580 003c 4FF00100 		mov	r0, #1
 581 0040 FFF7FEFF 		bl	SER_Blue_Write
 582              	.L30:
 119:.\main.c      ****         }
 120:.\main.c      ****         Control_Reg_Blue_Write(1);
 583              		.loc 1 120 0
 584 0044 4FF00100 		mov	r0, #1
 585 0048 FFF7FEFF 		bl	Control_Reg_Blue_Write
 121:.\main.c      ****         Control_Reg_Blue_Write(0);
 586              		.loc 1 121 0
 587 004c 4FF00000 		mov	r0, #0
 588 0050 FFF7FEFF 		bl	Control_Reg_Blue_Write
 589              		.loc 1 114 0
 590 0054 FB79     		ldrb	r3, [r7, #7]
 591 0056 03F1FF33 		add	r3, r3, #-1
 592 005a FB71     		strb	r3, [r7, #7]
 593              	.L28:
 594 005c 97F90730 		ldrsb	r3, [r7, #7]
 595 0060 002B     		cmp	r3, #0
 596 0062 D4DA     		bge	.L31
 122:.\main.c      ****     }
 123:.\main.c      **** }
 597              		.loc 1 123 0
 598 0064 07F10807 		add	r7, r7, #8
 599 0068 BD46     		mov	sp, r7
 600 006a 80BD     		pop	{r7, pc}
 601              		.cfi_endproc
 602              	.LFE33:
 603              		.size	PrepNextRowBlue, .-PrepNextRowBlue
 604              		.section	.text.DisplayDots,"ax",%progbits
 605              		.align	2
 606              		.global	DisplayDots
 607              		.thumb
 608              		.thumb_func
 609              		.type	DisplayDots, %function
 610              	DisplayDots:
 611              	.LFB34:
 124:.\main.c      **** 
 125:.\main.c      **** /*prints out the prepared Red and Blue LEDs*/
 126:.\main.c      **** void DisplayDots(){
ARM GAS  C:\Users\yguan5\AppData\Local\Temp\ccf0bccD.s 			page 14


 612              		.loc 1 126 0
 613              		.cfi_startproc
 614              		@ args = 0, pretend = 0, frame = 0
 615              		@ frame_needed = 1, uses_anonymous_args = 0
 616 0000 80B5     		push	{r7, lr}
 617              	.LCFI13:
 618              		.cfi_def_cfa_offset 8
 619 0002 00AF     		add	r7, sp, #0
 620              		.cfi_offset 14, -4
 621              		.cfi_offset 7, -8
 622              	.LCFI14:
 623              		.cfi_def_cfa_register 7
 127:.\main.c      ****     Control_Reg_Red_Write(2);
 624              		.loc 1 127 0
 625 0004 4FF00200 		mov	r0, #2
 626 0008 FFF7FEFF 		bl	Control_Reg_Red_Write
 128:.\main.c      ****     Control_Reg_Red_Write(0);
 627              		.loc 1 128 0
 628 000c 4FF00000 		mov	r0, #0
 629 0010 FFF7FEFF 		bl	Control_Reg_Red_Write
 129:.\main.c      ****     Control_Reg_Blue_Write(2);
 630              		.loc 1 129 0
 631 0014 4FF00200 		mov	r0, #2
 632 0018 FFF7FEFF 		bl	Control_Reg_Blue_Write
 130:.\main.c      ****     Control_Reg_Blue_Write(0);
 633              		.loc 1 130 0
 634 001c 4FF00000 		mov	r0, #0
 635 0020 FFF7FEFF 		bl	Control_Reg_Blue_Write
 131:.\main.c      **** }
 636              		.loc 1 131 0
 637 0024 80BD     		pop	{r7, pc}
 638              		.cfi_endproc
 639              	.LFE34:
 640              		.size	DisplayDots, .-DisplayDots
 641 0026 00BF     		.section	.text.settingPin,"ax",%progbits
 642              		.align	2
 643              		.global	settingPin
 644              		.thumb
 645              		.thumb_func
 646              		.type	settingPin, %function
 647              	settingPin:
 648              	.LFB35:
 132:.\main.c      **** 
 133:.\main.c      **** /*setting pins of given color to given row and column*/
 134:.\main.c      **** void settingPin(int color, int row, int column){
 649              		.loc 1 134 0
 650              		.cfi_startproc
 651              		@ args = 0, pretend = 0, frame = 16
 652              		@ frame_needed = 1, uses_anonymous_args = 0
 653              		@ link register save eliminated.
 654 0000 80B4     		push	{r7}
 655              	.LCFI15:
 656              		.cfi_def_cfa_offset 4
 657 0002 85B0     		sub	sp, sp, #20
 658              	.LCFI16:
 659              		.cfi_def_cfa_offset 24
 660 0004 00AF     		add	r7, sp, #0
ARM GAS  C:\Users\yguan5\AppData\Local\Temp\ccf0bccD.s 			page 15


 661              		.cfi_offset 7, -4
 662              	.LCFI17:
 663              		.cfi_def_cfa_register 7
 664 0006 F860     		str	r0, [r7, #12]
 665 0008 B960     		str	r1, [r7, #8]
 666 000a 7A60     		str	r2, [r7, #4]
 135:.\main.c      ****     if(arrayLED[row-1][column-1] == Nothing){
 667              		.loc 1 135 0
 668 000c BB68     		ldr	r3, [r7, #8]
 669 000e 03F1FF31 		add	r1, r3, #-1
 670 0012 7B68     		ldr	r3, [r7, #4]
 671 0014 03F1FF32 		add	r2, r3, #-1
 672 0018 40F20003 		movw	r3, #:lower16:arrayLED
 673 001c C0F20003 		movt	r3, #:upper16:arrayLED
 674 0020 4FEAC101 		lsl	r1, r1, #3
 675 0024 0A44     		add	r2, r1, r2
 676 0026 53F82230 		ldr	r3, [r3, r2, lsl #2]
 677 002a 002B     		cmp	r3, #0
 678 002c 0FD1     		bne	.L37
 136:.\main.c      ****         arrayLED[row-1][column-1] = color;
 679              		.loc 1 136 0
 680 002e BB68     		ldr	r3, [r7, #8]
 681 0030 03F1FF30 		add	r0, r3, #-1
 682 0034 7B68     		ldr	r3, [r7, #4]
 683 0036 03F1FF32 		add	r2, r3, #-1
 684 003a F968     		ldr	r1, [r7, #12]
 685 003c 40F20003 		movw	r3, #:lower16:arrayLED
 686 0040 C0F20003 		movt	r3, #:upper16:arrayLED
 687 0044 4FEAC000 		lsl	r0, r0, #3
 688 0048 0244     		add	r2, r0, r2
 689 004a 43F82210 		str	r1, [r3, r2, lsl #2]
 690              	.L37:
 137:.\main.c      ****     }
 138:.\main.c      **** }
 691              		.loc 1 138 0
 692 004e 07F11407 		add	r7, r7, #20
 693 0052 BD46     		mov	sp, r7
 694 0054 80BC     		pop	{r7}
 695 0056 7047     		bx	lr
 696              		.cfi_endproc
 697              	.LFE35:
 698              		.size	settingPin, .-settingPin
 699              		.section	.text.checkRing,"ax",%progbits
 700              		.align	2
 701              		.global	checkRing
 702              		.thumb
 703              		.thumb_func
 704              		.type	checkRing, %function
 705              	checkRing:
 706              	.LFB36:
 139:.\main.c      **** 
 140:.\main.c      **** /*renews the ring counter value from row 8 to 1*/
 141:.\main.c      **** void checkRing(){
 707              		.loc 1 141 0
 708              		.cfi_startproc
 709              		@ args = 0, pretend = 0, frame = 0
 710              		@ frame_needed = 1, uses_anonymous_args = 0
ARM GAS  C:\Users\yguan5\AppData\Local\Temp\ccf0bccD.s 			page 16


 711 0000 80B5     		push	{r7, lr}
 712              	.LCFI18:
 713              		.cfi_def_cfa_offset 8
 714 0002 00AF     		add	r7, sp, #0
 715              		.cfi_offset 14, -4
 716              		.cfi_offset 7, -8
 717              	.LCFI19:
 718              		.cfi_def_cfa_register 7
 142:.\main.c      ****     if(GRow == 8){
 719              		.loc 1 142 0
 720 0004 40F20003 		movw	r3, #:lower16:GRow
 721 0008 C0F20003 		movt	r3, #:upper16:GRow
 722 000c 1B68     		ldr	r3, [r3, #0]
 723 000e 082B     		cmp	r3, #8
 724 0010 0AD1     		bne	.L40
 143:.\main.c      ****             SER_Write(1);
 725              		.loc 1 143 0
 726 0012 4FF00100 		mov	r0, #1
 727 0016 FFF7FEFF 		bl	SER_Write
 144:.\main.c      ****             GRow = 0;
 728              		.loc 1 144 0
 729 001a 40F20003 		movw	r3, #:lower16:GRow
 730 001e C0F20003 		movt	r3, #:upper16:GRow
 731 0022 4FF00002 		mov	r2, #0
 732 0026 1A60     		str	r2, [r3, #0]
 733              	.L40:
 145:.\main.c      ****     }
 146:.\main.c      **** }
 734              		.loc 1 146 0
 735 0028 80BD     		pop	{r7, pc}
 736              		.cfi_endproc
 737              	.LFE36:
 738              		.size	checkRing, .-checkRing
 739 002a 00BF     		.section	.text.Control_Ring,"ax",%progbits
 740              		.align	2
 741              		.global	Control_Ring
 742              		.thumb
 743              		.thumb_func
 744              		.type	Control_Ring, %function
 745              	Control_Ring:
 746              	.LFB37:
 147:.\main.c      **** 
 148:.\main.c      **** /*ring counter which counts once each time called*/
 149:.\main.c      **** void Control_Ring(){
 747              		.loc 1 149 0
 748              		.cfi_startproc
 749              		@ args = 0, pretend = 0, frame = 0
 750              		@ frame_needed = 1, uses_anonymous_args = 0
 751 0000 80B5     		push	{r7, lr}
 752              	.LCFI20:
 753              		.cfi_def_cfa_offset 8
 754 0002 00AF     		add	r7, sp, #0
 755              		.cfi_offset 14, -4
 756              		.cfi_offset 7, -8
 757              	.LCFI21:
 758              		.cfi_def_cfa_register 7
 150:.\main.c      ****     checkRing();
ARM GAS  C:\Users\yguan5\AppData\Local\Temp\ccf0bccD.s 			page 17


 759              		.loc 1 150 0
 760 0004 FFF7FEFF 		bl	checkRing
 151:.\main.c      ****     PrepNextRowRed();
 761              		.loc 1 151 0
 762 0008 FFF7FEFF 		bl	PrepNextRowRed
 152:.\main.c      ****     PrepNextRowBlue();
 763              		.loc 1 152 0
 764 000c FFF7FEFF 		bl	PrepNextRowBlue
 153:.\main.c      ****     Control_Reg_Write(1);
 765              		.loc 1 153 0
 766 0010 4FF00100 		mov	r0, #1
 767 0014 FFF7FEFF 		bl	Control_Reg_Write
 154:.\main.c      ****     CyDelay(DelayTime/2);
 768              		.loc 1 154 0
 769 0018 40F20003 		movw	r3, #:lower16:DelayTime
 770 001c C0F20003 		movt	r3, #:upper16:DelayTime
 771 0020 1B68     		ldr	r3, [r3, #0]
 772 0022 4FEA5303 		lsr	r3, r3, #1
 773 0026 1846     		mov	r0, r3
 774 0028 FFF7FEFF 		bl	CyDelay
 155:.\main.c      ****     DisplayDots();
 775              		.loc 1 155 0
 776 002c FFF7FEFF 		bl	DisplayDots
 156:.\main.c      ****     Control_Reg_Write(2);
 777              		.loc 1 156 0
 778 0030 4FF00200 		mov	r0, #2
 779 0034 FFF7FEFF 		bl	Control_Reg_Write
 157:.\main.c      ****     CyDelay(DelayTime/2);
 780              		.loc 1 157 0
 781 0038 40F20003 		movw	r3, #:lower16:DelayTime
 782 003c C0F20003 		movt	r3, #:upper16:DelayTime
 783 0040 1B68     		ldr	r3, [r3, #0]
 784 0042 4FEA5303 		lsr	r3, r3, #1
 785 0046 1846     		mov	r0, r3
 786 0048 FFF7FEFF 		bl	CyDelay
 158:.\main.c      ****     
 159:.\main.c      ****     if(SER_Read() == 1){
 787              		.loc 1 159 0
 788 004c FFF7FEFF 		bl	SER_Read
 789 0050 0346     		mov	r3, r0
 790 0052 012B     		cmp	r3, #1
 791 0054 03D1     		bne	.L42
 160:.\main.c      ****         SER_Write(0);
 792              		.loc 1 160 0
 793 0056 4FF00000 		mov	r0, #0
 794 005a FFF7FEFF 		bl	SER_Write
 795              	.L42:
 161:.\main.c      ****     }
 162:.\main.c      ****     GRow++;
 796              		.loc 1 162 0
 797 005e 40F20003 		movw	r3, #:lower16:GRow
 798 0062 C0F20003 		movt	r3, #:upper16:GRow
 799 0066 1B68     		ldr	r3, [r3, #0]
 800 0068 03F10102 		add	r2, r3, #1
 801 006c 40F20003 		movw	r3, #:lower16:GRow
 802 0070 C0F20003 		movt	r3, #:upper16:GRow
 803 0074 1A60     		str	r2, [r3, #0]
ARM GAS  C:\Users\yguan5\AppData\Local\Temp\ccf0bccD.s 			page 18


 163:.\main.c      **** }
 804              		.loc 1 163 0
 805 0076 80BD     		pop	{r7, pc}
 806              		.cfi_endproc
 807              	.LFE37:
 808              		.size	Control_Ring, .-Control_Ring
 809              		.section	.text.setPacket,"ax",%progbits
 810              		.align	2
 811              		.global	setPacket
 812              		.thumb
 813              		.thumb_func
 814              		.type	setPacket, %function
 815              	setPacket:
 816              	.LFB38:
 164:.\main.c      **** 
 165:.\main.c      **** void setPacket(uint8 setID, uint8 setRow, uint8 setColumn){
 817              		.loc 1 165 0
 818              		.cfi_startproc
 819              		@ args = 0, pretend = 0, frame = 16
 820              		@ frame_needed = 1, uses_anonymous_args = 0
 821 0000 80B5     		push	{r7, lr}
 822              	.LCFI22:
 823              		.cfi_def_cfa_offset 8
 824 0002 84B0     		sub	sp, sp, #16
 825              	.LCFI23:
 826              		.cfi_def_cfa_offset 24
 827 0004 00AF     		add	r7, sp, #0
 828              		.cfi_offset 14, -4
 829              		.cfi_offset 7, -8
 830              	.LCFI24:
 831              		.cfi_def_cfa_register 7
 832 0006 1346     		mov	r3, r2
 833 0008 0246     		mov	r2, r0
 834 000a FA71     		strb	r2, [r7, #7]
 835 000c 0A46     		mov	r2, r1
 836 000e BA71     		strb	r2, [r7, #6]
 837 0010 7B71     		strb	r3, [r7, #5]
 166:.\main.c      ****     checkSum = 0;
 838              		.loc 1 166 0
 839 0012 40F20003 		movw	r3, #:lower16:checkSum
 840 0016 C0F20003 		movt	r3, #:upper16:checkSum
 841 001a 4FF00002 		mov	r2, #0
 842 001e 1A70     		strb	r2, [r3, #0]
 167:.\main.c      ****     Senting[0] = 0x7E;
 843              		.loc 1 167 0
 844 0020 40F20003 		movw	r3, #:lower16:Senting
 845 0024 C0F20003 		movt	r3, #:upper16:Senting
 846 0028 4FF07E02 		mov	r2, #126
 847 002c 1A70     		strb	r2, [r3, #0]
 168:.\main.c      ****     Senting[1] = 0x00;
 848              		.loc 1 168 0
 849 002e 40F20003 		movw	r3, #:lower16:Senting
 850 0032 C0F20003 		movt	r3, #:upper16:Senting
 851 0036 4FF00002 		mov	r2, #0
 852 003a 5A70     		strb	r2, [r3, #1]
 169:.\main.c      ****     Senting[2] = 0x09;
 853              		.loc 1 169 0
ARM GAS  C:\Users\yguan5\AppData\Local\Temp\ccf0bccD.s 			page 19


 854 003c 40F20003 		movw	r3, #:lower16:Senting
 855 0040 C0F20003 		movt	r3, #:upper16:Senting
 856 0044 4FF00902 		mov	r2, #9
 857 0048 9A70     		strb	r2, [r3, #2]
 170:.\main.c      ****     Senting[3] = 0x01;
 858              		.loc 1 170 0
 859 004a 40F20003 		movw	r3, #:lower16:Senting
 860 004e C0F20003 		movt	r3, #:upper16:Senting
 861 0052 4FF00102 		mov	r2, #1
 862 0056 DA70     		strb	r2, [r3, #3]
 171:.\main.c      ****     Senting[4] = 0x00;
 863              		.loc 1 171 0
 864 0058 40F20003 		movw	r3, #:lower16:Senting
 865 005c C0F20003 		movt	r3, #:upper16:Senting
 866 0060 4FF00002 		mov	r2, #0
 867 0064 1A71     		strb	r2, [r3, #4]
 172:.\main.c      ****     Senting[5] = 0xFF;
 868              		.loc 1 172 0
 869 0066 40F20003 		movw	r3, #:lower16:Senting
 870 006a C0F20003 		movt	r3, #:upper16:Senting
 871 006e 4FF0FF32 		mov	r2, #-1
 872 0072 5A71     		strb	r2, [r3, #5]
 173:.\main.c      ****     Senting[6] = 0xFF;
 873              		.loc 1 173 0
 874 0074 40F20003 		movw	r3, #:lower16:Senting
 875 0078 C0F20003 		movt	r3, #:upper16:Senting
 876 007c 4FF0FF32 		mov	r2, #-1
 877 0080 9A71     		strb	r2, [r3, #6]
 174:.\main.c      ****     Senting[7] = 0x01;  
 878              		.loc 1 174 0
 879 0082 40F20003 		movw	r3, #:lower16:Senting
 880 0086 C0F20003 		movt	r3, #:upper16:Senting
 881 008a 4FF00102 		mov	r2, #1
 882 008e DA71     		strb	r2, [r3, #7]
 175:.\main.c      ****     Senting[8] = setID;
 883              		.loc 1 175 0
 884 0090 40F20003 		movw	r3, #:lower16:Senting
 885 0094 C0F20003 		movt	r3, #:upper16:Senting
 886 0098 FA79     		ldrb	r2, [r7, #7]
 887 009a 1A72     		strb	r2, [r3, #8]
 176:.\main.c      ****     Senting[9] = 0x00;
 888              		.loc 1 176 0
 889 009c 40F20003 		movw	r3, #:lower16:Senting
 890 00a0 C0F20003 		movt	r3, #:upper16:Senting
 891 00a4 4FF00002 		mov	r2, #0
 892 00a8 5A72     		strb	r2, [r3, #9]
 177:.\main.c      ****     Senting[10] = setRow;
 893              		.loc 1 177 0
 894 00aa 40F20003 		movw	r3, #:lower16:Senting
 895 00ae C0F20003 		movt	r3, #:upper16:Senting
 896 00b2 BA79     		ldrb	r2, [r7, #6]
 897 00b4 9A72     		strb	r2, [r3, #10]
 178:.\main.c      ****     Senting[11] = setColumn;
 898              		.loc 1 178 0
 899 00b6 40F20003 		movw	r3, #:lower16:Senting
 900 00ba C0F20003 		movt	r3, #:upper16:Senting
 901 00be 7A79     		ldrb	r2, [r7, #5]
ARM GAS  C:\Users\yguan5\AppData\Local\Temp\ccf0bccD.s 			page 20


 902 00c0 DA72     		strb	r2, [r3, #11]
 179:.\main.c      ****     uint8 i;
 180:.\main.c      ****     for(i=3; i<12; i++){
 903              		.loc 1 180 0
 904 00c2 4FF00303 		mov	r3, #3
 905 00c6 FB73     		strb	r3, [r7, #15]
 906 00c8 17E0     		b	.L45
 907              	.L46:
 181:.\main.c      ****         checkSum += Senting[i]; 
 908              		.loc 1 181 0
 909 00ca FA7B     		ldrb	r2, [r7, #15]	@ zero_extendqisi2
 910 00cc 40F20003 		movw	r3, #:lower16:Senting
 911 00d0 C0F20003 		movt	r3, #:upper16:Senting
 912 00d4 9A5C     		ldrb	r2, [r3, r2]	@ zero_extendqisi2
 913 00d6 40F20003 		movw	r3, #:lower16:checkSum
 914 00da C0F20003 		movt	r3, #:upper16:checkSum
 915 00de 1B78     		ldrb	r3, [r3, #0]	@ zero_extendqisi2
 916 00e0 1344     		add	r3, r2, r3
 917 00e2 DAB2     		uxtb	r2, r3
 918 00e4 40F20003 		movw	r3, #:lower16:checkSum
 919 00e8 C0F20003 		movt	r3, #:upper16:checkSum
 920 00ec 1A70     		strb	r2, [r3, #0]
 182:.\main.c      ****         Control_Ring();
 921              		.loc 1 182 0
 922 00ee FFF7FEFF 		bl	Control_Ring
 923              		.loc 1 180 0
 924 00f2 FB7B     		ldrb	r3, [r7, #15]
 925 00f4 03F10103 		add	r3, r3, #1
 926 00f8 FB73     		strb	r3, [r7, #15]
 927              	.L45:
 928 00fa FB7B     		ldrb	r3, [r7, #15]	@ zero_extendqisi2
 929 00fc 0B2B     		cmp	r3, #11
 930 00fe E4D9     		bls	.L46
 183:.\main.c      ****     }
 184:.\main.c      ****     Senting[12] = 0xFF - checkSum;
 931              		.loc 1 184 0
 932 0100 40F20003 		movw	r3, #:lower16:checkSum
 933 0104 C0F20003 		movt	r3, #:upper16:checkSum
 934 0108 1B78     		ldrb	r3, [r3, #0]	@ zero_extendqisi2
 935 010a 6FEA0303 		mvn	r3, r3
 936 010e DAB2     		uxtb	r2, r3
 937 0110 40F20003 		movw	r3, #:lower16:Senting
 938 0114 C0F20003 		movt	r3, #:upper16:Senting
 939 0118 1A73     		strb	r2, [r3, #12]
 185:.\main.c      **** }
 940              		.loc 1 185 0
 941 011a 07F11007 		add	r7, r7, #16
 942 011e BD46     		mov	sp, r7
 943 0120 80BD     		pop	{r7, pc}
 944              		.cfi_endproc
 945              	.LFE38:
 946              		.size	setPacket, .-setPacket
 947 0122 00BF     		.section	.text.receivePacket,"ax",%progbits
 948              		.align	2
 949              		.global	receivePacket
 950              		.thumb
 951              		.thumb_func
ARM GAS  C:\Users\yguan5\AppData\Local\Temp\ccf0bccD.s 			page 21


 952              		.type	receivePacket, %function
 953              	receivePacket:
 954              	.LFB39:
 186:.\main.c      **** 
 187:.\main.c      **** void receivePacket(){
 955              		.loc 1 187 0
 956              		.cfi_startproc
 957              		@ args = 0, pretend = 0, frame = 8
 958              		@ frame_needed = 1, uses_anonymous_args = 0
 959 0000 90B5     		push	{r4, r7, lr}
 960              	.LCFI25:
 961              		.cfi_def_cfa_offset 12
 962 0002 83B0     		sub	sp, sp, #12
 963              	.LCFI26:
 964              		.cfi_def_cfa_offset 24
 965 0004 00AF     		add	r7, sp, #0
 966              		.cfi_offset 14, -4
 967              		.cfi_offset 7, -8
 968              		.cfi_offset 4, -12
 969              	.LCFI27:
 970              		.cfi_def_cfa_register 7
 188:.\main.c      ****     uint8 i, R;
 189:.\main.c      ****     uint8 E = 1;
 971              		.loc 1 189 0
 972 0006 4FF00103 		mov	r3, #1
 973 000a FB71     		strb	r3, [r7, #7]
 190:.\main.c      ****     checkSum = 0;
 974              		.loc 1 190 0
 975 000c 40F20003 		movw	r3, #:lower16:checkSum
 976 0010 C0F20003 		movt	r3, #:upper16:checkSum
 977 0014 4FF00002 		mov	r2, #0
 978 0018 1A70     		strb	r2, [r3, #0]
 191:.\main.c      ****     while(UART_GetRxBufferSize()!=0 && E==1){
 979              		.loc 1 191 0
 980 001a 31E0     		b	.L49
 981              	.L56:
 192:.\main.c      ****         R = UART_GetChar();
 982              		.loc 1 192 0
 983 001c FFF7FEFF 		bl	UART_GetChar
 984 0020 0346     		mov	r3, r0
 985 0022 BB71     		strb	r3, [r7, #6]
 193:.\main.c      ****         if(R == 0x7E){
 986              		.loc 1 193 0
 987 0024 BB79     		ldrb	r3, [r7, #6]	@ zero_extendqisi2
 988 0026 7E2B     		cmp	r3, #126
 989 0028 28D1     		bne	.L50
 194:.\main.c      ****             Received[0] = R;
 990              		.loc 1 194 0
 991 002a 40F20003 		movw	r3, #:lower16:Received
 992 002e C0F20003 		movt	r3, #:upper16:Received
 993 0032 BA79     		ldrb	r2, [r7, #6]
 994 0034 1A70     		strb	r2, [r3, #0]
 195:.\main.c      ****             for(i = 1; i<13; i++){
 995              		.loc 1 195 0
 996 0036 4FF00103 		mov	r3, #1
 997 003a 7B71     		strb	r3, [r7, #5]
 998 003c 18E0     		b	.L51
ARM GAS  C:\Users\yguan5\AppData\Local\Temp\ccf0bccD.s 			page 22


 999              	.L53:
 196:.\main.c      ****                 while(UART_GetRxBufferSize()==0){
 197:.\main.c      ****                 Control_Ring();
 1000              		.loc 1 197 0
 1001 003e FFF7FEFF 		bl	Control_Ring
 1002 0042 00E0     		b	.L52
 1003              	.L61:
 1004              		.loc 1 196 0
 1005 0044 00BF     		nop
 1006              	.L52:
 1007 0046 FFF7FEFF 		bl	UART_GetRxBufferSize
 1008 004a 0346     		mov	r3, r0
 1009 004c 002B     		cmp	r3, #0
 1010 004e F6D0     		beq	.L53
 198:.\main.c      ****                 }
 199:.\main.c      ****                 Received[i] = UART_GetChar();
 1011              		.loc 1 199 0
 1012 0050 7C79     		ldrb	r4, [r7, #5]	@ zero_extendqisi2
 1013 0052 FFF7FEFF 		bl	UART_GetChar
 1014 0056 0346     		mov	r3, r0
 1015 0058 1A46     		mov	r2, r3
 1016 005a 40F20003 		movw	r3, #:lower16:Received
 1017 005e C0F20003 		movt	r3, #:upper16:Received
 1018 0062 1A55     		strb	r2, [r3, r4]
 200:.\main.c      ****                 Control_Ring();
 1019              		.loc 1 200 0
 1020 0064 FFF7FEFF 		bl	Control_Ring
 1021              		.loc 1 195 0
 1022 0068 7B79     		ldrb	r3, [r7, #5]
 1023 006a 03F10103 		add	r3, r3, #1
 1024 006e 7B71     		strb	r3, [r7, #5]
 1025              	.L51:
 1026 0070 7B79     		ldrb	r3, [r7, #5]	@ zero_extendqisi2
 1027 0072 0C2B     		cmp	r3, #12
 1028 0074 E6D9     		bls	.L61
 201:.\main.c      ****                 }
 202:.\main.c      ****             E = 0;    
 1029              		.loc 1 202 0
 1030 0076 4FF00003 		mov	r3, #0
 1031 007a FB71     		strb	r3, [r7, #7]
 1032              	.L50:
 203:.\main.c      ****             }
 204:.\main.c      ****             Control_Ring();
 1033              		.loc 1 204 0
 1034 007c FFF7FEFF 		bl	Control_Ring
 1035              	.L49:
 1036              		.loc 1 191 0
 1037 0080 FFF7FEFF 		bl	UART_GetRxBufferSize
 1038 0084 0346     		mov	r3, r0
 1039 0086 002B     		cmp	r3, #0
 1040 0088 02D0     		beq	.L55
 1041 008a FB79     		ldrb	r3, [r7, #7]	@ zero_extendqisi2
 1042 008c 012B     		cmp	r3, #1
 1043 008e C5D0     		beq	.L56
 1044              	.L55:
 205:.\main.c      ****         }
 206:.\main.c      ****     for(i=3; i<12; i++){
ARM GAS  C:\Users\yguan5\AppData\Local\Temp\ccf0bccD.s 			page 23


 1045              		.loc 1 206 0
 1046 0090 4FF00303 		mov	r3, #3
 1047 0094 7B71     		strb	r3, [r7, #5]
 1048 0096 17E0     		b	.L57
 1049              	.L58:
 207:.\main.c      ****         checkSum += Received[i]; 
 1050              		.loc 1 207 0
 1051 0098 7A79     		ldrb	r2, [r7, #5]	@ zero_extendqisi2
 1052 009a 40F20003 		movw	r3, #:lower16:Received
 1053 009e C0F20003 		movt	r3, #:upper16:Received
 1054 00a2 9A5C     		ldrb	r2, [r3, r2]	@ zero_extendqisi2
 1055 00a4 40F20003 		movw	r3, #:lower16:checkSum
 1056 00a8 C0F20003 		movt	r3, #:upper16:checkSum
 1057 00ac 1B78     		ldrb	r3, [r3, #0]	@ zero_extendqisi2
 1058 00ae 1344     		add	r3, r2, r3
 1059 00b0 DAB2     		uxtb	r2, r3
 1060 00b2 40F20003 		movw	r3, #:lower16:checkSum
 1061 00b6 C0F20003 		movt	r3, #:upper16:checkSum
 1062 00ba 1A70     		strb	r2, [r3, #0]
 208:.\main.c      ****         Control_Ring();
 1063              		.loc 1 208 0
 1064 00bc FFF7FEFF 		bl	Control_Ring
 1065              		.loc 1 206 0
 1066 00c0 7B79     		ldrb	r3, [r7, #5]
 1067 00c2 03F10103 		add	r3, r3, #1
 1068 00c6 7B71     		strb	r3, [r7, #5]
 1069              	.L57:
 1070 00c8 7B79     		ldrb	r3, [r7, #5]	@ zero_extendqisi2
 1071 00ca 0B2B     		cmp	r3, #11
 1072 00cc E4D9     		bls	.L58
 209:.\main.c      ****     }    
 210:.\main.c      ****     if((Received[12] == 0xFF - checkSum)&&((Received[11]<=8)&&(Received[11]>0))&&((Received[10]<8)&
 1073              		.loc 1 210 0
 1074 00ce 40F20003 		movw	r3, #:lower16:Received
 1075 00d2 C0F20003 		movt	r3, #:upper16:Received
 1076 00d6 1B7B     		ldrb	r3, [r3, #12]	@ zero_extendqisi2
 1077 00d8 1A46     		mov	r2, r3
 1078 00da 40F20003 		movw	r3, #:lower16:checkSum
 1079 00de C0F20003 		movt	r3, #:upper16:checkSum
 1080 00e2 1B78     		ldrb	r3, [r3, #0]	@ zero_extendqisi2
 1081 00e4 C3F1FF03 		rsb	r3, r3, #255
 1082 00e8 9A42     		cmp	r2, r3
 1083 00ea 30D1     		bne	.L60
 1084 00ec 40F20003 		movw	r3, #:lower16:Received
 1085 00f0 C0F20003 		movt	r3, #:upper16:Received
 1086 00f4 DB7A     		ldrb	r3, [r3, #11]	@ zero_extendqisi2
 1087 00f6 082B     		cmp	r3, #8
 1088 00f8 29D8     		bhi	.L60
 1089 00fa 40F20003 		movw	r3, #:lower16:Received
 1090 00fe C0F20003 		movt	r3, #:upper16:Received
 1091 0102 DB7A     		ldrb	r3, [r3, #11]	@ zero_extendqisi2
 1092 0104 002B     		cmp	r3, #0
 1093 0106 22D0     		beq	.L60
 1094 0108 40F20003 		movw	r3, #:lower16:Received
 1095 010c C0F20003 		movt	r3, #:upper16:Received
 1096 0110 9B7A     		ldrb	r3, [r3, #10]	@ zero_extendqisi2
 1097 0112 072B     		cmp	r3, #7
ARM GAS  C:\Users\yguan5\AppData\Local\Temp\ccf0bccD.s 			page 24


 1098 0114 1BD8     		bhi	.L60
 1099 0116 40F20003 		movw	r3, #:lower16:Received
 1100 011a C0F20003 		movt	r3, #:upper16:Received
 1101 011e 9B7A     		ldrb	r3, [r3, #10]	@ zero_extendqisi2
 1102 0120 002B     		cmp	r3, #0
 1103 0122 14D0     		beq	.L60
 1104 0124 40F20003 		movw	r3, #:lower16:Received
 1105 0128 C0F20003 		movt	r3, #:upper16:Received
 1106 012c 1A7A     		ldrb	r2, [r3, #8]	@ zero_extendqisi2
 1107 012e 40F20003 		movw	r3, #:lower16:opponID
 1108 0132 C0F20003 		movt	r3, #:upper16:opponID
 1109 0136 1B78     		ldrb	r3, [r3, #0]	@ zero_extendqisi2
 1110 0138 9A42     		cmp	r2, r3
 1111 013a 08D1     		bne	.L60
 211:.\main.c      ****         GT = 1;
 1112              		.loc 1 211 0
 1113 013c 40F20003 		movw	r3, #:lower16:GT
 1114 0140 C0F20003 		movt	r3, #:upper16:GT
 1115 0144 4FF00102 		mov	r2, #1
 1116 0148 1A70     		strb	r2, [r3, #0]
 212:.\main.c      ****         Control_Ring();
 1117              		.loc 1 212 0
 1118 014a FFF7FEFF 		bl	Control_Ring
 1119              	.L60:
 213:.\main.c      ****     }
 214:.\main.c      **** }
 1120              		.loc 1 214 0
 1121 014e 07F10C07 		add	r7, r7, #12
 1122 0152 BD46     		mov	sp, r7
 1123 0154 90BD     		pop	{r4, r7, pc}
 1124              		.cfi_endproc
 1125              	.LFE39:
 1126              		.size	receivePacket, .-receivePacket
 1127 0156 00BF     		.section	.text.ChangeHome,"ax",%progbits
 1128              		.align	2
 1129              		.global	ChangeHome
 1130              		.thumb
 1131              		.thumb_func
 1132              		.type	ChangeHome, %function
 1133              	ChangeHome:
 1134              	.LFB40:
 215:.\main.c      **** /*
 216:.\main.c      **** void sentPacket(){
 217:.\main.c      ****     uint8 i;
 218:.\main.c      ****     for(i=0; i<13; i++){
 219:.\main.c      ****         UART_PutChar(Senting[i]);
 220:.\main.c      ****         Control_Ring();
 221:.\main.c      ****     }
 222:.\main.c      **** }*/
 223:.\main.c      **** 
 224:.\main.c      **** void ChangeHome(uint8 x){
 1135              		.loc 1 224 0
 1136              		.cfi_startproc
 1137              		@ args = 0, pretend = 0, frame = 16
 1138              		@ frame_needed = 1, uses_anonymous_args = 0
 1139 0000 80B5     		push	{r7, lr}
 1140              	.LCFI28:
ARM GAS  C:\Users\yguan5\AppData\Local\Temp\ccf0bccD.s 			page 25


 1141              		.cfi_def_cfa_offset 8
 1142 0002 84B0     		sub	sp, sp, #16
 1143              	.LCFI29:
 1144              		.cfi_def_cfa_offset 24
 1145 0004 00AF     		add	r7, sp, #0
 1146              		.cfi_offset 14, -4
 1147              		.cfi_offset 7, -8
 1148              	.LCFI30:
 1149              		.cfi_def_cfa_register 7
 1150 0006 0346     		mov	r3, r0
 1151 0008 FB71     		strb	r3, [r7, #7]
 225:.\main.c      ****     uint8 t;
 226:.\main.c      ****     for(t=0; t<8; t++){
 1152              		.loc 1 226 0
 1153 000a 4FF00003 		mov	r3, #0
 1154 000e FB73     		strb	r3, [r7, #15]
 1155 0010 0EE0     		b	.L63
 1156              	.L64:
 227:.\main.c      ****         arrayLED[7][t] = Nothing;
 1157              		.loc 1 227 0
 1158 0012 FA7B     		ldrb	r2, [r7, #15]	@ zero_extendqisi2
 1159 0014 40F20003 		movw	r3, #:lower16:arrayLED
 1160 0018 C0F20003 		movt	r3, #:upper16:arrayLED
 1161 001c 02F13802 		add	r2, r2, #56
 1162 0020 4FF00001 		mov	r1, #0
 1163 0024 43F82210 		str	r1, [r3, r2, lsl #2]
 1164              		.loc 1 226 0
 1165 0028 FB7B     		ldrb	r3, [r7, #15]
 1166 002a 03F10103 		add	r3, r3, #1
 1167 002e FB73     		strb	r3, [r7, #15]
 1168              	.L63:
 1169 0030 FB7B     		ldrb	r3, [r7, #15]	@ zero_extendqisi2
 1170 0032 072B     		cmp	r3, #7
 1171 0034 EDD9     		bls	.L64
 228:.\main.c      ****     }
 229:.\main.c      ****     settingPin(myColor, 8, x);
 1172              		.loc 1 229 0
 1173 0036 FB79     		ldrb	r3, [r7, #7]	@ zero_extendqisi2
 1174 0038 4FF00100 		mov	r0, #1
 1175 003c 4FF00801 		mov	r1, #8
 1176 0040 1A46     		mov	r2, r3
 1177 0042 FFF7FEFF 		bl	settingPin
 230:.\main.c      **** }
 1178              		.loc 1 230 0
 1179 0046 07F11007 		add	r7, r7, #16
 1180 004a BD46     		mov	sp, r7
 1181 004c 80BD     		pop	{r7, pc}
 1182              		.cfi_endproc
 1183              	.LFE40:
 1184              		.size	ChangeHome, .-ChangeHome
 1185              		.global	__aeabi_i2d
 1186              		.global	__aeabi_dcmplt
 1187              		.global	__aeabi_dcmpge
 1188 004e 00BF     		.section	.text.selectSpot,"ax",%progbits
 1189              		.align	2
 1190              		.global	selectSpot
 1191              		.thumb
ARM GAS  C:\Users\yguan5\AppData\Local\Temp\ccf0bccD.s 			page 26


 1192              		.thumb_func
 1193              		.type	selectSpot, %function
 1194              	selectSpot:
 1195              	.LFB41:
 231:.\main.c      **** 
 232:.\main.c      **** void selectSpot(spot){
 1196              		.loc 1 232 0
 1197              		.cfi_startproc
 1198              		@ args = 0, pretend = 0, frame = 8
 1199              		@ frame_needed = 1, uses_anonymous_args = 0
 1200 0000 90B5     		push	{r4, r7, lr}
 1201              	.LCFI31:
 1202              		.cfi_def_cfa_offset 12
 1203 0002 83B0     		sub	sp, sp, #12
 1204              	.LCFI32:
 1205              		.cfi_def_cfa_offset 24
 1206 0004 00AF     		add	r7, sp, #0
 1207              		.cfi_offset 14, -4
 1208              		.cfi_offset 7, -8
 1209              		.cfi_offset 4, -12
 1210              	.LCFI33:
 1211              		.cfi_def_cfa_register 7
 1212 0006 7860     		str	r0, [r7, #4]
 233:.\main.c      ****     if((1<=spot) && (spot <31/2.5) && (currentSpot != 1)){
 1213              		.loc 1 233 0
 1214 0008 7B68     		ldr	r3, [r7, #4]
 1215 000a 002B     		cmp	r3, #0
 1216 000c 29DD     		ble	.L67
 1217 000e 7868     		ldr	r0, [r7, #4]
 1218 0010 FFF7FEFF 		bl	__aeabi_i2d
 1219 0014 0246     		mov	r2, r0
 1220 0016 0B46     		mov	r3, r1
 1221 0018 4FF00001 		mov	r1, #0
 1222 001c 0C46     		mov	r4, r1
 1223 001e 1046     		mov	r0, r2
 1224 0020 1946     		mov	r1, r3
 1225 0022 FDA3     		adr	r3, .L106
 1226 0024 D3E90023 		ldrd	r2, [r3]
 1227 0028 FFF7FEFF 		bl	__aeabi_dcmplt
 1228 002c 0346     		mov	r3, r0
 1229 002e 002B     		cmp	r3, #0
 1230 0030 02D0     		beq	.L68
 1231              	.L69:
 1232 0032 4FF00103 		mov	r3, #1
 1233 0036 1C46     		mov	r4, r3
 1234              	.L68:
 1235 0038 E3B2     		uxtb	r3, r4
 1236 003a 002B     		cmp	r3, #0
 1237 003c 11D0     		beq	.L67
 1238 003e 40F20003 		movw	r3, #:lower16:currentSpot
 1239 0042 C0F20003 		movt	r3, #:upper16:currentSpot
 1240 0046 1B78     		ldrb	r3, [r3, #0]	@ zero_extendqisi2
 1241 0048 012B     		cmp	r3, #1
 1242 004a 0AD0     		beq	.L67
 234:.\main.c      ****         ChangeHome(1);
 1243              		.loc 1 234 0
 1244 004c 4FF00100 		mov	r0, #1
ARM GAS  C:\Users\yguan5\AppData\Local\Temp\ccf0bccD.s 			page 27


 1245 0050 FFF7FEFF 		bl	ChangeHome
 235:.\main.c      ****         currentSpot = 1;
 1246              		.loc 1 235 0
 1247 0054 40F20003 		movw	r3, #:lower16:currentSpot
 1248 0058 C0F20003 		movt	r3, #:upper16:currentSpot
 1249 005c 4FF00102 		mov	r2, #1
 1250 0060 1A70     		strb	r2, [r3, #0]
 1251              	.L67:
 236:.\main.c      ****     }
 237:.\main.c      ****     if((31/2.5 <= spot) && (spot < 63/2.5) && (currentSpot != 2)){
 1252              		.loc 1 237 0
 1253 0062 7868     		ldr	r0, [r7, #4]
 1254 0064 FFF7FEFF 		bl	__aeabi_i2d
 1255 0068 0246     		mov	r2, r0
 1256 006a 0B46     		mov	r3, r1
 1257 006c 4FF00001 		mov	r1, #0
 1258 0070 0C46     		mov	r4, r1
 1259 0072 1046     		mov	r0, r2
 1260 0074 1946     		mov	r1, r3
 1261 0076 E8A3     		adr	r3, .L106
 1262 0078 D3E90023 		ldrd	r2, [r3]
 1263 007c FFF7FEFF 		bl	__aeabi_dcmpge
 1264 0080 0346     		mov	r3, r0
 1265 0082 002B     		cmp	r3, #0
 1266 0084 02D0     		beq	.L70
 1267              	.L71:
 1268 0086 4FF00103 		mov	r3, #1
 1269 008a 1C46     		mov	r4, r3
 1270              	.L70:
 1271 008c E3B2     		uxtb	r3, r4
 1272 008e 002B     		cmp	r3, #0
 1273 0090 29D0     		beq	.L72
 1274 0092 7868     		ldr	r0, [r7, #4]
 1275 0094 FFF7FEFF 		bl	__aeabi_i2d
 1276 0098 0246     		mov	r2, r0
 1277 009a 0B46     		mov	r3, r1
 1278 009c 4FF00001 		mov	r1, #0
 1279 00a0 0C46     		mov	r4, r1
 1280 00a2 1046     		mov	r0, r2
 1281 00a4 1946     		mov	r1, r3
 1282 00a6 DEA3     		adr	r3, .L106+8
 1283 00a8 D3E90023 		ldrd	r2, [r3]
 1284 00ac FFF7FEFF 		bl	__aeabi_dcmplt
 1285 00b0 0346     		mov	r3, r0
 1286 00b2 002B     		cmp	r3, #0
 1287 00b4 02D0     		beq	.L73
 1288              	.L74:
 1289 00b6 4FF00103 		mov	r3, #1
 1290 00ba 1C46     		mov	r4, r3
 1291              	.L73:
 1292 00bc E3B2     		uxtb	r3, r4
 1293 00be 002B     		cmp	r3, #0
 1294 00c0 11D0     		beq	.L72
 1295 00c2 40F20003 		movw	r3, #:lower16:currentSpot
 1296 00c6 C0F20003 		movt	r3, #:upper16:currentSpot
 1297 00ca 1B78     		ldrb	r3, [r3, #0]	@ zero_extendqisi2
 1298 00cc 022B     		cmp	r3, #2
ARM GAS  C:\Users\yguan5\AppData\Local\Temp\ccf0bccD.s 			page 28


 1299 00ce 0AD0     		beq	.L72
 238:.\main.c      ****         ChangeHome(2);
 1300              		.loc 1 238 0
 1301 00d0 4FF00200 		mov	r0, #2
 1302 00d4 FFF7FEFF 		bl	ChangeHome
 239:.\main.c      ****         currentSpot = 2;
 1303              		.loc 1 239 0
 1304 00d8 40F20003 		movw	r3, #:lower16:currentSpot
 1305 00dc C0F20003 		movt	r3, #:upper16:currentSpot
 1306 00e0 4FF00202 		mov	r2, #2
 1307 00e4 1A70     		strb	r2, [r3, #0]
 1308              	.L72:
 240:.\main.c      ****     }
 241:.\main.c      ****     if((63/2.5 <= spot) && (spot < 95/2.5) && (currentSpot != 3)){
 1309              		.loc 1 241 0
 1310 00e6 7868     		ldr	r0, [r7, #4]
 1311 00e8 FFF7FEFF 		bl	__aeabi_i2d
 1312 00ec 0246     		mov	r2, r0
 1313 00ee 0B46     		mov	r3, r1
 1314 00f0 4FF00001 		mov	r1, #0
 1315 00f4 0C46     		mov	r4, r1
 1316 00f6 1046     		mov	r0, r2
 1317 00f8 1946     		mov	r1, r3
 1318 00fa C9A3     		adr	r3, .L106+8
 1319 00fc D3E90023 		ldrd	r2, [r3]
 1320 0100 FFF7FEFF 		bl	__aeabi_dcmpge
 1321 0104 0346     		mov	r3, r0
 1322 0106 002B     		cmp	r3, #0
 1323 0108 02D0     		beq	.L75
 1324              	.L76:
 1325 010a 4FF00103 		mov	r3, #1
 1326 010e 1C46     		mov	r4, r3
 1327              	.L75:
 1328 0110 E3B2     		uxtb	r3, r4
 1329 0112 002B     		cmp	r3, #0
 1330 0114 2CD0     		beq	.L77
 1331 0116 7868     		ldr	r0, [r7, #4]
 1332 0118 FFF7FEFF 		bl	__aeabi_i2d
 1333 011c 0246     		mov	r2, r0
 1334 011e 0B46     		mov	r3, r1
 1335 0120 4FF00001 		mov	r1, #0
 1336 0124 0C46     		mov	r4, r1
 1337 0126 1046     		mov	r0, r2
 1338 0128 1946     		mov	r1, r3
 1339 012a 4FF00002 		mov	r2, #0
 1340 012e 4FF08043 		mov	r3, #1073741824
 1341 0132 03F58603 		add	r3, r3, #4390912
 1342 0136 FFF7FEFF 		bl	__aeabi_dcmplt
 1343 013a 0346     		mov	r3, r0
 1344 013c 002B     		cmp	r3, #0
 1345 013e 02D0     		beq	.L78
 1346              	.L79:
 1347 0140 4FF00103 		mov	r3, #1
 1348 0144 1C46     		mov	r4, r3
 1349              	.L78:
 1350 0146 E3B2     		uxtb	r3, r4
 1351 0148 002B     		cmp	r3, #0
ARM GAS  C:\Users\yguan5\AppData\Local\Temp\ccf0bccD.s 			page 29


 1352 014a 11D0     		beq	.L77
 1353 014c 40F20003 		movw	r3, #:lower16:currentSpot
 1354 0150 C0F20003 		movt	r3, #:upper16:currentSpot
 1355 0154 1B78     		ldrb	r3, [r3, #0]	@ zero_extendqisi2
 1356 0156 032B     		cmp	r3, #3
 1357 0158 0AD0     		beq	.L77
 242:.\main.c      ****         ChangeHome(3);
 1358              		.loc 1 242 0
 1359 015a 4FF00300 		mov	r0, #3
 1360 015e FFF7FEFF 		bl	ChangeHome
 243:.\main.c      ****         currentSpot = 3;
 1361              		.loc 1 243 0
 1362 0162 40F20003 		movw	r3, #:lower16:currentSpot
 1363 0166 C0F20003 		movt	r3, #:upper16:currentSpot
 1364 016a 4FF00302 		mov	r2, #3
 1365 016e 1A70     		strb	r2, [r3, #0]
 1366              	.L77:
 244:.\main.c      ****     }
 245:.\main.c      ****     if((95/2.5 <= spot) && (spot < 127/2.5) && (currentSpot != 4)){
 1367              		.loc 1 245 0
 1368 0170 7868     		ldr	r0, [r7, #4]
 1369 0172 FFF7FEFF 		bl	__aeabi_i2d
 1370 0176 0246     		mov	r2, r0
 1371 0178 0B46     		mov	r3, r1
 1372 017a 4FF00001 		mov	r1, #0
 1373 017e 0C46     		mov	r4, r1
 1374 0180 1046     		mov	r0, r2
 1375 0182 1946     		mov	r1, r3
 1376 0184 4FF00002 		mov	r2, #0
 1377 0188 4FF08043 		mov	r3, #1073741824
 1378 018c 03F58603 		add	r3, r3, #4390912
 1379 0190 FFF7FEFF 		bl	__aeabi_dcmpge
 1380 0194 0346     		mov	r3, r0
 1381 0196 002B     		cmp	r3, #0
 1382 0198 02D0     		beq	.L80
 1383              	.L81:
 1384 019a 4FF00103 		mov	r3, #1
 1385 019e 1C46     		mov	r4, r3
 1386              	.L80:
 1387 01a0 E3B2     		uxtb	r3, r4
 1388 01a2 002B     		cmp	r3, #0
 1389 01a4 29D0     		beq	.L82
 1390 01a6 7868     		ldr	r0, [r7, #4]
 1391 01a8 FFF7FEFF 		bl	__aeabi_i2d
 1392 01ac 0246     		mov	r2, r0
 1393 01ae 0B46     		mov	r3, r1
 1394 01b0 4FF00001 		mov	r1, #0
 1395 01b4 0C46     		mov	r4, r1
 1396 01b6 1046     		mov	r0, r2
 1397 01b8 1946     		mov	r1, r3
 1398 01ba 9BA3     		adr	r3, .L106+16
 1399 01bc D3E90023 		ldrd	r2, [r3]
 1400 01c0 FFF7FEFF 		bl	__aeabi_dcmplt
 1401 01c4 0346     		mov	r3, r0
 1402 01c6 002B     		cmp	r3, #0
 1403 01c8 02D0     		beq	.L83
 1404              	.L84:
ARM GAS  C:\Users\yguan5\AppData\Local\Temp\ccf0bccD.s 			page 30


 1405 01ca 4FF00103 		mov	r3, #1
 1406 01ce 1C46     		mov	r4, r3
 1407              	.L83:
 1408 01d0 E3B2     		uxtb	r3, r4
 1409 01d2 002B     		cmp	r3, #0
 1410 01d4 11D0     		beq	.L82
 1411 01d6 40F20003 		movw	r3, #:lower16:currentSpot
 1412 01da C0F20003 		movt	r3, #:upper16:currentSpot
 1413 01de 1B78     		ldrb	r3, [r3, #0]	@ zero_extendqisi2
 1414 01e0 042B     		cmp	r3, #4
 1415 01e2 0AD0     		beq	.L82
 246:.\main.c      ****         ChangeHome(4);
 1416              		.loc 1 246 0
 1417 01e4 4FF00400 		mov	r0, #4
 1418 01e8 FFF7FEFF 		bl	ChangeHome
 247:.\main.c      ****         currentSpot = 4;
 1419              		.loc 1 247 0
 1420 01ec 40F20003 		movw	r3, #:lower16:currentSpot
 1421 01f0 C0F20003 		movt	r3, #:upper16:currentSpot
 1422 01f4 4FF00402 		mov	r2, #4
 1423 01f8 1A70     		strb	r2, [r3, #0]
 1424              	.L82:
 248:.\main.c      ****     }
 249:.\main.c      ****     if((127/2.5 <= spot) && (spot < 159/2.5) && (currentSpot != 5)){
 1425              		.loc 1 249 0
 1426 01fa 7868     		ldr	r0, [r7, #4]
 1427 01fc FFF7FEFF 		bl	__aeabi_i2d
 1428 0200 0246     		mov	r2, r0
 1429 0202 0B46     		mov	r3, r1
 1430 0204 4FF00001 		mov	r1, #0
 1431 0208 0C46     		mov	r4, r1
 1432 020a 1046     		mov	r0, r2
 1433 020c 1946     		mov	r1, r3
 1434 020e 86A3     		adr	r3, .L106+16
 1435 0210 D3E90023 		ldrd	r2, [r3]
 1436 0214 FFF7FEFF 		bl	__aeabi_dcmpge
 1437 0218 0346     		mov	r3, r0
 1438 021a 002B     		cmp	r3, #0
 1439 021c 02D0     		beq	.L85
 1440              	.L86:
 1441 021e 4FF00103 		mov	r3, #1
 1442 0222 1C46     		mov	r4, r3
 1443              	.L85:
 1444 0224 E3B2     		uxtb	r3, r4
 1445 0226 002B     		cmp	r3, #0
 1446 0228 29D0     		beq	.L87
 1447 022a 7868     		ldr	r0, [r7, #4]
 1448 022c FFF7FEFF 		bl	__aeabi_i2d
 1449 0230 0246     		mov	r2, r0
 1450 0232 0B46     		mov	r3, r1
 1451 0234 4FF00001 		mov	r1, #0
 1452 0238 0C46     		mov	r4, r1
 1453 023a 1046     		mov	r0, r2
 1454 023c 1946     		mov	r1, r3
 1455 023e 7CA3     		adr	r3, .L106+24
 1456 0240 D3E90023 		ldrd	r2, [r3]
 1457 0244 FFF7FEFF 		bl	__aeabi_dcmplt
ARM GAS  C:\Users\yguan5\AppData\Local\Temp\ccf0bccD.s 			page 31


 1458 0248 0346     		mov	r3, r0
 1459 024a 002B     		cmp	r3, #0
 1460 024c 02D0     		beq	.L88
 1461              	.L89:
 1462 024e 4FF00103 		mov	r3, #1
 1463 0252 1C46     		mov	r4, r3
 1464              	.L88:
 1465 0254 E3B2     		uxtb	r3, r4
 1466 0256 002B     		cmp	r3, #0
 1467 0258 11D0     		beq	.L87
 1468 025a 40F20003 		movw	r3, #:lower16:currentSpot
 1469 025e C0F20003 		movt	r3, #:upper16:currentSpot
 1470 0262 1B78     		ldrb	r3, [r3, #0]	@ zero_extendqisi2
 1471 0264 052B     		cmp	r3, #5
 1472 0266 0AD0     		beq	.L87
 250:.\main.c      ****         ChangeHome(5);
 1473              		.loc 1 250 0
 1474 0268 4FF00500 		mov	r0, #5
 1475 026c FFF7FEFF 		bl	ChangeHome
 251:.\main.c      ****         currentSpot = 5;
 1476              		.loc 1 251 0
 1477 0270 40F20003 		movw	r3, #:lower16:currentSpot
 1478 0274 C0F20003 		movt	r3, #:upper16:currentSpot
 1479 0278 4FF00502 		mov	r2, #5
 1480 027c 1A70     		strb	r2, [r3, #0]
 1481              	.L87:
 252:.\main.c      ****     }
 253:.\main.c      ****     if((159/2.5 <= spot) && (spot < 191/2.5) && (currentSpot != 6)){
 1482              		.loc 1 253 0
 1483 027e 7868     		ldr	r0, [r7, #4]
 1484 0280 FFF7FEFF 		bl	__aeabi_i2d
 1485 0284 0246     		mov	r2, r0
 1486 0286 0B46     		mov	r3, r1
 1487 0288 4FF00001 		mov	r1, #0
 1488 028c 0C46     		mov	r4, r1
 1489 028e 1046     		mov	r0, r2
 1490 0290 1946     		mov	r1, r3
 1491 0292 67A3     		adr	r3, .L106+24
 1492 0294 D3E90023 		ldrd	r2, [r3]
 1493 0298 FFF7FEFF 		bl	__aeabi_dcmpge
 1494 029c 0346     		mov	r3, r0
 1495 029e 002B     		cmp	r3, #0
 1496 02a0 02D0     		beq	.L90
 1497              	.L91:
 1498 02a2 4FF00103 		mov	r3, #1
 1499 02a6 1C46     		mov	r4, r3
 1500              	.L90:
 1501 02a8 E3B2     		uxtb	r3, r4
 1502 02aa 002B     		cmp	r3, #0
 1503 02ac 29D0     		beq	.L92
 1504 02ae 7868     		ldr	r0, [r7, #4]
 1505 02b0 FFF7FEFF 		bl	__aeabi_i2d
 1506 02b4 0246     		mov	r2, r0
 1507 02b6 0B46     		mov	r3, r1
 1508 02b8 4FF00001 		mov	r1, #0
 1509 02bc 0C46     		mov	r4, r1
 1510 02be 1046     		mov	r0, r2
ARM GAS  C:\Users\yguan5\AppData\Local\Temp\ccf0bccD.s 			page 32


 1511 02c0 1946     		mov	r1, r3
 1512 02c2 5DA3     		adr	r3, .L106+32
 1513 02c4 D3E90023 		ldrd	r2, [r3]
 1514 02c8 FFF7FEFF 		bl	__aeabi_dcmplt
 1515 02cc 0346     		mov	r3, r0
 1516 02ce 002B     		cmp	r3, #0
 1517 02d0 02D0     		beq	.L93
 1518              	.L94:
 1519 02d2 4FF00103 		mov	r3, #1
 1520 02d6 1C46     		mov	r4, r3
 1521              	.L93:
 1522 02d8 E3B2     		uxtb	r3, r4
 1523 02da 002B     		cmp	r3, #0
 1524 02dc 11D0     		beq	.L92
 1525 02de 40F20003 		movw	r3, #:lower16:currentSpot
 1526 02e2 C0F20003 		movt	r3, #:upper16:currentSpot
 1527 02e6 1B78     		ldrb	r3, [r3, #0]	@ zero_extendqisi2
 1528 02e8 062B     		cmp	r3, #6
 1529 02ea 0AD0     		beq	.L92
 254:.\main.c      ****         ChangeHome(6);
 1530              		.loc 1 254 0
 1531 02ec 4FF00600 		mov	r0, #6
 1532 02f0 FFF7FEFF 		bl	ChangeHome
 255:.\main.c      ****         currentSpot = 6;
 1533              		.loc 1 255 0
 1534 02f4 40F20003 		movw	r3, #:lower16:currentSpot
 1535 02f8 C0F20003 		movt	r3, #:upper16:currentSpot
 1536 02fc 4FF00602 		mov	r2, #6
 1537 0300 1A70     		strb	r2, [r3, #0]
 1538              	.L92:
 256:.\main.c      ****     }
 257:.\main.c      ****     if((191/2.5 <= spot) && (spot < 223/2.5) && (currentSpot != 7)){
 1539              		.loc 1 257 0
 1540 0302 7868     		ldr	r0, [r7, #4]
 1541 0304 FFF7FEFF 		bl	__aeabi_i2d
 1542 0308 0246     		mov	r2, r0
 1543 030a 0B46     		mov	r3, r1
 1544 030c 4FF00001 		mov	r1, #0
 1545 0310 0C46     		mov	r4, r1
 1546 0312 1046     		mov	r0, r2
 1547 0314 1946     		mov	r1, r3
 1548 0316 48A3     		adr	r3, .L106+32
 1549 0318 D3E90023 		ldrd	r2, [r3]
 1550 031c FFF7FEFF 		bl	__aeabi_dcmpge
 1551 0320 0346     		mov	r3, r0
 1552 0322 002B     		cmp	r3, #0
 1553 0324 02D0     		beq	.L95
 1554              	.L96:
 1555 0326 4FF00103 		mov	r3, #1
 1556 032a 1C46     		mov	r4, r3
 1557              	.L95:
 1558 032c E3B2     		uxtb	r3, r4
 1559 032e 002B     		cmp	r3, #0
 1560 0330 29D0     		beq	.L97
 1561 0332 7868     		ldr	r0, [r7, #4]
 1562 0334 FFF7FEFF 		bl	__aeabi_i2d
 1563 0338 0246     		mov	r2, r0
ARM GAS  C:\Users\yguan5\AppData\Local\Temp\ccf0bccD.s 			page 33


 1564 033a 0B46     		mov	r3, r1
 1565 033c 4FF00001 		mov	r1, #0
 1566 0340 0C46     		mov	r4, r1
 1567 0342 1046     		mov	r0, r2
 1568 0344 1946     		mov	r1, r3
 1569 0346 3EA3     		adr	r3, .L106+40
 1570 0348 D3E90023 		ldrd	r2, [r3]
 1571 034c FFF7FEFF 		bl	__aeabi_dcmplt
 1572 0350 0346     		mov	r3, r0
 1573 0352 002B     		cmp	r3, #0
 1574 0354 02D0     		beq	.L98
 1575              	.L99:
 1576 0356 4FF00103 		mov	r3, #1
 1577 035a 1C46     		mov	r4, r3
 1578              	.L98:
 1579 035c E3B2     		uxtb	r3, r4
 1580 035e 002B     		cmp	r3, #0
 1581 0360 11D0     		beq	.L97
 1582 0362 40F20003 		movw	r3, #:lower16:currentSpot
 1583 0366 C0F20003 		movt	r3, #:upper16:currentSpot
 1584 036a 1B78     		ldrb	r3, [r3, #0]	@ zero_extendqisi2
 1585 036c 072B     		cmp	r3, #7
 1586 036e 0AD0     		beq	.L97
 258:.\main.c      ****         ChangeHome(7);
 1587              		.loc 1 258 0
 1588 0370 4FF00700 		mov	r0, #7
 1589 0374 FFF7FEFF 		bl	ChangeHome
 259:.\main.c      ****         currentSpot = 7;
 1590              		.loc 1 259 0
 1591 0378 40F20003 		movw	r3, #:lower16:currentSpot
 1592 037c C0F20003 		movt	r3, #:upper16:currentSpot
 1593 0380 4FF00702 		mov	r2, #7
 1594 0384 1A70     		strb	r2, [r3, #0]
 1595              	.L97:
 260:.\main.c      ****     }
 261:.\main.c      ****     if((223/2.5 <= spot) && (spot < 255/2.5) && (currentSpot != 8)){
 1596              		.loc 1 261 0
 1597 0386 7868     		ldr	r0, [r7, #4]
 1598 0388 FFF7FEFF 		bl	__aeabi_i2d
 1599 038c 0246     		mov	r2, r0
 1600 038e 0B46     		mov	r3, r1
 1601 0390 4FF00001 		mov	r1, #0
 1602 0394 0C46     		mov	r4, r1
 1603 0396 1046     		mov	r0, r2
 1604 0398 1946     		mov	r1, r3
 1605 039a 29A3     		adr	r3, .L106+40
 1606 039c D3E90023 		ldrd	r2, [r3]
 1607 03a0 FFF7FEFF 		bl	__aeabi_dcmpge
 1608 03a4 0346     		mov	r3, r0
 1609 03a6 002B     		cmp	r3, #0
 1610 03a8 02D0     		beq	.L100
 1611              	.L101:
 1612 03aa 4FF00103 		mov	r3, #1
 1613 03ae 1C46     		mov	r4, r3
 1614              	.L100:
 1615 03b0 E3B2     		uxtb	r3, r4
 1616 03b2 002B     		cmp	r3, #0
ARM GAS  C:\Users\yguan5\AppData\Local\Temp\ccf0bccD.s 			page 34


 1617 03b4 29D0     		beq	.L105
 1618 03b6 7868     		ldr	r0, [r7, #4]
 1619 03b8 FFF7FEFF 		bl	__aeabi_i2d
 1620 03bc 0246     		mov	r2, r0
 1621 03be 0B46     		mov	r3, r1
 1622 03c0 4FF00001 		mov	r1, #0
 1623 03c4 0C46     		mov	r4, r1
 1624 03c6 1046     		mov	r0, r2
 1625 03c8 1946     		mov	r1, r3
 1626 03ca 1FA3     		adr	r3, .L106+48
 1627 03cc D3E90023 		ldrd	r2, [r3]
 1628 03d0 FFF7FEFF 		bl	__aeabi_dcmplt
 1629 03d4 0346     		mov	r3, r0
 1630 03d6 002B     		cmp	r3, #0
 1631 03d8 02D0     		beq	.L103
 1632              	.L104:
 1633 03da 4FF00103 		mov	r3, #1
 1634 03de 1C46     		mov	r4, r3
 1635              	.L103:
 1636 03e0 E3B2     		uxtb	r3, r4
 1637 03e2 002B     		cmp	r3, #0
 1638 03e4 11D0     		beq	.L105
 1639 03e6 40F20003 		movw	r3, #:lower16:currentSpot
 1640 03ea C0F20003 		movt	r3, #:upper16:currentSpot
 1641 03ee 1B78     		ldrb	r3, [r3, #0]	@ zero_extendqisi2
 1642 03f0 082B     		cmp	r3, #8
 1643 03f2 0AD0     		beq	.L105
 262:.\main.c      ****         ChangeHome(8);
 1644              		.loc 1 262 0
 1645 03f4 4FF00800 		mov	r0, #8
 1646 03f8 FFF7FEFF 		bl	ChangeHome
 263:.\main.c      ****         currentSpot = 8;
 1647              		.loc 1 263 0
 1648 03fc 40F20003 		movw	r3, #:lower16:currentSpot
 1649 0400 C0F20003 		movt	r3, #:upper16:currentSpot
 1650 0404 4FF00802 		mov	r2, #8
 1651 0408 1A70     		strb	r2, [r3, #0]
 1652              	.L105:
 264:.\main.c      ****     }
 265:.\main.c      **** }
 1653              		.loc 1 265 0
 1654 040a 07F10C07 		add	r7, r7, #12
 1655 040e BD46     		mov	sp, r7
 1656 0410 90BD     		pop	{r4, r7, pc}
 1657              	.L107:
 1658 0412 00BFAFF3 		.align	3
 1658      0080
 1659              	.L106:
 1660 0418 CDCCCCCC 		.word	-858993459
 1661 041c CCCC2840 		.word	1076415692
 1662 0420 33333333 		.word	858993459
 1663 0424 33333940 		.word	1077490483
 1664 0428 66666666 		.word	1717986918
 1665 042c 66664940 		.word	1078552166
 1666 0430 CDCCCCCC 		.word	-858993459
 1667 0434 CCCC4F40 		.word	1078971596
 1668 0438 9A999999 		.word	-1717986918
ARM GAS  C:\Users\yguan5\AppData\Local\Temp\ccf0bccD.s 			page 35


 1669 043c 99195340 		.word	1079187865
 1670 0440 CDCCCCCC 		.word	-858993459
 1671 0444 CC4C5640 		.word	1079397580
 1672 0448 00000000 		.word	0
 1673 044c 00805940 		.word	1079607296
 1674              		.cfi_endproc
 1675              	.LFE41:
 1676              		.size	selectSpot, .-selectSpot
 1677              		.section	.text.test,"ax",%progbits
 1678              		.align	2
 1679              		.global	test
 1680              		.thumb
 1681              		.thumb_func
 1682              		.type	test, %function
 1683              	test:
 1684              	.LFB42:
 266:.\main.c      **** 
 267:.\main.c      **** void test(){
 1685              		.loc 1 267 0
 1686              		.cfi_startproc
 1687              		@ args = 0, pretend = 0, frame = 8
 1688              		@ frame_needed = 1, uses_anonymous_args = 0
 1689 0000 80B5     		push	{r7, lr}
 1690              	.LCFI34:
 1691              		.cfi_def_cfa_offset 8
 1692 0002 82B0     		sub	sp, sp, #8
 1693              	.LCFI35:
 1694              		.cfi_def_cfa_offset 16
 1695 0004 00AF     		add	r7, sp, #0
 1696              		.cfi_offset 14, -4
 1697              		.cfi_offset 7, -8
 1698              	.LCFI36:
 1699              		.cfi_def_cfa_register 7
 268:.\main.c      ****     int8 t;
 269:.\main.c      ****     for(t=1; t<=8;t++){
 1700              		.loc 1 269 0
 1701 0006 4FF00103 		mov	r3, #1
 1702 000a FB71     		strb	r3, [r7, #7]
 1703 000c 15E0     		b	.L109
 1704              	.L110:
 270:.\main.c      ****         settingPin(Blue, 2, t);
 1705              		.loc 1 270 0
 1706 000e 97F90730 		ldrsb	r3, [r7, #7]
 1707 0012 4FF00100 		mov	r0, #1
 1708 0016 4FF00201 		mov	r1, #2
 1709 001a 1A46     		mov	r2, r3
 1710 001c FFF7FEFF 		bl	settingPin
 271:.\main.c      ****         settingPin(Red, 6, t);
 1711              		.loc 1 271 0
 1712 0020 97F90730 		ldrsb	r3, [r7, #7]
 1713 0024 4FF00200 		mov	r0, #2
 1714 0028 4FF00601 		mov	r1, #6
 1715 002c 1A46     		mov	r2, r3
 1716 002e FFF7FEFF 		bl	settingPin
 1717              		.loc 1 269 0
 1718 0032 FB79     		ldrb	r3, [r7, #7]
 1719 0034 03F10103 		add	r3, r3, #1
ARM GAS  C:\Users\yguan5\AppData\Local\Temp\ccf0bccD.s 			page 36


 1720 0038 FB71     		strb	r3, [r7, #7]
 1721              	.L109:
 1722 003a 97F90730 		ldrsb	r3, [r7, #7]
 1723 003e 082B     		cmp	r3, #8
 1724 0040 E5DD     		ble	.L110
 272:.\main.c      ****     }
 273:.\main.c      **** }
 1725              		.loc 1 273 0
 1726 0042 07F10807 		add	r7, r7, #8
 1727 0046 BD46     		mov	sp, r7
 1728 0048 80BD     		pop	{r7, pc}
 1729              		.cfi_endproc
 1730              	.LFE42:
 1731              		.size	test, .-test
 1732 004a 00BF     		.section	.text.checkVictory,"ax",%progbits
 1733              		.align	2
 1734              		.global	checkVictory
 1735              		.thumb
 1736              		.thumb_func
 1737              		.type	checkVictory, %function
 1738              	checkVictory:
 1739              	.LFB43:
 274:.\main.c      **** 
 275:.\main.c      **** uint8 checkVictory(int8 color, int8 S, int8 L){
 1740              		.loc 1 275 0
 1741              		.cfi_startproc
 1742              		@ args = 0, pretend = 0, frame = 16
 1743              		@ frame_needed = 1, uses_anonymous_args = 0
 1744              		@ link register save eliminated.
 1745 0000 80B4     		push	{r7}
 1746              	.LCFI37:
 1747              		.cfi_def_cfa_offset 4
 1748 0002 85B0     		sub	sp, sp, #20
 1749              	.LCFI38:
 1750              		.cfi_def_cfa_offset 24
 1751 0004 00AF     		add	r7, sp, #0
 1752              		.cfi_offset 7, -4
 1753              	.LCFI39:
 1754              		.cfi_def_cfa_register 7
 1755 0006 1346     		mov	r3, r2
 1756 0008 0246     		mov	r2, r0
 1757 000a FA71     		strb	r2, [r7, #7]
 1758 000c 0A46     		mov	r2, r1
 1759 000e BA71     		strb	r2, [r7, #6]
 1760 0010 7B71     		strb	r3, [r7, #5]
 276:.\main.c      ****     uint8 f, t, v, h, n, d1, d2;
 277:.\main.c      ****     v = h = f = 0;
 1761              		.loc 1 277 0
 1762 0012 4FF00003 		mov	r3, #0
 1763 0016 7B72     		strb	r3, [r7, #9]
 1764 0018 7B7A     		ldrb	r3, [r7, #9]
 1765 001a 3B73     		strb	r3, [r7, #12]
 1766 001c 3B7B     		ldrb	r3, [r7, #12]
 1767 001e FB72     		strb	r3, [r7, #11]
 278:.\main.c      ****     d2 = 1;
 1768              		.loc 1 278 0
 1769 0020 4FF00103 		mov	r3, #1
ARM GAS  C:\Users\yguan5\AppData\Local\Temp\ccf0bccD.s 			page 37


 1770 0024 FB73     		strb	r3, [r7, #15]
 279:.\main.c      ****     
 280:.\main.c      ****     /*horizontal check*/
 281:.\main.c      ****     for(t = 0; t<8; t++){
 1771              		.loc 1 281 0
 1772 0026 4FF00003 		mov	r3, #0
 1773 002a BB72     		strb	r3, [r7, #10]
 1774 002c 3CE0     		b	.L113
 1775              	.L118:
 282:.\main.c      ****         if(arrayLED[S][t] == color){
 1776              		.loc 1 282 0
 1777 002e 97F90610 		ldrsb	r1, [r7, #6]
 1778 0032 BA7A     		ldrb	r2, [r7, #10]	@ zero_extendqisi2
 1779 0034 40F20003 		movw	r3, #:lower16:arrayLED
 1780 0038 C0F20003 		movt	r3, #:upper16:arrayLED
 1781 003c 4FEAC101 		lsl	r1, r1, #3
 1782 0040 0A44     		add	r2, r1, r2
 1783 0042 53F82220 		ldr	r2, [r3, r2, lsl #2]
 1784 0046 97F90730 		ldrsb	r3, [r7, #7]
 1785 004a 9A42     		cmp	r2, r3
 1786 004c 16D1     		bne	.L114
 283:.\main.c      ****             Horizontal[f] = t;
 1787              		.loc 1 283 0
 1788 004e 7A7A     		ldrb	r2, [r7, #9]	@ zero_extendqisi2
 1789 0050 40F20003 		movw	r3, #:lower16:Horizontal
 1790 0054 C0F20003 		movt	r3, #:upper16:Horizontal
 1791 0058 B97A     		ldrb	r1, [r7, #10]
 1792 005a 9954     		strb	r1, [r3, r2]
 284:.\main.c      ****             Vertical[f] = S;
 1793              		.loc 1 284 0
 1794 005c 7A7A     		ldrb	r2, [r7, #9]	@ zero_extendqisi2
 1795 005e B979     		ldrb	r1, [r7, #6]	@ zero_extendqisi2
 1796 0060 40F20003 		movw	r3, #:lower16:Vertical
 1797 0064 C0F20003 		movt	r3, #:upper16:Vertical
 1798 0068 9954     		strb	r1, [r3, r2]
 285:.\main.c      ****             f++;
 1799              		.loc 1 285 0
 1800 006a 7B7A     		ldrb	r3, [r7, #9]
 1801 006c 03F10103 		add	r3, r3, #1
 1802 0070 7B72     		strb	r3, [r7, #9]
 286:.\main.c      ****             h++;
 1803              		.loc 1 286 0
 1804 0072 3B7B     		ldrb	r3, [r7, #12]
 1805 0074 03F10103 		add	r3, r3, #1
 1806 0078 3B73     		strb	r3, [r7, #12]
 1807 007a 05E0     		b	.L115
 1808              	.L114:
 287:.\main.c      ****         }else{
 288:.\main.c      ****             h =0;
 1809              		.loc 1 288 0
 1810 007c 4FF00003 		mov	r3, #0
 1811 0080 3B73     		strb	r3, [r7, #12]
 289:.\main.c      ****             f=0;
 1812              		.loc 1 289 0
 1813 0082 4FF00003 		mov	r3, #0
 1814 0086 7B72     		strb	r3, [r7, #9]
 1815              	.L115:
ARM GAS  C:\Users\yguan5\AppData\Local\Temp\ccf0bccD.s 			page 38


 290:.\main.c      ****         }
 291:.\main.c      ****         if(h>=4){
 1816              		.loc 1 291 0
 1817 0088 3B7B     		ldrb	r3, [r7, #12]	@ zero_extendqisi2
 1818 008a 032B     		cmp	r3, #3
 1819 008c 08D9     		bls	.L116
 292:.\main.c      ****             Winner = color;
 1820              		.loc 1 292 0
 1821 008e FA79     		ldrb	r2, [r7, #7]	@ zero_extendqisi2
 1822 0090 40F20003 		movw	r3, #:lower16:Winner
 1823 0094 C0F20003 		movt	r3, #:upper16:Winner
 1824 0098 1A70     		strb	r2, [r3, #0]
 293:.\main.c      ****             return 1;
 1825              		.loc 1 293 0
 1826 009a 4FF00103 		mov	r3, #1
 1827 009e C1E1     		b	.L117
 1828              	.L116:
 1829              		.loc 1 281 0
 1830 00a0 BB7A     		ldrb	r3, [r7, #10]
 1831 00a2 03F10103 		add	r3, r3, #1
 1832 00a6 BB72     		strb	r3, [r7, #10]
 1833              	.L113:
 1834 00a8 BB7A     		ldrb	r3, [r7, #10]	@ zero_extendqisi2
 1835 00aa 072B     		cmp	r3, #7
 1836 00ac BFD9     		bls	.L118
 294:.\main.c      ****         }
 295:.\main.c      ****     }
 296:.\main.c      ****     /*vertical check*/
 297:.\main.c      ****     f = 0;
 1837              		.loc 1 297 0
 1838 00ae 4FF00003 		mov	r3, #0
 1839 00b2 7B72     		strb	r3, [r7, #9]
 298:.\main.c      ****     for(t = 0; t<7; t++){
 1840              		.loc 1 298 0
 1841 00b4 4FF00003 		mov	r3, #0
 1842 00b8 BB72     		strb	r3, [r7, #10]
 1843 00ba 3CE0     		b	.L119
 1844              	.L123:
 299:.\main.c      ****         if(arrayLED[t][L] == color){
 1845              		.loc 1 299 0
 1846 00bc B97A     		ldrb	r1, [r7, #10]	@ zero_extendqisi2
 1847 00be 97F90520 		ldrsb	r2, [r7, #5]
 1848 00c2 40F20003 		movw	r3, #:lower16:arrayLED
 1849 00c6 C0F20003 		movt	r3, #:upper16:arrayLED
 1850 00ca 4FEAC101 		lsl	r1, r1, #3
 1851 00ce 0A44     		add	r2, r1, r2
 1852 00d0 53F82220 		ldr	r2, [r3, r2, lsl #2]
 1853 00d4 97F90730 		ldrsb	r3, [r7, #7]
 1854 00d8 9A42     		cmp	r2, r3
 1855 00da 16D1     		bne	.L120
 300:.\main.c      ****             Horizontal[f] = L;
 1856              		.loc 1 300 0
 1857 00dc 7A7A     		ldrb	r2, [r7, #9]	@ zero_extendqisi2
 1858 00de 7979     		ldrb	r1, [r7, #5]	@ zero_extendqisi2
 1859 00e0 40F20003 		movw	r3, #:lower16:Horizontal
 1860 00e4 C0F20003 		movt	r3, #:upper16:Horizontal
 1861 00e8 9954     		strb	r1, [r3, r2]
ARM GAS  C:\Users\yguan5\AppData\Local\Temp\ccf0bccD.s 			page 39


 301:.\main.c      ****             Vertical[f] = t;
 1862              		.loc 1 301 0
 1863 00ea 7A7A     		ldrb	r2, [r7, #9]	@ zero_extendqisi2
 1864 00ec 40F20003 		movw	r3, #:lower16:Vertical
 1865 00f0 C0F20003 		movt	r3, #:upper16:Vertical
 1866 00f4 B97A     		ldrb	r1, [r7, #10]
 1867 00f6 9954     		strb	r1, [r3, r2]
 302:.\main.c      ****             f++;
 1868              		.loc 1 302 0
 1869 00f8 7B7A     		ldrb	r3, [r7, #9]
 1870 00fa 03F10103 		add	r3, r3, #1
 1871 00fe 7B72     		strb	r3, [r7, #9]
 303:.\main.c      ****             v++;
 1872              		.loc 1 303 0
 1873 0100 FB7A     		ldrb	r3, [r7, #11]
 1874 0102 03F10103 		add	r3, r3, #1
 1875 0106 FB72     		strb	r3, [r7, #11]
 1876 0108 05E0     		b	.L121
 1877              	.L120:
 304:.\main.c      ****         }else{
 305:.\main.c      ****             f=0;
 1878              		.loc 1 305 0
 1879 010a 4FF00003 		mov	r3, #0
 1880 010e 7B72     		strb	r3, [r7, #9]
 306:.\main.c      ****             v =0;
 1881              		.loc 1 306 0
 1882 0110 4FF00003 		mov	r3, #0
 1883 0114 FB72     		strb	r3, [r7, #11]
 1884              	.L121:
 307:.\main.c      ****         }
 308:.\main.c      ****         if(v>=4){
 1885              		.loc 1 308 0
 1886 0116 FB7A     		ldrb	r3, [r7, #11]	@ zero_extendqisi2
 1887 0118 032B     		cmp	r3, #3
 1888 011a 08D9     		bls	.L122
 309:.\main.c      ****             Winner = color;
 1889              		.loc 1 309 0
 1890 011c FA79     		ldrb	r2, [r7, #7]	@ zero_extendqisi2
 1891 011e 40F20003 		movw	r3, #:lower16:Winner
 1892 0122 C0F20003 		movt	r3, #:upper16:Winner
 1893 0126 1A70     		strb	r2, [r3, #0]
 310:.\main.c      ****             return 1;
 1894              		.loc 1 310 0
 1895 0128 4FF00103 		mov	r3, #1
 1896 012c 7AE1     		b	.L117
 1897              	.L122:
 1898              		.loc 1 298 0
 1899 012e BB7A     		ldrb	r3, [r7, #10]
 1900 0130 03F10103 		add	r3, r3, #1
 1901 0134 BB72     		strb	r3, [r7, #10]
 1902              	.L119:
 1903 0136 BB7A     		ldrb	r3, [r7, #10]	@ zero_extendqisi2
 1904 0138 062B     		cmp	r3, #6
 1905 013a BFD9     		bls	.L123
 311:.\main.c      ****         }
 312:.\main.c      ****     }
 313:.\main.c      ****     
ARM GAS  C:\Users\yguan5\AppData\Local\Temp\ccf0bccD.s 			page 40


 314:.\main.c      ****     /*diagonal / check*/
 315:.\main.c      ****     f = 0;
 1906              		.loc 1 315 0
 1907 013c 4FF00003 		mov	r3, #0
 1908 0140 7B72     		strb	r3, [r7, #9]
 316:.\main.c      ****     d1 = 1;
 1909              		.loc 1 316 0
 1910 0142 4FF00103 		mov	r3, #1
 1911 0146 BB73     		strb	r3, [r7, #14]
 317:.\main.c      ****     n = 1;
 1912              		.loc 1 317 0
 1913 0148 4FF00103 		mov	r3, #1
 1914 014c 7B73     		strb	r3, [r7, #13]
 318:.\main.c      ****     Horizontal[f] = L;
 1915              		.loc 1 318 0
 1916 014e 7A7A     		ldrb	r2, [r7, #9]	@ zero_extendqisi2
 1917 0150 7979     		ldrb	r1, [r7, #5]	@ zero_extendqisi2
 1918 0152 40F20003 		movw	r3, #:lower16:Horizontal
 1919 0156 C0F20003 		movt	r3, #:upper16:Horizontal
 1920 015a 9954     		strb	r1, [r3, r2]
 319:.\main.c      ****     Vertical[f] = S;
 1921              		.loc 1 319 0
 1922 015c 7A7A     		ldrb	r2, [r7, #9]	@ zero_extendqisi2
 1923 015e B979     		ldrb	r1, [r7, #6]	@ zero_extendqisi2
 1924 0160 40F20003 		movw	r3, #:lower16:Vertical
 1925 0164 C0F20003 		movt	r3, #:upper16:Vertical
 1926 0168 9954     		strb	r1, [r3, r2]
 320:.\main.c      ****     f++;
 1927              		.loc 1 320 0
 1928 016a 7B7A     		ldrb	r3, [r7, #9]
 1929 016c 03F10103 		add	r3, r3, #1
 1930 0170 7B72     		strb	r3, [r7, #9]
 321:.\main.c      ****     while(((S-n)>=0) && ((L-n)>=0)){
 1931              		.loc 1 321 0
 1932 0172 38E0     		b	.L124
 1933              	.L127:
 322:.\main.c      ****         if(arrayLED[S-n][L-n] == color){
 1934              		.loc 1 322 0
 1935 0174 97F90620 		ldrsb	r2, [r7, #6]
 1936 0178 7B7B     		ldrb	r3, [r7, #13]	@ zero_extendqisi2
 1937 017a C3EB0201 		rsb	r1, r3, r2
 1938 017e 97F90520 		ldrsb	r2, [r7, #5]
 1939 0182 7B7B     		ldrb	r3, [r7, #13]	@ zero_extendqisi2
 1940 0184 C3EB0202 		rsb	r2, r3, r2
 1941 0188 40F20003 		movw	r3, #:lower16:arrayLED
 1942 018c C0F20003 		movt	r3, #:upper16:arrayLED
 1943 0190 4FEAC101 		lsl	r1, r1, #3
 1944 0194 0A44     		add	r2, r1, r2
 1945 0196 53F82220 		ldr	r2, [r3, r2, lsl #2]
 1946 019a 97F90730 		ldrsb	r3, [r7, #7]
 1947 019e 9A42     		cmp	r2, r3
 1948 01a0 30D1     		bne	.L143
 323:.\main.c      ****             Horizontal[f] = L-n;
 1949              		.loc 1 323 0
 1950 01a2 7A7A     		ldrb	r2, [r7, #9]	@ zero_extendqisi2
 1951 01a4 7979     		ldrb	r1, [r7, #5]	@ zero_extendqisi2
 1952 01a6 7B7B     		ldrb	r3, [r7, #13]
ARM GAS  C:\Users\yguan5\AppData\Local\Temp\ccf0bccD.s 			page 41


 1953 01a8 C3EB0103 		rsb	r3, r3, r1
 1954 01ac D9B2     		uxtb	r1, r3
 1955 01ae 40F20003 		movw	r3, #:lower16:Horizontal
 1956 01b2 C0F20003 		movt	r3, #:upper16:Horizontal
 1957 01b6 9954     		strb	r1, [r3, r2]
 324:.\main.c      ****             Vertical[f] = S-n;
 1958              		.loc 1 324 0
 1959 01b8 7A7A     		ldrb	r2, [r7, #9]	@ zero_extendqisi2
 1960 01ba B979     		ldrb	r1, [r7, #6]	@ zero_extendqisi2
 1961 01bc 7B7B     		ldrb	r3, [r7, #13]
 1962 01be C3EB0103 		rsb	r3, r3, r1
 1963 01c2 D9B2     		uxtb	r1, r3
 1964 01c4 40F20003 		movw	r3, #:lower16:Vertical
 1965 01c8 C0F20003 		movt	r3, #:upper16:Vertical
 1966 01cc 9954     		strb	r1, [r3, r2]
 325:.\main.c      ****             f++;
 1967              		.loc 1 325 0
 1968 01ce 7B7A     		ldrb	r3, [r7, #9]
 1969 01d0 03F10103 		add	r3, r3, #1
 1970 01d4 7B72     		strb	r3, [r7, #9]
 326:.\main.c      ****             d1++;
 1971              		.loc 1 326 0
 1972 01d6 BB7B     		ldrb	r3, [r7, #14]
 1973 01d8 03F10103 		add	r3, r3, #1
 1974 01dc BB73     		strb	r3, [r7, #14]
 327:.\main.c      ****         }else{
 328:.\main.c      ****             break;
 329:.\main.c      ****         }
 330:.\main.c      ****         n++;
 1975              		.loc 1 330 0
 1976 01de 7B7B     		ldrb	r3, [r7, #13]
 1977 01e0 03F10103 		add	r3, r3, #1
 1978 01e4 7B73     		strb	r3, [r7, #13]
 1979              	.L124:
 1980              		.loc 1 321 0
 1981 01e6 97F90620 		ldrsb	r2, [r7, #6]
 1982 01ea 7B7B     		ldrb	r3, [r7, #13]	@ zero_extendqisi2
 1983 01ec C3EB0203 		rsb	r3, r3, r2
 1984 01f0 002B     		cmp	r3, #0
 1985 01f2 08DB     		blt	.L126
 1986 01f4 97F90520 		ldrsb	r2, [r7, #5]
 1987 01f8 7B7B     		ldrb	r3, [r7, #13]	@ zero_extendqisi2
 1988 01fa C3EB0203 		rsb	r3, r3, r2
 1989 01fe 002B     		cmp	r3, #0
 1990 0200 B8DA     		bge	.L127
 1991 0202 00E0     		b	.L126
 1992              	.L143:
 1993              		.loc 1 328 0
 1994 0204 00BF     		nop
 1995              	.L126:
 331:.\main.c      ****     }
 332:.\main.c      ****     n=1;
 1996              		.loc 1 332 0
 1997 0206 4FF00103 		mov	r3, #1
 1998 020a 7B73     		strb	r3, [r7, #13]
 333:.\main.c      ****     while(((S+n)<7) && ((L+n)<8)){
 1999              		.loc 1 333 0
ARM GAS  C:\Users\yguan5\AppData\Local\Temp\ccf0bccD.s 			page 42


 2000 020c 35E0     		b	.L128
 2001              	.L131:
 334:.\main.c      ****         if(arrayLED[S+n][L+n] == color){
 2002              		.loc 1 334 0
 2003 020e 97F90620 		ldrsb	r2, [r7, #6]
 2004 0212 7B7B     		ldrb	r3, [r7, #13]	@ zero_extendqisi2
 2005 0214 02EB0301 		add	r1, r2, r3
 2006 0218 97F90520 		ldrsb	r2, [r7, #5]
 2007 021c 7B7B     		ldrb	r3, [r7, #13]	@ zero_extendqisi2
 2008 021e 1A44     		add	r2, r2, r3
 2009 0220 40F20003 		movw	r3, #:lower16:arrayLED
 2010 0224 C0F20003 		movt	r3, #:upper16:arrayLED
 2011 0228 4FEAC101 		lsl	r1, r1, #3
 2012 022c 0A44     		add	r2, r1, r2
 2013 022e 53F82220 		ldr	r2, [r3, r2, lsl #2]
 2014 0232 97F90730 		ldrsb	r3, [r7, #7]
 2015 0236 9A42     		cmp	r2, r3
 2016 0238 2CD1     		bne	.L144
 335:.\main.c      ****             Horizontal[f] = L+n;
 2017              		.loc 1 335 0
 2018 023a 7A7A     		ldrb	r2, [r7, #9]	@ zero_extendqisi2
 2019 023c 7979     		ldrb	r1, [r7, #5]	@ zero_extendqisi2
 2020 023e 7B7B     		ldrb	r3, [r7, #13]
 2021 0240 0B44     		add	r3, r1, r3
 2022 0242 D9B2     		uxtb	r1, r3
 2023 0244 40F20003 		movw	r3, #:lower16:Horizontal
 2024 0248 C0F20003 		movt	r3, #:upper16:Horizontal
 2025 024c 9954     		strb	r1, [r3, r2]
 336:.\main.c      ****             Vertical[f] = S+n; 
 2026              		.loc 1 336 0
 2027 024e 7A7A     		ldrb	r2, [r7, #9]	@ zero_extendqisi2
 2028 0250 B979     		ldrb	r1, [r7, #6]	@ zero_extendqisi2
 2029 0252 7B7B     		ldrb	r3, [r7, #13]
 2030 0254 0B44     		add	r3, r1, r3
 2031 0256 D9B2     		uxtb	r1, r3
 2032 0258 40F20003 		movw	r3, #:lower16:Vertical
 2033 025c C0F20003 		movt	r3, #:upper16:Vertical
 2034 0260 9954     		strb	r1, [r3, r2]
 337:.\main.c      ****             f++;
 2035              		.loc 1 337 0
 2036 0262 7B7A     		ldrb	r3, [r7, #9]
 2037 0264 03F10103 		add	r3, r3, #1
 2038 0268 7B72     		strb	r3, [r7, #9]
 338:.\main.c      ****             d1++;
 2039              		.loc 1 338 0
 2040 026a BB7B     		ldrb	r3, [r7, #14]
 2041 026c 03F10103 		add	r3, r3, #1
 2042 0270 BB73     		strb	r3, [r7, #14]
 339:.\main.c      ****         }else{
 340:.\main.c      ****             break;
 341:.\main.c      ****         }
 342:.\main.c      ****         n++;
 2043              		.loc 1 342 0
 2044 0272 7B7B     		ldrb	r3, [r7, #13]
 2045 0274 03F10103 		add	r3, r3, #1
 2046 0278 7B73     		strb	r3, [r7, #13]
 2047              	.L128:
ARM GAS  C:\Users\yguan5\AppData\Local\Temp\ccf0bccD.s 			page 43


 2048              		.loc 1 333 0
 2049 027a 97F90620 		ldrsb	r2, [r7, #6]
 2050 027e 7B7B     		ldrb	r3, [r7, #13]	@ zero_extendqisi2
 2051 0280 1344     		add	r3, r2, r3
 2052 0282 062B     		cmp	r3, #6
 2053 0284 07DC     		bgt	.L130
 2054 0286 97F90520 		ldrsb	r2, [r7, #5]
 2055 028a 7B7B     		ldrb	r3, [r7, #13]	@ zero_extendqisi2
 2056 028c 1344     		add	r3, r2, r3
 2057 028e 072B     		cmp	r3, #7
 2058 0290 BDDD     		ble	.L131
 2059 0292 00E0     		b	.L130
 2060              	.L144:
 2061              		.loc 1 340 0
 2062 0294 00BF     		nop
 2063              	.L130:
 343:.\main.c      ****     }
 344:.\main.c      ****     if(d1>=4){
 2064              		.loc 1 344 0
 2065 0296 BB7B     		ldrb	r3, [r7, #14]	@ zero_extendqisi2
 2066 0298 032B     		cmp	r3, #3
 2067 029a 08D9     		bls	.L132
 345:.\main.c      ****         Winner = color;
 2068              		.loc 1 345 0
 2069 029c FA79     		ldrb	r2, [r7, #7]	@ zero_extendqisi2
 2070 029e 40F20003 		movw	r3, #:lower16:Winner
 2071 02a2 C0F20003 		movt	r3, #:upper16:Winner
 2072 02a6 1A70     		strb	r2, [r3, #0]
 346:.\main.c      ****         return 1;
 2073              		.loc 1 346 0
 2074 02a8 4FF00103 		mov	r3, #1
 2075 02ac BAE0     		b	.L117
 2076              	.L132:
 347:.\main.c      ****     }
 348:.\main.c      ****     /*diagonal \ check*/
 349:.\main.c      ****     f = 0;
 2077              		.loc 1 349 0
 2078 02ae 4FF00003 		mov	r3, #0
 2079 02b2 7B72     		strb	r3, [r7, #9]
 350:.\main.c      ****     Horizontal[f] = L;
 2080              		.loc 1 350 0
 2081 02b4 7A7A     		ldrb	r2, [r7, #9]	@ zero_extendqisi2
 2082 02b6 7979     		ldrb	r1, [r7, #5]	@ zero_extendqisi2
 2083 02b8 40F20003 		movw	r3, #:lower16:Horizontal
 2084 02bc C0F20003 		movt	r3, #:upper16:Horizontal
 2085 02c0 9954     		strb	r1, [r3, r2]
 351:.\main.c      ****     Vertical[f] = S;
 2086              		.loc 1 351 0
 2087 02c2 7A7A     		ldrb	r2, [r7, #9]	@ zero_extendqisi2
 2088 02c4 B979     		ldrb	r1, [r7, #6]	@ zero_extendqisi2
 2089 02c6 40F20003 		movw	r3, #:lower16:Vertical
 2090 02ca C0F20003 		movt	r3, #:upper16:Vertical
 2091 02ce 9954     		strb	r1, [r3, r2]
 352:.\main.c      ****     f++;
 2092              		.loc 1 352 0
 2093 02d0 7B7A     		ldrb	r3, [r7, #9]
 2094 02d2 03F10103 		add	r3, r3, #1
ARM GAS  C:\Users\yguan5\AppData\Local\Temp\ccf0bccD.s 			page 44


 2095 02d6 7B72     		strb	r3, [r7, #9]
 353:.\main.c      ****     d2 = 1;
 2096              		.loc 1 353 0
 2097 02d8 4FF00103 		mov	r3, #1
 2098 02dc FB73     		strb	r3, [r7, #15]
 354:.\main.c      ****     n = 1;
 2099              		.loc 1 354 0
 2100 02de 4FF00103 		mov	r3, #1
 2101 02e2 7B73     		strb	r3, [r7, #13]
 355:.\main.c      ****     while(((S+n)<7) && ((L-n)>=0)){
 2102              		.loc 1 355 0
 2103 02e4 37E0     		b	.L133
 2104              	.L136:
 356:.\main.c      ****         if(arrayLED[S+n][L-n] == color){
 2105              		.loc 1 356 0
 2106 02e6 97F90620 		ldrsb	r2, [r7, #6]
 2107 02ea 7B7B     		ldrb	r3, [r7, #13]	@ zero_extendqisi2
 2108 02ec 02EB0301 		add	r1, r2, r3
 2109 02f0 97F90520 		ldrsb	r2, [r7, #5]
 2110 02f4 7B7B     		ldrb	r3, [r7, #13]	@ zero_extendqisi2
 2111 02f6 C3EB0202 		rsb	r2, r3, r2
 2112 02fa 40F20003 		movw	r3, #:lower16:arrayLED
 2113 02fe C0F20003 		movt	r3, #:upper16:arrayLED
 2114 0302 4FEAC101 		lsl	r1, r1, #3
 2115 0306 0A44     		add	r2, r1, r2
 2116 0308 53F82220 		ldr	r2, [r3, r2, lsl #2]
 2117 030c 97F90730 		ldrsb	r3, [r7, #7]
 2118 0310 9A42     		cmp	r2, r3
 2119 0312 2ED1     		bne	.L145
 357:.\main.c      ****             Horizontal[f] = L-n;
 2120              		.loc 1 357 0
 2121 0314 7A7A     		ldrb	r2, [r7, #9]	@ zero_extendqisi2
 2122 0316 7979     		ldrb	r1, [r7, #5]	@ zero_extendqisi2
 2123 0318 7B7B     		ldrb	r3, [r7, #13]
 2124 031a C3EB0103 		rsb	r3, r3, r1
 2125 031e D9B2     		uxtb	r1, r3
 2126 0320 40F20003 		movw	r3, #:lower16:Horizontal
 2127 0324 C0F20003 		movt	r3, #:upper16:Horizontal
 2128 0328 9954     		strb	r1, [r3, r2]
 358:.\main.c      ****             Vertical[f] = S+n; 
 2129              		.loc 1 358 0
 2130 032a 7A7A     		ldrb	r2, [r7, #9]	@ zero_extendqisi2
 2131 032c B979     		ldrb	r1, [r7, #6]	@ zero_extendqisi2
 2132 032e 7B7B     		ldrb	r3, [r7, #13]
 2133 0330 0B44     		add	r3, r1, r3
 2134 0332 D9B2     		uxtb	r1, r3
 2135 0334 40F20003 		movw	r3, #:lower16:Vertical
 2136 0338 C0F20003 		movt	r3, #:upper16:Vertical
 2137 033c 9954     		strb	r1, [r3, r2]
 359:.\main.c      ****             f++;
 2138              		.loc 1 359 0
 2139 033e 7B7A     		ldrb	r3, [r7, #9]
 2140 0340 03F10103 		add	r3, r3, #1
 2141 0344 7B72     		strb	r3, [r7, #9]
 360:.\main.c      ****             d2++;
 2142              		.loc 1 360 0
 2143 0346 FB7B     		ldrb	r3, [r7, #15]
ARM GAS  C:\Users\yguan5\AppData\Local\Temp\ccf0bccD.s 			page 45


 2144 0348 03F10103 		add	r3, r3, #1
 2145 034c FB73     		strb	r3, [r7, #15]
 361:.\main.c      ****         }else{
 362:.\main.c      ****             break;
 363:.\main.c      ****         }
 364:.\main.c      ****         n++;
 2146              		.loc 1 364 0
 2147 034e 7B7B     		ldrb	r3, [r7, #13]
 2148 0350 03F10103 		add	r3, r3, #1
 2149 0354 7B73     		strb	r3, [r7, #13]
 2150              	.L133:
 2151              		.loc 1 355 0
 2152 0356 97F90620 		ldrsb	r2, [r7, #6]
 2153 035a 7B7B     		ldrb	r3, [r7, #13]	@ zero_extendqisi2
 2154 035c 1344     		add	r3, r2, r3
 2155 035e 062B     		cmp	r3, #6
 2156 0360 08DC     		bgt	.L135
 2157 0362 97F90520 		ldrsb	r2, [r7, #5]
 2158 0366 7B7B     		ldrb	r3, [r7, #13]	@ zero_extendqisi2
 2159 0368 C3EB0203 		rsb	r3, r3, r2
 2160 036c 002B     		cmp	r3, #0
 2161 036e BADA     		bge	.L136
 2162 0370 00E0     		b	.L135
 2163              	.L145:
 2164              		.loc 1 362 0
 2165 0372 00BF     		nop
 2166              	.L135:
 365:.\main.c      ****     }
 366:.\main.c      ****     n=1;
 2167              		.loc 1 366 0
 2168 0374 4FF00103 		mov	r3, #1
 2169 0378 7B73     		strb	r3, [r7, #13]
 367:.\main.c      ****     while(((S-n)>=0) && ((L+n)<8)){
 2170              		.loc 1 367 0
 2171 037a 36E0     		b	.L137
 2172              	.L140:
 368:.\main.c      ****         if(arrayLED[S-n][L+n] == color){
 2173              		.loc 1 368 0
 2174 037c 97F90620 		ldrsb	r2, [r7, #6]
 2175 0380 7B7B     		ldrb	r3, [r7, #13]	@ zero_extendqisi2
 2176 0382 C3EB0201 		rsb	r1, r3, r2
 2177 0386 97F90520 		ldrsb	r2, [r7, #5]
 2178 038a 7B7B     		ldrb	r3, [r7, #13]	@ zero_extendqisi2
 2179 038c 1A44     		add	r2, r2, r3
 2180 038e 40F20003 		movw	r3, #:lower16:arrayLED
 2181 0392 C0F20003 		movt	r3, #:upper16:arrayLED
 2182 0396 4FEAC101 		lsl	r1, r1, #3
 2183 039a 0A44     		add	r2, r1, r2
 2184 039c 53F82220 		ldr	r2, [r3, r2, lsl #2]
 2185 03a0 97F90730 		ldrsb	r3, [r7, #7]
 2186 03a4 9A42     		cmp	r2, r3
 2187 03a6 2ED1     		bne	.L146
 369:.\main.c      ****             Horizontal[f] = L+n;
 2188              		.loc 1 369 0
 2189 03a8 7A7A     		ldrb	r2, [r7, #9]	@ zero_extendqisi2
 2190 03aa 7979     		ldrb	r1, [r7, #5]	@ zero_extendqisi2
 2191 03ac 7B7B     		ldrb	r3, [r7, #13]
ARM GAS  C:\Users\yguan5\AppData\Local\Temp\ccf0bccD.s 			page 46


 2192 03ae 0B44     		add	r3, r1, r3
 2193 03b0 D9B2     		uxtb	r1, r3
 2194 03b2 40F20003 		movw	r3, #:lower16:Horizontal
 2195 03b6 C0F20003 		movt	r3, #:upper16:Horizontal
 2196 03ba 9954     		strb	r1, [r3, r2]
 370:.\main.c      ****             Vertical[f] = S-n; 
 2197              		.loc 1 370 0
 2198 03bc 7A7A     		ldrb	r2, [r7, #9]	@ zero_extendqisi2
 2199 03be B979     		ldrb	r1, [r7, #6]	@ zero_extendqisi2
 2200 03c0 7B7B     		ldrb	r3, [r7, #13]
 2201 03c2 C3EB0103 		rsb	r3, r3, r1
 2202 03c6 D9B2     		uxtb	r1, r3
 2203 03c8 40F20003 		movw	r3, #:lower16:Vertical
 2204 03cc C0F20003 		movt	r3, #:upper16:Vertical
 2205 03d0 9954     		strb	r1, [r3, r2]
 371:.\main.c      ****             f++;        
 2206              		.loc 1 371 0
 2207 03d2 7B7A     		ldrb	r3, [r7, #9]
 2208 03d4 03F10103 		add	r3, r3, #1
 2209 03d8 7B72     		strb	r3, [r7, #9]
 372:.\main.c      ****             d2++;
 2210              		.loc 1 372 0
 2211 03da FB7B     		ldrb	r3, [r7, #15]
 2212 03dc 03F10103 		add	r3, r3, #1
 2213 03e0 FB73     		strb	r3, [r7, #15]
 373:.\main.c      ****         }else{
 374:.\main.c      ****             break;
 375:.\main.c      ****         }
 376:.\main.c      ****         n++;
 2214              		.loc 1 376 0
 2215 03e2 7B7B     		ldrb	r3, [r7, #13]
 2216 03e4 03F10103 		add	r3, r3, #1
 2217 03e8 7B73     		strb	r3, [r7, #13]
 2218              	.L137:
 2219              		.loc 1 367 0
 2220 03ea 97F90620 		ldrsb	r2, [r7, #6]
 2221 03ee 7B7B     		ldrb	r3, [r7, #13]	@ zero_extendqisi2
 2222 03f0 C3EB0203 		rsb	r3, r3, r2
 2223 03f4 002B     		cmp	r3, #0
 2224 03f6 07DB     		blt	.L139
 2225 03f8 97F90520 		ldrsb	r2, [r7, #5]
 2226 03fc 7B7B     		ldrb	r3, [r7, #13]	@ zero_extendqisi2
 2227 03fe 1344     		add	r3, r2, r3
 2228 0400 072B     		cmp	r3, #7
 2229 0402 BBDD     		ble	.L140
 2230 0404 00E0     		b	.L139
 2231              	.L146:
 2232              		.loc 1 374 0
 2233 0406 00BF     		nop
 2234              	.L139:
 377:.\main.c      ****     }
 378:.\main.c      ****     if(d2>=4){
 2235              		.loc 1 378 0
 2236 0408 FB7B     		ldrb	r3, [r7, #15]	@ zero_extendqisi2
 2237 040a 032B     		cmp	r3, #3
 2238 040c 08D9     		bls	.L141
 379:.\main.c      ****         Winner = color;    
ARM GAS  C:\Users\yguan5\AppData\Local\Temp\ccf0bccD.s 			page 47


 2239              		.loc 1 379 0
 2240 040e FA79     		ldrb	r2, [r7, #7]	@ zero_extendqisi2
 2241 0410 40F20003 		movw	r3, #:lower16:Winner
 2242 0414 C0F20003 		movt	r3, #:upper16:Winner
 2243 0418 1A70     		strb	r2, [r3, #0]
 380:.\main.c      ****         return 1;
 2244              		.loc 1 380 0
 2245 041a 4FF00103 		mov	r3, #1
 2246 041e 01E0     		b	.L117
 2247              	.L141:
 381:.\main.c      ****     }
 382:.\main.c      ****     return 0;
 2248              		.loc 1 382 0
 2249 0420 4FF00003 		mov	r3, #0
 2250              	.L117:
 383:.\main.c      **** }
 2251              		.loc 1 383 0
 2252 0424 1846     		mov	r0, r3
 2253 0426 07F11407 		add	r7, r7, #20
 2254 042a BD46     		mov	sp, r7
 2255 042c 80BC     		pop	{r7}
 2256 042e 7047     		bx	lr
 2257              		.cfi_endproc
 2258              	.LFE43:
 2259              		.size	checkVictory, .-checkVictory
 2260              		.section	.text.happyFace,"ax",%progbits
 2261              		.align	2
 2262              		.global	happyFace
 2263              		.thumb
 2264              		.thumb_func
 2265              		.type	happyFace, %function
 2266              	happyFace:
 2267              	.LFB44:
 384:.\main.c      **** 
 385:.\main.c      **** /*set up happy face on greeting page*/
 386:.\main.c      **** void happyFace(){
 2268              		.loc 1 386 0
 2269              		.cfi_startproc
 2270              		@ args = 0, pretend = 0, frame = 0
 2271              		@ frame_needed = 1, uses_anonymous_args = 0
 2272 0000 80B5     		push	{r7, lr}
 2273              	.LCFI40:
 2274              		.cfi_def_cfa_offset 8
 2275 0002 00AF     		add	r7, sp, #0
 2276              		.cfi_offset 14, -4
 2277              		.cfi_offset 7, -8
 2278              	.LCFI41:
 2279              		.cfi_def_cfa_register 7
 387:.\main.c      ****     settingPin(Red, 5, 2);
 2280              		.loc 1 387 0
 2281 0004 4FF00200 		mov	r0, #2
 2282 0008 4FF00501 		mov	r1, #5
 2283 000c 4FF00202 		mov	r2, #2
 2284 0010 FFF7FEFF 		bl	settingPin
 388:.\main.c      ****     settingPin(Red, 5, 3);
 2285              		.loc 1 388 0
 2286 0014 4FF00200 		mov	r0, #2
ARM GAS  C:\Users\yguan5\AppData\Local\Temp\ccf0bccD.s 			page 48


 2287 0018 4FF00501 		mov	r1, #5
 2288 001c 4FF00302 		mov	r2, #3
 2289 0020 FFF7FEFF 		bl	settingPin
 389:.\main.c      ****     settingPin(Red, 5, 6);
 2290              		.loc 1 389 0
 2291 0024 4FF00200 		mov	r0, #2
 2292 0028 4FF00501 		mov	r1, #5
 2293 002c 4FF00602 		mov	r2, #6
 2294 0030 FFF7FEFF 		bl	settingPin
 390:.\main.c      ****     settingPin(Red, 5, 7);
 2295              		.loc 1 390 0
 2296 0034 4FF00200 		mov	r0, #2
 2297 0038 4FF00501 		mov	r1, #5
 2298 003c 4FF00702 		mov	r2, #7
 2299 0040 FFF7FEFF 		bl	settingPin
 391:.\main.c      ****     settingPin(Red, 6, 2);
 2300              		.loc 1 391 0
 2301 0044 4FF00200 		mov	r0, #2
 2302 0048 4FF00601 		mov	r1, #6
 2303 004c 4FF00202 		mov	r2, #2
 2304 0050 FFF7FEFF 		bl	settingPin
 392:.\main.c      ****     settingPin(Red, 6, 3);
 2305              		.loc 1 392 0
 2306 0054 4FF00200 		mov	r0, #2
 2307 0058 4FF00601 		mov	r1, #6
 2308 005c 4FF00302 		mov	r2, #3
 2309 0060 FFF7FEFF 		bl	settingPin
 393:.\main.c      ****     settingPin(Red, 6, 6);
 2310              		.loc 1 393 0
 2311 0064 4FF00200 		mov	r0, #2
 2312 0068 4FF00601 		mov	r1, #6
 2313 006c 4FF00602 		mov	r2, #6
 2314 0070 FFF7FEFF 		bl	settingPin
 394:.\main.c      ****     settingPin(Red, 6, 7);
 2315              		.loc 1 394 0
 2316 0074 4FF00200 		mov	r0, #2
 2317 0078 4FF00601 		mov	r1, #6
 2318 007c 4FF00702 		mov	r2, #7
 2319 0080 FFF7FEFF 		bl	settingPin
 395:.\main.c      ****     settingPin(Red, 7, 2);
 2320              		.loc 1 395 0
 2321 0084 4FF00200 		mov	r0, #2
 2322 0088 4FF00701 		mov	r1, #7
 2323 008c 4FF00202 		mov	r2, #2
 2324 0090 FFF7FEFF 		bl	settingPin
 396:.\main.c      ****     settingPin(Red, 7, 3);
 2325              		.loc 1 396 0
 2326 0094 4FF00200 		mov	r0, #2
 2327 0098 4FF00701 		mov	r1, #7
 2328 009c 4FF00302 		mov	r2, #3
 2329 00a0 FFF7FEFF 		bl	settingPin
 397:.\main.c      ****     settingPin(Red, 7, 6);
 2330              		.loc 1 397 0
 2331 00a4 4FF00200 		mov	r0, #2
 2332 00a8 4FF00701 		mov	r1, #7
 2333 00ac 4FF00602 		mov	r2, #6
 2334 00b0 FFF7FEFF 		bl	settingPin
ARM GAS  C:\Users\yguan5\AppData\Local\Temp\ccf0bccD.s 			page 49


 398:.\main.c      ****     settingPin(Red, 7, 7);
 2335              		.loc 1 398 0
 2336 00b4 4FF00200 		mov	r0, #2
 2337 00b8 4FF00701 		mov	r1, #7
 2338 00bc 4FF00702 		mov	r2, #7
 2339 00c0 FFF7FEFF 		bl	settingPin
 399:.\main.c      ****     settingPin(Blue, 3, 2);
 2340              		.loc 1 399 0
 2341 00c4 4FF00100 		mov	r0, #1
 2342 00c8 4FF00301 		mov	r1, #3
 2343 00cc 4FF00202 		mov	r2, #2
 2344 00d0 FFF7FEFF 		bl	settingPin
 400:.\main.c      ****     settingPin(Blue, 3, 7);
 2345              		.loc 1 400 0
 2346 00d4 4FF00100 		mov	r0, #1
 2347 00d8 4FF00301 		mov	r1, #3
 2348 00dc 4FF00702 		mov	r2, #7
 2349 00e0 FFF7FEFF 		bl	settingPin
 401:.\main.c      ****     settingPin(Blue, 2, 6);
 2350              		.loc 1 401 0
 2351 00e4 4FF00100 		mov	r0, #1
 2352 00e8 4FF00201 		mov	r1, #2
 2353 00ec 4FF00602 		mov	r2, #6
 2354 00f0 FFF7FEFF 		bl	settingPin
 402:.\main.c      ****     settingPin(Blue, 2, 5);
 2355              		.loc 1 402 0
 2356 00f4 4FF00100 		mov	r0, #1
 2357 00f8 4FF00201 		mov	r1, #2
 2358 00fc 4FF00502 		mov	r2, #5
 2359 0100 FFF7FEFF 		bl	settingPin
 403:.\main.c      ****     settingPin(Blue, 2, 4);
 2360              		.loc 1 403 0
 2361 0104 4FF00100 		mov	r0, #1
 2362 0108 4FF00201 		mov	r1, #2
 2363 010c 4FF00402 		mov	r2, #4
 2364 0110 FFF7FEFF 		bl	settingPin
 404:.\main.c      ****     settingPin(Blue, 2, 3);    
 2365              		.loc 1 404 0
 2366 0114 4FF00100 		mov	r0, #1
 2367 0118 4FF00201 		mov	r1, #2
 2368 011c 4FF00302 		mov	r2, #3
 2369 0120 FFF7FEFF 		bl	settingPin
 405:.\main.c      **** }
 2370              		.loc 1 405 0
 2371 0124 80BD     		pop	{r7, pc}
 2372              		.cfi_endproc
 2373              	.LFE44:
 2374              		.size	happyFace, .-happyFace
 2375 0126 00BF     		.section	.text.st,"ax",%progbits
 2376              		.align	2
 2377              		.global	st
 2378              		.thumb
 2379              		.thumb_func
 2380              		.type	st, %function
 2381              	st:
 2382              	.LFB45:
 406:.\main.c      **** 
ARM GAS  C:\Users\yguan5\AppData\Local\Temp\ccf0bccD.s 			page 50


 407:.\main.c      **** 
 408:.\main.c      **** CY_ISR(st) 
 409:.\main.c      **** {
 2383              		.loc 1 409 0
 2384              		.cfi_startproc
 2385              		@ args = 0, pretend = 0, frame = 0
 2386              		@ frame_needed = 1, uses_anonymous_args = 0
 2387 0000 80B5     		push	{r7, lr}
 2388              	.LCFI42:
 2389              		.cfi_def_cfa_offset 8
 2390 0002 00AF     		add	r7, sp, #0
 2391              		.cfi_offset 14, -4
 2392              		.cfi_offset 7, -8
 2393              	.LCFI43:
 2394              		.cfi_def_cfa_register 7
 410:.\main.c      ****     UART_PutArray(Senting, 13);
 2395              		.loc 1 410 0
 2396 0004 40F20000 		movw	r0, #:lower16:Senting
 2397 0008 C0F20000 		movt	r0, #:upper16:Senting
 2398 000c 4FF00D01 		mov	r1, #13
 2399 0010 FFF7FEFF 		bl	UART_PutArray
 411:.\main.c      ****     Timer_Sent_ReadStatusRegister(); 
 2400              		.loc 1 411 0
 2401 0014 FFF7FEFF 		bl	Timer_Sent_ReadStatusRegister
 412:.\main.c      **** }
 2402              		.loc 1 412 0
 2403 0018 80BD     		pop	{r7, pc}
 2404              		.cfi_endproc
 2405              	.LFE45:
 2406              		.size	st, .-st
 2407 001a 00BF     		.section	.rodata
 2408              		.align	2
 2409              	.LC0:
 2410 0000 2B2B2B00 		.ascii	"+++\000"
 2411              		.align	2
 2412              	.LC1:
 2413 0004 41544150 		.ascii	"ATAP1\015\000"
 2413      310D00
 2414 000b 00       		.align	2
 2415              	.LC2:
 2416 000c 41544348 		.ascii	"ATCH F\015\000"
 2416      20460D00 
 2417              		.align	2
 2418              	.LC3:
 2419 0014 41545752 		.ascii	"ATWR\015\000"
 2419      0D00
 2420 001a 0000     		.align	2
 2421              	.LC4:
 2422 001c 4154434E 		.ascii	"ATCN\015\000"
 2422      0D00
 2423 0022 0000     		.align	2
 2424              	.LC5:
 2425 0024 4C656674 		.ascii	"Left: I am 1st\000"
 2425      3A204920 
 2425      616D2031 
 2425      737400
 2426 0033 00       		.align	2
ARM GAS  C:\Users\yguan5\AppData\Local\Temp\ccf0bccD.s 			page 51


 2427              	.LC6:
 2428 0034 52696768 		.ascii	"Right: I am 2nd\000"
 2428      743A2049 
 2428      20616D20 
 2428      326E6400 
 2429              		.align	2
 2430              	.LC7:
 2431 0044 506F7369 		.ascii	"Position:\000"
 2431      74696F6E 
 2431      3A00
 2432 004e 0000     		.align	2
 2433              	.LC8:
 2434 0050 5475726E 		.ascii	"Turn: Red\000"
 2434      3A205265 
 2434      6400
 2435 005a 0000     		.align	2
 2436              	.LC9:
 2437 005c 57616974 		.ascii	"Waiting...\000"
 2437      696E672E 
 2437      2E2E00
 2438 0067 00       		.section	.text.main,"ax",%progbits
 2439              		.align	2
 2440              		.global	main
 2441              		.thumb
 2442              		.thumb_func
 2443              		.type	main, %function
 2444              	main:
 2445              	.LFB46:
 413:.\main.c      **** 
 414:.\main.c      **** void main()
 415:.\main.c      **** {
 2446              		.loc 1 415 0
 2447              		.cfi_startproc
 2448              		@ args = 0, pretend = 0, frame = 8
 2449              		@ frame_needed = 1, uses_anonymous_args = 0
 2450 0000 80B5     		push	{r7, lr}
 2451              	.LCFI44:
 2452              		.cfi_def_cfa_offset 8
 2453 0002 82B0     		sub	sp, sp, #8
 2454              	.LCFI45:
 2455              		.cfi_def_cfa_offset 16
 2456 0004 00AF     		add	r7, sp, #0
 2457              		.cfi_offset 14, -4
 2458              		.cfi_offset 7, -8
 2459              	.LCFI46:
 2460              		.cfi_def_cfa_register 7
 416:.\main.c      ****     /*initialization/startup code here*/
 417:.\main.c      ****     uint8 y;
 418:.\main.c      ****     resetArray();
 2461              		.loc 1 418 0
 2462 0006 FFF7FEFF 		bl	resetArray
 419:.\main.c      ****     CapSense_CSD_Start();
 2463              		.loc 1 419 0
 2464 000a FFF7FEFF 		bl	CapSense_CSD_Start
 420:.\main.c      ****     LCD_Start();
 2465              		.loc 1 420 0
 2466 000e FFF7FEFF 		bl	LCD_Start
ARM GAS  C:\Users\yguan5\AppData\Local\Temp\ccf0bccD.s 			page 52


 421:.\main.c      ****     UART_Start();
 2467              		.loc 1 421 0
 2468 0012 FFF7FEFF 		bl	UART_Start
 422:.\main.c      ****     
 423:.\main.c      ****     /*set up the isr*/
 424:.\main.c      ****     CYGlobalIntDisable; 
 2469              		.loc 1 424 0
 2470              	@ 424 ".\main.c" 1
 2471 0016 72B6     		CPSID   i
 2472              	@ 0 "" 2
 425:.\main.c      ****     isr_sleep_Start(); 
 2473              		.loc 1 425 0
 2474              		.thumb
 2475 0018 FFF7FEFF 		bl	isr_sleep_Start
 426:.\main.c      ****     isr_sleep_SetVector(sleep);
 2476              		.loc 1 426 0
 2477 001c 40F20000 		movw	r0, #:lower16:sleep
 2478 0020 C0F20000 		movt	r0, #:upper16:sleep
 2479 0024 FFF7FEFF 		bl	isr_sleep_SetVector
 427:.\main.c      ****     isr_flash_Start(); 
 2480              		.loc 1 427 0
 2481 0028 FFF7FEFF 		bl	isr_flash_Start
 428:.\main.c      ****     isr_flash_SetVector(fl); 
 2482              		.loc 1 428 0
 2483 002c 40F20000 		movw	r0, #:lower16:fl
 2484 0030 C0F20000 		movt	r0, #:upper16:fl
 2485 0034 FFF7FEFF 		bl	isr_flash_SetVector
 429:.\main.c      ****     isr_Sent_Start(); 
 2486              		.loc 1 429 0
 2487 0038 FFF7FEFF 		bl	isr_Sent_Start
 430:.\main.c      ****     isr_Sent_SetVector(st);
 2488              		.loc 1 430 0
 2489 003c 40F20000 		movw	r0, #:lower16:st
 2490 0040 C0F20000 		movt	r0, #:upper16:st
 2491 0044 FFF7FEFF 		bl	isr_Sent_SetVector
 431:.\main.c      ****     CYGlobalIntEnable;
 2492              		.loc 1 431 0
 2493              	@ 431 ".\main.c" 1
 2494 0048 62B6     		CPSIE   i
 2495              	@ 0 "" 2
 432:.\main.c      ****     
 433:.\main.c      ****     /* Initialize baselines */ 
 434:.\main.c      ****     CapSense_CSD_InitializeAllBaselines();
 2496              		.loc 1 434 0
 2497              		.thumb
 2498 004a FFF7FEFF 		bl	CapSense_CSD_InitializeAllBaselines
 435:.\main.c      ****     /*set the clear and output signal for transistor*/
 436:.\main.c      ****     OE_Write(0);
 2499              		.loc 1 436 0
 2500 004e 4FF00000 		mov	r0, #0
 2501 0052 FFF7FEFF 		bl	OE_Write
 437:.\main.c      ****     SRCLR_Write(1);
 2502              		.loc 1 437 0
 2503 0056 4FF00100 		mov	r0, #1
 2504 005a FFF7FEFF 		bl	SRCLR_Write
 438:.\main.c      ****     
 439:.\main.c      ****     /*initialize array for xbee*/
ARM GAS  C:\Users\yguan5\AppData\Local\Temp\ccf0bccD.s 			page 53


 440:.\main.c      ****     for(y=0; y<13; y++){
 2505              		.loc 1 440 0
 2506 005e 4FF00003 		mov	r3, #0
 2507 0062 FB71     		strb	r3, [r7, #7]
 2508 0064 13E0     		b	.L152
 2509              	.L153:
 441:.\main.c      ****         Received[y]=0;
 2510              		.loc 1 441 0
 2511 0066 FA79     		ldrb	r2, [r7, #7]	@ zero_extendqisi2
 2512 0068 40F20003 		movw	r3, #:lower16:Received
 2513 006c C0F20003 		movt	r3, #:upper16:Received
 2514 0070 4FF00001 		mov	r1, #0
 2515 0074 9954     		strb	r1, [r3, r2]
 442:.\main.c      ****         Senting[y] = 0;
 2516              		.loc 1 442 0
 2517 0076 FA79     		ldrb	r2, [r7, #7]	@ zero_extendqisi2
 2518 0078 40F20003 		movw	r3, #:lower16:Senting
 2519 007c C0F20003 		movt	r3, #:upper16:Senting
 2520 0080 4FF00001 		mov	r1, #0
 2521 0084 9954     		strb	r1, [r3, r2]
 2522              		.loc 1 440 0
 2523 0086 FB79     		ldrb	r3, [r7, #7]
 2524 0088 03F10103 		add	r3, r3, #1
 2525 008c FB71     		strb	r3, [r7, #7]
 2526              	.L152:
 2527 008e FB79     		ldrb	r3, [r7, #7]	@ zero_extendqisi2
 2528 0090 0C2B     		cmp	r3, #12
 2529 0092 E8D9     		bls	.L153
 443:.\main.c      ****     }
 444:.\main.c      ****     
 445:.\main.c      ****     /*set up xbee*/
 446:.\main.c      ****     CyDelay(3000);
 2530              		.loc 1 446 0
 2531 0094 40F6B830 		movw	r0, #3000
 2532 0098 FFF7FEFF 		bl	CyDelay
 447:.\main.c      ****     UART_PutString("+++");
 2533              		.loc 1 447 0
 2534 009c 40F20000 		movw	r0, #:lower16:.LC0
 2535 00a0 C0F20000 		movt	r0, #:upper16:.LC0
 2536 00a4 FFF7FEFF 		bl	UART_PutString
 448:.\main.c      ****     CyDelay(2000);
 2537              		.loc 1 448 0
 2538 00a8 4FF4FA60 		mov	r0, #2000
 2539 00ac FFF7FEFF 		bl	CyDelay
 449:.\main.c      ****     UART_PutString("ATAP1\r");
 2540              		.loc 1 449 0
 2541 00b0 40F20000 		movw	r0, #:lower16:.LC1
 2542 00b4 C0F20000 		movt	r0, #:upper16:.LC1
 2543 00b8 FFF7FEFF 		bl	UART_PutString
 450:.\main.c      ****     UART_PutString("ATCH F\r");    
 2544              		.loc 1 450 0
 2545 00bc 40F20000 		movw	r0, #:lower16:.LC2
 2546 00c0 C0F20000 		movt	r0, #:upper16:.LC2
 2547 00c4 FFF7FEFF 		bl	UART_PutString
 451:.\main.c      ****     UART_PutString("ATWR\r");
 2548              		.loc 1 451 0
 2549 00c8 40F20000 		movw	r0, #:lower16:.LC3
ARM GAS  C:\Users\yguan5\AppData\Local\Temp\ccf0bccD.s 			page 54


 2550 00cc C0F20000 		movt	r0, #:upper16:.LC3
 2551 00d0 FFF7FEFF 		bl	UART_PutString
 452:.\main.c      ****     UART_PutString("ATCN\r");
 2552              		.loc 1 452 0
 2553 00d4 40F20000 		movw	r0, #:lower16:.LC4
 2554 00d8 C0F20000 		movt	r0, #:upper16:.LC4
 2555 00dc FFF7FEFF 		bl	UART_PutString
 453:.\main.c      ****     
 454:.\main.c      ****     /*Print choice of starting order*/
 455:.\main.c      ****     LCD_Position(0,0);
 2556              		.loc 1 455 0
 2557 00e0 4FF00000 		mov	r0, #0
 2558 00e4 4FF00001 		mov	r1, #0
 2559 00e8 FFF7FEFF 		bl	LCD_Position
 456:.\main.c      ****     LCD_PrintString("Left: I am 1st");
 2560              		.loc 1 456 0
 2561 00ec 40F20000 		movw	r0, #:lower16:.LC5
 2562 00f0 C0F20000 		movt	r0, #:upper16:.LC5
 2563 00f4 FFF7FEFF 		bl	LCD_PrintString
 457:.\main.c      ****     LCD_Position(1,0);
 2564              		.loc 1 457 0
 2565 00f8 4FF00100 		mov	r0, #1
 2566 00fc 4FF00001 		mov	r1, #0
 2567 0100 FFF7FEFF 		bl	LCD_Position
 458:.\main.c      ****     LCD_PrintString("Right: I am 2nd");
 2568              		.loc 1 458 0
 2569 0104 40F20000 		movw	r0, #:lower16:.LC6
 2570 0108 C0F20000 		movt	r0, #:upper16:.LC6
 2571 010c FFF7FEFF 		bl	LCD_PrintString
 459:.\main.c      ****     
 460:.\main.c      ****             Timer_Sent_Start();
 2572              		.loc 1 460 0
 2573 0110 FFF7FEFF 		bl	Timer_Sent_Start
 461:.\main.c      ****     /*program*/
 462:.\main.c      ****     for(;;)
 463:.\main.c      ****     {
 464:.\main.c      ****         /*greeting page*/
 465:.\main.c      ****         while(home == 1){
 2574              		.loc 1 465 0
 2575 0114 45E0     		b	.L154
 2576              	.L159:
 466:.\main.c      ****             CapSense_CSD_UpdateEnabledBaselines();
 2577              		.loc 1 466 0
 2578 0116 FFF7FEFF 		bl	CapSense_CSD_UpdateEnabledBaselines
 467:.\main.c      ****     	    CapSense_CSD_ScanEnabledWidgets();
 2579              		.loc 1 467 0
 2580 011a FFF7FEFF 		bl	CapSense_CSD_ScanEnabledWidgets
 468:.\main.c      ****             happyFace();
 2581              		.loc 1 468 0
 2582 011e FFF7FEFF 		bl	happyFace
 469:.\main.c      ****             while(CapSense_CSD_IsBusy() != 0){
 2583              		.loc 1 469 0
 2584 0122 01E0     		b	.L155
 2585              	.L156:
 470:.\main.c      ****                 Control_Ring();
 2586              		.loc 1 470 0
 2587 0124 FFF7FEFF 		bl	Control_Ring
ARM GAS  C:\Users\yguan5\AppData\Local\Temp\ccf0bccD.s 			page 55


 2588              	.L155:
 2589              		.loc 1 469 0
 2590 0128 FFF7FEFF 		bl	CapSense_CSD_IsBusy
 2591 012c 0346     		mov	r3, r0
 2592 012e 002B     		cmp	r3, #0
 2593 0130 F8D1     		bne	.L156
 471:.\main.c      ****             }
 472:.\main.c      ****             if (CapSense_CSD_CheckIsWidgetActive(CapSense_CSD_BUTTON0__BTN)){ 
 2594              		.loc 1 472 0
 2595 0132 4FF00100 		mov	r0, #1
 2596 0136 FFF7FEFF 		bl	CapSense_CSD_CheckIsWidgetActive
 2597 013a 0346     		mov	r3, r0
 2598 013c 002B     		cmp	r3, #0
 2599 013e 13D0     		beq	.L157
 473:.\main.c      ****                 playerTurn = 1;
 2600              		.loc 1 473 0
 2601 0140 40F20003 		movw	r3, #:lower16:playerTurn
 2602 0144 C0F20003 		movt	r3, #:upper16:playerTurn
 2603 0148 4FF00102 		mov	r2, #1
 2604 014c 1A70     		strb	r2, [r3, #0]
 474:.\main.c      ****                 home = 0;
 2605              		.loc 1 474 0
 2606 014e 40F20003 		movw	r3, #:lower16:home
 2607 0152 C0F20003 		movt	r3, #:upper16:home
 2608 0156 4FF00002 		mov	r2, #0
 2609 015a 1A70     		strb	r2, [r3, #0]
 475:.\main.c      ****                 resetArray();
 2610              		.loc 1 475 0
 2611 015c FFF7FEFF 		bl	resetArray
 476:.\main.c      ****                 CyDelay(500);
 2612              		.loc 1 476 0
 2613 0160 4FF4FA70 		mov	r0, #500
 2614 0164 FFF7FEFF 		bl	CyDelay
 2615              	.L157:
 477:.\main.c      ****             }
 478:.\main.c      ****             if (CapSense_CSD_CheckIsWidgetActive(CapSense_CSD_BUTTON1__BTN)){
 2616              		.loc 1 478 0
 2617 0168 4FF00200 		mov	r0, #2
 2618 016c FFF7FEFF 		bl	CapSense_CSD_CheckIsWidgetActive
 2619 0170 0346     		mov	r3, r0
 2620 0172 002B     		cmp	r3, #0
 2621 0174 13D0     		beq	.L158
 479:.\main.c      ****                 playerTurn = 2;
 2622              		.loc 1 479 0
 2623 0176 40F20003 		movw	r3, #:lower16:playerTurn
 2624 017a C0F20003 		movt	r3, #:upper16:playerTurn
 2625 017e 4FF00202 		mov	r2, #2
 2626 0182 1A70     		strb	r2, [r3, #0]
 480:.\main.c      ****                 home = 0;
 2627              		.loc 1 480 0
 2628 0184 40F20003 		movw	r3, #:lower16:home
 2629 0188 C0F20003 		movt	r3, #:upper16:home
 2630 018c 4FF00002 		mov	r2, #0
 2631 0190 1A70     		strb	r2, [r3, #0]
 481:.\main.c      ****                 resetArray();
 2632              		.loc 1 481 0
 2633 0192 FFF7FEFF 		bl	resetArray
ARM GAS  C:\Users\yguan5\AppData\Local\Temp\ccf0bccD.s 			page 56


 482:.\main.c      ****                 CyDelay(500);
 2634              		.loc 1 482 0
 2635 0196 4FF4FA70 		mov	r0, #500
 2636 019a FFF7FEFF 		bl	CyDelay
 2637              	.L158:
 483:.\main.c      ****             }
 484:.\main.c      ****             Control_Ring();
 2638              		.loc 1 484 0
 2639 019e FFF7FEFF 		bl	Control_Ring
 2640              	.L154:
 2641              		.loc 1 465 0
 2642 01a2 40F20003 		movw	r3, #:lower16:home
 2643 01a6 C0F20003 		movt	r3, #:upper16:home
 2644 01aa 1B78     		ldrb	r3, [r3, #0]	@ zero_extendqisi2
 2645 01ac 012B     		cmp	r3, #1
 2646 01ae B2D0     		beq	.L159
 485:.\main.c      ****         }
 486:.\main.c      **** 
 487:.\main.c      ****         CapSense_CSD_InitializeAllBaselines();  
 2647              		.loc 1 487 0
 2648 01b0 FFF7FEFF 		bl	CapSense_CSD_InitializeAllBaselines
 488:.\main.c      ****         
 489:.\main.c      ****         if(playerTurn == 1){
 2649              		.loc 1 489 0
 2650 01b4 40F20003 		movw	r3, #:lower16:playerTurn
 2651 01b8 C0F20003 		movt	r3, #:upper16:playerTurn
 2652 01bc 1B78     		ldrb	r3, [r3, #0]	@ zero_extendqisi2
 2653 01be 012B     		cmp	r3, #1
 2654 01c0 40F0F580 		bne	.L160
 490:.\main.c      ****             /*set the inital spot for homerow*/
 491:.\main.c      ****             ChangeHome(currentSpot);
 2655              		.loc 1 491 0
 2656 01c4 40F20003 		movw	r3, #:lower16:currentSpot
 2657 01c8 C0F20003 		movt	r3, #:upper16:currentSpot
 2658 01cc 1B78     		ldrb	r3, [r3, #0]	@ zero_extendqisi2
 2659 01ce 1846     		mov	r0, r3
 2660 01d0 FFF7FEFF 		bl	ChangeHome
 492:.\main.c      ****             Control_Ring();
 2661              		.loc 1 492 0
 2662 01d4 FFF7FEFF 		bl	Control_Ring
 493:.\main.c      ****             
 494:.\main.c      ****             /*set up printing of position on LCD*/
 495:.\main.c      ****             LCD_ClearDisplay();
 2663              		.loc 1 495 0
 2664 01d8 4FF00100 		mov	r0, #1
 2665 01dc FFF7FEFF 		bl	LCD_WriteControl
 496:.\main.c      ****             LCD_Position(0,0);
 2666              		.loc 1 496 0
 2667 01e0 4FF00000 		mov	r0, #0
 2668 01e4 4FF00001 		mov	r1, #0
 2669 01e8 FFF7FEFF 		bl	LCD_Position
 497:.\main.c      ****             LCD_PrintString("Position:");
 2670              		.loc 1 497 0
 2671 01ec 40F20000 		movw	r0, #:lower16:.LC7
 2672 01f0 C0F20000 		movt	r0, #:upper16:.LC7
 2673 01f4 FFF7FEFF 		bl	LCD_PrintString
 498:.\main.c      ****             
ARM GAS  C:\Users\yguan5\AppData\Local\Temp\ccf0bccD.s 			page 57


 499:.\main.c      ****             /*choosing where to place disc*/
 500:.\main.c      ****             while(setButton==0){
 2674              		.loc 1 500 0
 2675 01f8 53E0     		b	.L161
 2676              	.L167:
 501:.\main.c      ****                 /*update data*/
 502:.\main.c      ****                 CapSense_CSD_UpdateEnabledBaselines();
 2677              		.loc 1 502 0
 2678 01fa FFF7FEFF 		bl	CapSense_CSD_UpdateEnabledBaselines
 503:.\main.c      ****     	        CapSense_CSD_ScanEnabledWidgets();
 2679              		.loc 1 503 0
 2680 01fe FFF7FEFF 		bl	CapSense_CSD_ScanEnabledWidgets
 504:.\main.c      ****                 
 505:.\main.c      ****                 /*print current spot to LCD*/
 506:.\main.c      ****                 LCD_Position(0,9);
 2681              		.loc 1 506 0
 2682 0202 4FF00000 		mov	r0, #0
 2683 0206 4FF00901 		mov	r1, #9
 2684 020a FFF7FEFF 		bl	LCD_Position
 507:.\main.c      ****                 LCD_PrintInt8(currentSpot);
 2685              		.loc 1 507 0
 2686 020e 40F20003 		movw	r3, #:lower16:currentSpot
 2687 0212 C0F20003 		movt	r3, #:upper16:currentSpot
 2688 0216 1B78     		ldrb	r3, [r3, #0]	@ zero_extendqisi2
 2689 0218 1846     		mov	r0, r3
 2690 021a FFF7FEFF 		bl	LCD_PrintInt8
 508:.\main.c      ****                 /* Wait for scanning to complete */
 509:.\main.c      **** 		        while(CapSense_CSD_IsBusy() != 0){
 2691              		.loc 1 509 0
 2692 021e 01E0     		b	.L162
 2693              	.L163:
 510:.\main.c      ****                 Control_Ring();
 2694              		.loc 1 510 0
 2695 0220 FFF7FEFF 		bl	Control_Ring
 2696              	.L162:
 2697              		.loc 1 509 0
 2698 0224 FFF7FEFF 		bl	CapSense_CSD_IsBusy
 2699 0228 0346     		mov	r3, r0
 2700 022a 002B     		cmp	r3, #0
 2701 022c F8D1     		bne	.L163
 511:.\main.c      ****                 }
 512:.\main.c      ****             
 513:.\main.c      ****                 /*check if button pushed*/
 514:.\main.c      ****                 if (CapSense_CSD_CheckIsWidgetActive(CapSense_CSD_BUTTON0__BTN)){ 
 2702              		.loc 1 514 0
 2703 022e 4FF00100 		mov	r0, #1
 2704 0232 FFF7FEFF 		bl	CapSense_CSD_CheckIsWidgetActive
 2705 0236 0346     		mov	r3, r0
 2706 0238 002B     		cmp	r3, #0
 2707 023a 06D0     		beq	.L164
 515:.\main.c      ****                     setButton = 1;
 2708              		.loc 1 515 0
 2709 023c 40F20003 		movw	r3, #:lower16:setButton
 2710 0240 C0F20003 		movt	r3, #:upper16:setButton
 2711 0244 4FF00102 		mov	r2, #1
 2712 0248 1A70     		strb	r2, [r3, #0]
 2713              	.L164:
ARM GAS  C:\Users\yguan5\AppData\Local\Temp\ccf0bccD.s 			page 58


 516:.\main.c      ****                 }
 517:.\main.c      ****                 if (CapSense_CSD_CheckIsWidgetActive(CapSense_CSD_BUTTON1__BTN)){
 2714              		.loc 1 517 0
 2715 024a 4FF00200 		mov	r0, #2
 2716 024e FFF7FEFF 		bl	CapSense_CSD_CheckIsWidgetActive
 2717 0252 0346     		mov	r3, r0
 2718 0254 002B     		cmp	r3, #0
 2719 0256 06D0     		beq	.L165
 518:.\main.c      ****                     setButton = 1;
 2720              		.loc 1 518 0
 2721 0258 40F20003 		movw	r3, #:lower16:setButton
 2722 025c C0F20003 		movt	r3, #:upper16:setButton
 2723 0260 4FF00102 		mov	r2, #1
 2724 0264 1A70     		strb	r2, [r3, #0]
 2725              	.L165:
 519:.\main.c      ****                 }
 520:.\main.c      ****             
 521:.\main.c      ****                 /* adjust position */
 522:.\main.c      ****                 CSpot = CapSense_CSD_GetCentroidPos(CapSense_CSD_LINEARSLIDER0__LS);
 2726              		.loc 1 522 0
 2727 0266 4FF00000 		mov	r0, #0
 2728 026a FFF7FEFF 		bl	CapSense_CSD_GetCentroidPos
 2729 026e 0346     		mov	r3, r0
 2730 0270 1A46     		mov	r2, r3
 2731 0272 40F20003 		movw	r3, #:lower16:CSpot
 2732 0276 C0F20003 		movt	r3, #:upper16:CSpot
 2733 027a 1A80     		strh	r2, [r3, #0]	@ movhi
 523:.\main.c      ****             
 524:.\main.c      ****                 /*if not error change spot*/
 525:.\main.c      ****                 if(CSpot!= 0xFFFF){
 2734              		.loc 1 525 0
 2735 027c 40F20003 		movw	r3, #:lower16:CSpot
 2736 0280 C0F20003 		movt	r3, #:upper16:CSpot
 2737 0284 1A88     		ldrh	r2, [r3, #0]
 2738 0286 4FF6FF73 		movw	r3, #65535
 2739 028a 9A42     		cmp	r2, r3
 2740 028c 07D0     		beq	.L166
 526:.\main.c      ****                     selectSpot(CSpot);
 2741              		.loc 1 526 0
 2742 028e 40F20003 		movw	r3, #:lower16:CSpot
 2743 0292 C0F20003 		movt	r3, #:upper16:CSpot
 2744 0296 1B88     		ldrh	r3, [r3, #0]
 2745 0298 1846     		mov	r0, r3
 2746 029a FFF7FEFF 		bl	selectSpot
 2747              	.L166:
 527:.\main.c      ****                 }
 528:.\main.c      ****             
 529:.\main.c      ****                 Control_Ring();
 2748              		.loc 1 529 0
 2749 029e FFF7FEFF 		bl	Control_Ring
 2750              	.L161:
 2751              		.loc 1 500 0
 2752 02a2 40F20003 		movw	r3, #:lower16:setButton
 2753 02a6 C0F20003 		movt	r3, #:upper16:setButton
 2754 02aa 1B78     		ldrb	r3, [r3, #0]	@ zero_extendqisi2
 2755 02ac 002B     		cmp	r3, #0
 2756 02ae A4D0     		beq	.L167
ARM GAS  C:\Users\yguan5\AppData\Local\Temp\ccf0bccD.s 			page 59


 530:.\main.c      ****             }
 531:.\main.c      ****     
 532:.\main.c      ****             CapSense_CSD_InitializeAllBaselines();  
 2757              		.loc 1 532 0
 2758 02b0 FFF7FEFF 		bl	CapSense_CSD_InitializeAllBaselines
 533:.\main.c      ****         
 534:.\main.c      ****             /*checks what spot play selected to drop disc*/
 535:.\main.c      ****             for(y=0; y<8; y++){
 2759              		.loc 1 535 0
 2760 02b4 4FF00003 		mov	r3, #0
 2761 02b8 FB71     		strb	r3, [r7, #7]
 2762 02ba 16E0     		b	.L168
 2763              	.L170:
 536:.\main.c      ****                 if(arrayLED[7][y] != Nothing){
 2764              		.loc 1 536 0
 2765 02bc FA79     		ldrb	r2, [r7, #7]	@ zero_extendqisi2
 2766 02be 40F20003 		movw	r3, #:lower16:arrayLED
 2767 02c2 C0F20003 		movt	r3, #:upper16:arrayLED
 2768 02c6 02F13802 		add	r2, r2, #56
 2769 02ca 53F82230 		ldr	r3, [r3, r2, lsl #2]
 2770 02ce 002B     		cmp	r3, #0
 2771 02d0 05D0     		beq	.L169
 537:.\main.c      ****                     setLocation = y;
 2772              		.loc 1 537 0
 2773 02d2 40F20003 		movw	r3, #:lower16:setLocation
 2774 02d6 C0F20003 		movt	r3, #:upper16:setLocation
 2775 02da FA79     		ldrb	r2, [r7, #7]
 2776 02dc 1A70     		strb	r2, [r3, #0]
 2777              	.L169:
 538:.\main.c      ****                 }
 539:.\main.c      ****                 Control_Ring();
 2778              		.loc 1 539 0
 2779 02de FFF7FEFF 		bl	Control_Ring
 2780              		.loc 1 535 0
 2781 02e2 FB79     		ldrb	r3, [r7, #7]
 2782 02e4 03F10103 		add	r3, r3, #1
 2783 02e8 FB71     		strb	r3, [r7, #7]
 2784              	.L168:
 2785 02ea FB79     		ldrb	r3, [r7, #7]	@ zero_extendqisi2
 2786 02ec 072B     		cmp	r3, #7
 2787 02ee E5D9     		bls	.L170
 540:.\main.c      ****             }
 541:.\main.c      ****             
 542:.\main.c      **** 
 543:.\main.c      ****             /*start timer for droping th disc*/
 544:.\main.c      ****             SleepTimer_Start();
 2788              		.loc 1 544 0
 2789 02f0 FFF7FEFF 		bl	SleepTimer_Start
 545:.\main.c      ****             SleepTimer_Init();
 2790              		.loc 1 545 0
 2791 02f4 FFF7FEFF 		bl	SleepTimer_Init
 546:.\main.c      ****             
 547:.\main.c      ****             /*wait dropping the disc*/
 548:.\main.c      ****             while(setSpot == 0){
 2792              		.loc 1 548 0
 2793 02f8 01E0     		b	.L171
 2794              	.L172:
ARM GAS  C:\Users\yguan5\AppData\Local\Temp\ccf0bccD.s 			page 60


 549:.\main.c      ****                 Control_Ring();
 2795              		.loc 1 549 0
 2796 02fa FFF7FEFF 		bl	Control_Ring
 2797              	.L171:
 2798              		.loc 1 548 0
 2799 02fe 40F20003 		movw	r3, #:lower16:setSpot
 2800 0302 C0F20003 		movt	r3, #:upper16:setSpot
 2801 0306 1B78     		ldrb	r3, [r3, #0]	@ zero_extendqisi2
 2802 0308 002B     		cmp	r3, #0
 2803 030a F6D0     		beq	.L172
 550:.\main.c      ****             }
 551:.\main.c      ****             
 552:.\main.c      ****             /*stop timer so it does not interrupt when dropping*/
 553:.\main.c      ****             SleepTimer_Stop();
 2804              		.loc 1 553 0
 2805 030c FFF7FEFF 		bl	SleepTimer_Stop
 554:.\main.c      ****             
 555:.\main.c      ****             
 556:.\main.c      ****             setPacket(ID, selecting, setLocation);//Set packet ************************************
 2806              		.loc 1 556 0
 2807 0310 40F20003 		movw	r3, #:lower16:ID
 2808 0314 C0F20003 		movt	r3, #:upper16:ID
 2809 0318 1978     		ldrb	r1, [r3, #0]	@ zero_extendqisi2
 2810 031a 40F20003 		movw	r3, #:lower16:selecting
 2811 031e C0F20003 		movt	r3, #:upper16:selecting
 2812 0322 1B78     		ldrb	r3, [r3, #0]	@ zero_extendqisi2
 2813 0324 DAB2     		uxtb	r2, r3
 2814 0326 40F20003 		movw	r3, #:lower16:setLocation
 2815 032a C0F20003 		movt	r3, #:upper16:setLocation
 2816 032e 1B78     		ldrb	r3, [r3, #0]	@ zero_extendqisi2
 2817 0330 0846     		mov	r0, r1
 2818 0332 1146     		mov	r1, r2
 2819 0334 1A46     		mov	r2, r3
 2820 0336 FFF7FEFF 		bl	setPacket
 557:.\main.c      ****             
 558:.\main.c      ****             /*check if Blue won after their move*/
 559:.\main.c      ****             if(checkVictory(Blue, selecting, setLocation)){
 2821              		.loc 1 559 0
 2822 033a 40F20003 		movw	r3, #:lower16:selecting
 2823 033e C0F20003 		movt	r3, #:upper16:selecting
 2824 0342 1A78     		ldrb	r2, [r3, #0]	@ zero_extendqisi2
 2825 0344 40F20003 		movw	r3, #:lower16:setLocation
 2826 0348 C0F20003 		movt	r3, #:upper16:setLocation
 2827 034c 1B78     		ldrb	r3, [r3, #0]	@ zero_extendqisi2
 2828 034e 52B2     		sxtb	r2, r2
 2829 0350 5BB2     		sxtb	r3, r3
 2830 0352 4FF00100 		mov	r0, #1
 2831 0356 1146     		mov	r1, r2
 2832 0358 1A46     		mov	r2, r3
 2833 035a FFF7FEFF 		bl	checkVictory
 2834 035e 0346     		mov	r3, r0
 2835 0360 002B     		cmp	r3, #0
 2836 0362 1CD0     		beq	.L173
 560:.\main.c      ****                 /*start timer for interrupt flashes*/
 561:.\main.c      ****                 Timer_Start();
 2837              		.loc 1 561 0
 2838 0364 FFF7FEFF 		bl	Timer_Start
ARM GAS  C:\Users\yguan5\AppData\Local\Temp\ccf0bccD.s 			page 61


 562:.\main.c      ****                 Timer_Init();
 2839              		.loc 1 562 0
 2840 0368 FFF7FEFF 		bl	Timer_Init
 563:.\main.c      ****                 while(Flashing <10){
 2841              		.loc 1 563 0
 2842 036c 01E0     		b	.L174
 2843              	.L175:
 564:.\main.c      ****                     Control_Ring();
 2844              		.loc 1 564 0
 2845 036e FFF7FEFF 		bl	Control_Ring
 2846              	.L174:
 2847              		.loc 1 563 0
 2848 0372 40F20003 		movw	r3, #:lower16:Flashing
 2849 0376 C0F20003 		movt	r3, #:upper16:Flashing
 2850 037a 1B78     		ldrb	r3, [r3, #0]	@ zero_extendqisi2
 2851 037c 092B     		cmp	r3, #9
 2852 037e F6D9     		bls	.L175
 565:.\main.c      ****                 }
 566:.\main.c      ****                 /*stop the timer to stop flashes*/
 567:.\main.c      ****                 Timer_Stop();
 2853              		.loc 1 567 0
 2854 0380 FFF7FEFF 		bl	Timer_Stop
 568:.\main.c      ****                 CyDelay(1000);
 2855              		.loc 1 568 0
 2856 0384 4FF47A70 		mov	r0, #1000
 2857 0388 FFF7FEFF 		bl	CyDelay
 569:.\main.c      ****                 resetArray();
 2858              		.loc 1 569 0
 2859 038c FFF7FEFF 		bl	resetArray
 570:.\main.c      ****                 home = 1;
 2860              		.loc 1 570 0
 2861 0390 40F20003 		movw	r3, #:lower16:home
 2862 0394 C0F20003 		movt	r3, #:upper16:home
 2863 0398 4FF00102 		mov	r2, #1
 2864 039c 1A70     		strb	r2, [r3, #0]
 2865              	.L173:
 571:.\main.c      ****             }
 572:.\main.c      ****             
 573:.\main.c      ****             playerTurn =2;
 2866              		.loc 1 573 0
 2867 039e 40F20003 		movw	r3, #:lower16:playerTurn
 2868 03a2 C0F20003 		movt	r3, #:upper16:playerTurn
 2869 03a6 4FF00202 		mov	r2, #2
 2870 03aa 1A70     		strb	r2, [r3, #0]
 2871 03ac B0E0     		b	.L176
 2872              	.L160:
 574:.\main.c      ****         }else{
 575:.\main.c      ****             LCD_ClearDisplay();
 2873              		.loc 1 575 0
 2874 03ae 4FF00100 		mov	r0, #1
 2875 03b2 FFF7FEFF 		bl	LCD_WriteControl
 576:.\main.c      ****             LCD_Position(0,0);
 2876              		.loc 1 576 0
 2877 03b6 4FF00000 		mov	r0, #0
 2878 03ba 4FF00001 		mov	r1, #0
 2879 03be FFF7FEFF 		bl	LCD_Position
 577:.\main.c      ****             LCD_PrintString("Turn: Red");
ARM GAS  C:\Users\yguan5\AppData\Local\Temp\ccf0bccD.s 			page 62


 2880              		.loc 1 577 0
 2881 03c2 40F20000 		movw	r0, #:lower16:.LC8
 2882 03c6 C0F20000 		movt	r0, #:upper16:.LC8
 2883 03ca FFF7FEFF 		bl	LCD_PrintString
 578:.\main.c      ****             LCD_Position(1,0);
 2884              		.loc 1 578 0
 2885 03ce 4FF00100 		mov	r0, #1
 2886 03d2 4FF00001 		mov	r1, #0
 2887 03d6 FFF7FEFF 		bl	LCD_Position
 579:.\main.c      ****             LCD_PrintString("Waiting...");
 2888              		.loc 1 579 0
 2889 03da 40F20000 		movw	r0, #:lower16:.LC9
 2890 03de C0F20000 		movt	r0, #:upper16:.LC9
 2891 03e2 FFF7FEFF 		bl	LCD_PrintString
 580:.\main.c      ****             GT = 0;
 2892              		.loc 1 580 0
 2893 03e6 40F20003 		movw	r3, #:lower16:GT
 2894 03ea C0F20003 		movt	r3, #:upper16:GT
 2895 03ee 4FF00002 		mov	r2, #0
 2896 03f2 1A70     		strb	r2, [r3, #0]
 581:.\main.c      ****             while(GT == 0){
 2897              		.loc 1 581 0
 2898 03f4 23E0     		b	.L177
 2899              	.L179:
 582:.\main.c      ****                 receivePacket();
 2900              		.loc 1 582 0
 2901 03f6 FFF7FEFF 		bl	receivePacket
 583:.\main.c      ****                 if((arrayLED[Received[10]-1][Received[11]-1] != Nothing)){
 2902              		.loc 1 583 0
 2903 03fa 40F20003 		movw	r3, #:lower16:Received
 2904 03fe C0F20003 		movt	r3, #:upper16:Received
 2905 0402 9B7A     		ldrb	r3, [r3, #10]	@ zero_extendqisi2
 2906 0404 03F1FF31 		add	r1, r3, #-1
 2907 0408 40F20003 		movw	r3, #:lower16:Received
 2908 040c C0F20003 		movt	r3, #:upper16:Received
 2909 0410 DB7A     		ldrb	r3, [r3, #11]	@ zero_extendqisi2
 2910 0412 03F1FF32 		add	r2, r3, #-1
 2911 0416 40F20003 		movw	r3, #:lower16:arrayLED
 2912 041a C0F20003 		movt	r3, #:upper16:arrayLED
 2913 041e 4FEAC101 		lsl	r1, r1, #3
 2914 0422 0A44     		add	r2, r1, r2
 2915 0424 53F82230 		ldr	r3, [r3, r2, lsl #2]
 2916 0428 002B     		cmp	r3, #0
 2917 042a 06D0     		beq	.L178
 584:.\main.c      ****                     GT = 0;
 2918              		.loc 1 584 0
 2919 042c 40F20003 		movw	r3, #:lower16:GT
 2920 0430 C0F20003 		movt	r3, #:upper16:GT
 2921 0434 4FF00002 		mov	r2, #0
 2922 0438 1A70     		strb	r2, [r3, #0]
 2923              	.L178:
 585:.\main.c      ****                 }
 586:.\main.c      ****                 Control_Ring();
 2924              		.loc 1 586 0
 2925 043a FFF7FEFF 		bl	Control_Ring
 2926              	.L177:
 2927              		.loc 1 581 0
ARM GAS  C:\Users\yguan5\AppData\Local\Temp\ccf0bccD.s 			page 63


 2928 043e 40F20003 		movw	r3, #:lower16:GT
 2929 0442 C0F20003 		movt	r3, #:upper16:GT
 2930 0446 1B78     		ldrb	r3, [r3, #0]	@ zero_extendqisi2
 2931 0448 002B     		cmp	r3, #0
 2932 044a D4D0     		beq	.L179
 587:.\main.c      ****             }
 588:.\main.c      ****             setLocation = Received[11]-1;
 2933              		.loc 1 588 0
 2934 044c 40F20003 		movw	r3, #:lower16:Received
 2935 0450 C0F20003 		movt	r3, #:upper16:Received
 2936 0454 DB7A     		ldrb	r3, [r3, #11]	@ zero_extendqisi2
 2937 0456 03F1FF33 		add	r3, r3, #-1
 2938 045a DAB2     		uxtb	r2, r3
 2939 045c 40F20003 		movw	r3, #:lower16:setLocation
 2940 0460 C0F20003 		movt	r3, #:upper16:setLocation
 2941 0464 1A70     		strb	r2, [r3, #0]
 589:.\main.c      ****             settingPin(Red, 8, Received[11]); 
 2942              		.loc 1 589 0
 2943 0466 40F20003 		movw	r3, #:lower16:Received
 2944 046a C0F20003 		movt	r3, #:upper16:Received
 2945 046e DB7A     		ldrb	r3, [r3, #11]	@ zero_extendqisi2
 2946 0470 4FF00200 		mov	r0, #2
 2947 0474 4FF00801 		mov	r1, #8
 2948 0478 1A46     		mov	r2, r3
 2949 047a FFF7FEFF 		bl	settingPin
 590:.\main.c      ****             SleepTimer_Start();
 2950              		.loc 1 590 0
 2951 047e FFF7FEFF 		bl	SleepTimer_Start
 591:.\main.c      ****             SleepTimer_Init();
 2952              		.loc 1 591 0
 2953 0482 FFF7FEFF 		bl	SleepTimer_Init
 592:.\main.c      ****             
 593:.\main.c      ****             /*wait dropping the disc*/
 594:.\main.c      ****             while(setSpot == 0){
 2954              		.loc 1 594 0
 2955 0486 01E0     		b	.L180
 2956              	.L181:
 595:.\main.c      ****                 Control_Ring();
 2957              		.loc 1 595 0
 2958 0488 FFF7FEFF 		bl	Control_Ring
 2959              	.L180:
 2960              		.loc 1 594 0
 2961 048c 40F20003 		movw	r3, #:lower16:setSpot
 2962 0490 C0F20003 		movt	r3, #:upper16:setSpot
 2963 0494 1B78     		ldrb	r3, [r3, #0]	@ zero_extendqisi2
 2964 0496 002B     		cmp	r3, #0
 2965 0498 F6D0     		beq	.L181
 596:.\main.c      ****             }
 597:.\main.c      ****             
 598:.\main.c      ****             /*stop timer so it does not interrupt when dropping*/
 599:.\main.c      ****             SleepTimer_Stop();
 2966              		.loc 1 599 0
 2967 049a FFF7FEFF 		bl	SleepTimer_Stop
 600:.\main.c      ****             
 601:.\main.c      ****             if(checkVictory(Red, selecting, setLocation)){
 2968              		.loc 1 601 0
 2969 049e 40F20003 		movw	r3, #:lower16:selecting
ARM GAS  C:\Users\yguan5\AppData\Local\Temp\ccf0bccD.s 			page 64


 2970 04a2 C0F20003 		movt	r3, #:upper16:selecting
 2971 04a6 1A78     		ldrb	r2, [r3, #0]	@ zero_extendqisi2
 2972 04a8 40F20003 		movw	r3, #:lower16:setLocation
 2973 04ac C0F20003 		movt	r3, #:upper16:setLocation
 2974 04b0 1B78     		ldrb	r3, [r3, #0]	@ zero_extendqisi2
 2975 04b2 52B2     		sxtb	r2, r2
 2976 04b4 5BB2     		sxtb	r3, r3
 2977 04b6 4FF00200 		mov	r0, #2
 2978 04ba 1146     		mov	r1, r2
 2979 04bc 1A46     		mov	r2, r3
 2980 04be FFF7FEFF 		bl	checkVictory
 2981 04c2 0346     		mov	r3, r0
 2982 04c4 002B     		cmp	r3, #0
 2983 04c6 1CD0     		beq	.L182
 602:.\main.c      ****                 /*start timer for interrupt flashes*/
 603:.\main.c      ****                 Timer_Start();
 2984              		.loc 1 603 0
 2985 04c8 FFF7FEFF 		bl	Timer_Start
 604:.\main.c      ****                 Timer_Init();
 2986              		.loc 1 604 0
 2987 04cc FFF7FEFF 		bl	Timer_Init
 605:.\main.c      ****                 while(Flashing <10){
 2988              		.loc 1 605 0
 2989 04d0 01E0     		b	.L183
 2990              	.L184:
 606:.\main.c      ****                     Control_Ring();
 2991              		.loc 1 606 0
 2992 04d2 FFF7FEFF 		bl	Control_Ring
 2993              	.L183:
 2994              		.loc 1 605 0
 2995 04d6 40F20003 		movw	r3, #:lower16:Flashing
 2996 04da C0F20003 		movt	r3, #:upper16:Flashing
 2997 04de 1B78     		ldrb	r3, [r3, #0]	@ zero_extendqisi2
 2998 04e0 092B     		cmp	r3, #9
 2999 04e2 F6D9     		bls	.L184
 607:.\main.c      ****                 }
 608:.\main.c      ****                 /*stop the timer to stop flashes*/
 609:.\main.c      ****                 Timer_Stop();
 3000              		.loc 1 609 0
 3001 04e4 FFF7FEFF 		bl	Timer_Stop
 610:.\main.c      ****                 CyDelay(1000);
 3002              		.loc 1 610 0
 3003 04e8 4FF47A70 		mov	r0, #1000
 3004 04ec FFF7FEFF 		bl	CyDelay
 611:.\main.c      ****                 resetArray();
 3005              		.loc 1 611 0
 3006 04f0 FFF7FEFF 		bl	resetArray
 612:.\main.c      ****                 home = 1;
 3007              		.loc 1 612 0
 3008 04f4 40F20003 		movw	r3, #:lower16:home
 3009 04f8 C0F20003 		movt	r3, #:upper16:home
 3010 04fc 4FF00102 		mov	r2, #1
 3011 0500 1A70     		strb	r2, [r3, #0]
 3012              	.L182:
 613:.\main.c      ****             }
 614:.\main.c      ****             playerTurn = 1;
 3013              		.loc 1 614 0
ARM GAS  C:\Users\yguan5\AppData\Local\Temp\ccf0bccD.s 			page 65


 3014 0502 40F20003 		movw	r3, #:lower16:playerTurn
 3015 0506 C0F20003 		movt	r3, #:upper16:playerTurn
 3016 050a 4FF00102 		mov	r2, #1
 3017 050e 1A70     		strb	r2, [r3, #0]
 3018              	.L176:
 615:.\main.c      ****         }
 616:.\main.c      ****             
 617:.\main.c      ****         z =0;
 3019              		.loc 1 617 0
 3020 0510 40F20003 		movw	r3, #:lower16:z
 3021 0514 C0F20003 		movt	r3, #:upper16:z
 3022 0518 4FF00002 		mov	r2, #0
 3023 051c 1A70     		strb	r2, [r3, #0]
 618:.\main.c      ****         Winner = 0;
 3024              		.loc 1 618 0
 3025 051e 40F20003 		movw	r3, #:lower16:Winner
 3026 0522 C0F20003 		movt	r3, #:upper16:Winner
 3027 0526 4FF00002 		mov	r2, #0
 3028 052a 1A70     		strb	r2, [r3, #0]
 619:.\main.c      ****         twist = 0;
 3029              		.loc 1 619 0
 3030 052c 40F20003 		movw	r3, #:lower16:twist
 3031 0530 C0F20003 		movt	r3, #:upper16:twist
 3032 0534 4FF00002 		mov	r2, #0
 3033 0538 1A70     		strb	r2, [r3, #0]
 620:.\main.c      ****         Flashing =0;
 3034              		.loc 1 620 0
 3035 053a 40F20003 		movw	r3, #:lower16:Flashing
 3036 053e C0F20003 		movt	r3, #:upper16:Flashing
 3037 0542 4FF00002 		mov	r2, #0
 3038 0546 1A70     		strb	r2, [r3, #0]
 621:.\main.c      ****         selecting = 7;
 3039              		.loc 1 621 0
 3040 0548 40F20003 		movw	r3, #:lower16:selecting
 3041 054c C0F20003 		movt	r3, #:upper16:selecting
 3042 0550 4FF00702 		mov	r2, #7
 3043 0554 1A70     		strb	r2, [r3, #0]
 622:.\main.c      ****         setSpot = 0;
 3044              		.loc 1 622 0
 3045 0556 40F20003 		movw	r3, #:lower16:setSpot
 3046 055a C0F20003 		movt	r3, #:upper16:setSpot
 3047 055e 4FF00002 		mov	r2, #0
 3048 0562 1A70     		strb	r2, [r3, #0]
 623:.\main.c      ****         setButton = 0;
 3049              		.loc 1 623 0
 3050 0564 40F20003 		movw	r3, #:lower16:setButton
 3051 0568 C0F20003 		movt	r3, #:upper16:setButton
 3052 056c 4FF00002 		mov	r2, #0
 3053 0570 1A70     		strb	r2, [r3, #0]
 624:.\main.c      ****     }
 3054              		.loc 1 624 0
 3055 0572 00BF     		nop
 3056              		.loc 1 465 0
 3057 0574 15E6     		b	.L154
 3058              		.cfi_endproc
 3059              	.LFE46:
 3060              		.size	main, .-main
ARM GAS  C:\Users\yguan5\AppData\Local\Temp\ccf0bccD.s 			page 66


 3061 0576 00BF     		.text
 3062              	.Letext0: